
LTAscetic_Atmega32.elf:     file format elf32-avr

Sections:
Idx Name          Size      VMA       LMA       File off  Algn
  0 .text         0000511a  00000000  00000000  000000b4  2**1
                  CONTENTS, ALLOC, LOAD, READONLY, CODE
  1 .data         00000280  00800060  0000511a  000051ce  2**0
                  CONTENTS, ALLOC, LOAD, DATA
  2 .bss          000002a9  008002e0  008002e0  0000544e  2**0
                  ALLOC
  3 .eeprom       0000002b  00810000  00810000  0000544e  2**0
                  CONTENTS, ALLOC, LOAD, DATA
  4 .debug_aranges 00000080  00000000  00000000  00005479  2**0
                  CONTENTS, READONLY, DEBUGGING
  5 .debug_pubnames 000014dd  00000000  00000000  000054f9  2**0
                  CONTENTS, READONLY, DEBUGGING
  6 .debug_info   000042b6  00000000  00000000  000069d6  2**0
                  CONTENTS, READONLY, DEBUGGING
  7 .debug_abbrev 00000926  00000000  00000000  0000ac8c  2**0
                  CONTENTS, READONLY, DEBUGGING
  8 .debug_line   00004695  00000000  00000000  0000b5b2  2**0
                  CONTENTS, READONLY, DEBUGGING
  9 .debug_frame  000009e0  00000000  00000000  0000fc48  2**2
                  CONTENTS, READONLY, DEBUGGING
 10 .debug_str    00001711  00000000  00000000  00010628  2**0
                  CONTENTS, READONLY, DEBUGGING
 11 .debug_loc    00001c21  00000000  00000000  00011d39  2**0
                  CONTENTS, READONLY, DEBUGGING
 12 .debug_ranges 000001c0  00000000  00000000  0001395a  2**0
                  CONTENTS, READONLY, DEBUGGING

Disassembly of section .text:

00000000 <__vectors>:
       0:	0c 94 93 03 	jmp	0x726	; 0x726 <__ctors_end>
       4:	0c 94 2d 25 	jmp	0x4a5a	; 0x4a5a <__vector_1>
       8:	0c 94 fa 24 	jmp	0x49f4	; 0x49f4 <__vector_2>
       c:	0c 94 b0 03 	jmp	0x760	; 0x760 <__bad_interrupt>
      10:	0c 94 df 21 	jmp	0x43be	; 0x43be <__vector_4>
      14:	0c 94 b0 03 	jmp	0x760	; 0x760 <__bad_interrupt>
      18:	0c 94 b0 03 	jmp	0x760	; 0x760 <__bad_interrupt>
      1c:	0c 94 1c 23 	jmp	0x4638	; 0x4638 <__vector_7>
      20:	0c 94 b0 03 	jmp	0x760	; 0x760 <__bad_interrupt>
      24:	0c 94 b0 03 	jmp	0x760	; 0x760 <__bad_interrupt>
      28:	0c 94 b0 03 	jmp	0x760	; 0x760 <__bad_interrupt>
      2c:	0c 94 b0 03 	jmp	0x760	; 0x760 <__bad_interrupt>
      30:	0c 94 b0 03 	jmp	0x760	; 0x760 <__bad_interrupt>
      34:	0c 94 cb 27 	jmp	0x4f96	; 0x4f96 <__vector_13>
      38:	0c 94 b0 03 	jmp	0x760	; 0x760 <__bad_interrupt>
      3c:	0c 94 76 27 	jmp	0x4eec	; 0x4eec <__vector_15>
      40:	0c 94 b0 03 	jmp	0x760	; 0x760 <__bad_interrupt>
      44:	0c 94 b0 03 	jmp	0x760	; 0x760 <__bad_interrupt>
      48:	0c 94 b0 03 	jmp	0x760	; 0x760 <__bad_interrupt>
      4c:	0c 94 b0 03 	jmp	0x760	; 0x760 <__bad_interrupt>
      50:	0c 94 b0 03 	jmp	0x760	; 0x760 <__bad_interrupt>
      54:	9a 1a       	sub	r9, r26
      56:	9d 1a       	sub	r9, r29
      58:	a0 1a       	sub	r10, r16
      5a:	a3 1a       	sub	r10, r19
      5c:	a6 1a       	sub	r10, r22
      5e:	a9 1a       	sub	r10, r25
      60:	ac 1a       	sub	r10, r28
      62:	af 1a       	sub	r10, r31
      64:	b2 1a       	sub	r11, r18
      66:	b5 1a       	sub	r11, r21
      68:	b8 1a       	sub	r11, r24
      6a:	bb 1a       	sub	r11, r27
      6c:	be 1a       	sub	r11, r30
      6e:	c1 1a       	sub	r12, r17
      70:	c4 1a       	sub	r12, r20
      72:	c7 1a       	sub	r12, r23
      74:	ca 1a       	sub	r12, r26
      76:	cd 1a       	sub	r12, r29
      78:	d0 1a       	sub	r13, r16
      7a:	d3 1a       	sub	r13, r19
      7c:	d6 1a       	sub	r13, r22
      7e:	d9 1a       	sub	r13, r25
      80:	dc 1a       	sub	r13, r28
      82:	df 1a       	sub	r13, r31
      84:	e2 1a       	sub	r14, r18
      86:	e5 1a       	sub	r14, r21
      88:	e8 1a       	sub	r14, r24
      8a:	eb 1a       	sub	r14, r27
      8c:	ee 1a       	sub	r14, r30
      8e:	f1 1a       	sub	r15, r17
      90:	f4 1a       	sub	r15, r20
      92:	f7 1a       	sub	r15, r23
      94:	fa 1a       	sub	r15, r26
      96:	fd 1a       	sub	r15, r29
      98:	00 1b       	sub	r16, r16
      9a:	03 1b       	sub	r16, r19
      9c:	06 1b       	sub	r16, r22
      9e:	09 1b       	sub	r16, r25
      a0:	0c 1b       	sub	r16, r28
      a2:	0f 1b       	sub	r16, r31
      a4:	12 1b       	sub	r17, r18
      a6:	15 1b       	sub	r17, r21
      a8:	18 1b       	sub	r17, r24
      aa:	1b 1b       	sub	r17, r27
      ac:	1e 1b       	sub	r17, r30
      ae:	21 1b       	sub	r18, r17
      b0:	24 1b       	sub	r18, r20

000000b2 <Decode2Rus>:
      b2:	41 a0 42 a1 e0 45 a3 a4 a5 a6 4b a7 4d 48 4f a8     A.B..E....K.MHO.
      c2:	50 43 54 a9 aa 58 e1 ab ac e2 ad ae ad af b0 b1     PCT..X..........
      d2:	61 b2 b3 b4 e3 65 b6 b7 b8 b9 ba bb bc bd 6f be     a....e........o.
      e2:	70 63 bf 79 e4 78 e5 c0 c1 e6 c2 c3 c4 c5 c6 c7     pc.y.x..........

000000f2 <command_0>:
      f2:	62 75 6c 6c 65 74 73 5f 69 6e 5f 63 6c 69 70 3d     bullets_in_clip=
	...

00000103 <command_1>:
     103:	62 75 6c 6c 65 74 73 5f 69 6e 5f 63 6c 69 70 3f     bullets_in_clip?
	...

00000114 <command_2>:
     114:	70 72 6f 74 6f 63 6f 6c 3f 00                       protocol?.

0000011e <command_3>:
     11e:	63 6c 69 70 73 3d 00                                clips=.

00000125 <command_4>:
     125:	63 6c 69 70 73 3f 00                                clips?.

0000012c <command_5>:
     12c:	70 72 65 70 61 72 65 5f 74 6f 5f 77 72 69 74 65     prepare_to_write
     13c:	5f 62 6c 6f 63 6b 00                                _block.

00000143 <command_6>:
     143:	72 65 61 64 5f 62 6c 6f 63 6b 00                    read_block.

0000014e <command_7>:
     14e:	73 6f 75 6e 64 5f 31 5f 61 64 72 65 73 73 3d 00     sound_1_adress=.

0000015e <command_8>:
     15e:	73 6f 75 6e 64 5f 31 5f 61 64 72 65 73 73 3f 00     sound_1_adress?.

0000016e <command_9>:
     16e:	73 6f 75 6e 64 5f 31 5f 73 69 7a 65 3d 00           sound_1_size=.

0000017c <command_10>:
     17c:	73 6f 75 6e 64 5f 31 5f 73 69 7a 65 3f 00           sound_1_size?.

0000018a <command_11>:
     18a:	73 6f 75 6e 64 5f 32 5f 61 64 72 65 73 73 3d 00     sound_2_adress=.

0000019a <command_12>:
     19a:	73 6f 75 6e 64 5f 32 5f 61 64 72 65 73 73 3f 00     sound_2_adress?.

000001aa <command_13>:
     1aa:	73 6f 75 6e 64 5f 32 5f 73 69 7a 65 3d 00           sound_2_size=.

000001b8 <command_14>:
     1b8:	73 6f 75 6e 64 5f 32 5f 73 69 7a 65 3f 00           sound_2_size?.

000001c6 <command_15>:
     1c6:	73 6f 75 6e 64 5f 33 5f 61 64 72 65 73 73 3d 00     sound_3_adress=.

000001d6 <command_16>:
     1d6:	73 6f 75 6e 64 5f 33 5f 61 64 72 65 73 73 3f 00     sound_3_adress?.

000001e6 <command_17>:
     1e6:	73 6f 75 6e 64 5f 33 5f 73 69 7a 65 3d 00           sound_3_size=.

000001f4 <command_18>:
     1f4:	73 6f 75 6e 64 5f 33 5f 73 69 7a 65 3f 00           sound_3_size?.

00000202 <command_19>:
     202:	73 6f 75 6e 64 5f 34 5f 61 64 72 65 73 73 3d 00     sound_4_adress=.

00000212 <command_20>:
     212:	73 6f 75 6e 64 5f 34 5f 61 64 72 65 73 73 3f 00     sound_4_adress?.

00000222 <command_21>:
     222:	73 6f 75 6e 64 5f 34 5f 73 69 7a 65 3d 00           sound_4_size=.

00000230 <command_22>:
     230:	73 6f 75 6e 64 5f 34 5f 73 69 7a 65 3f 00           sound_4_size?.

0000023e <command_23>:
     23e:	73 6f 75 6e 64 5f 35 5f 61 64 72 65 73 73 3d 00     sound_5_adress=.

0000024e <command_24>:
     24e:	73 6f 75 6e 64 5f 35 5f 61 64 72 65 73 73 3f 00     sound_5_adress?.

0000025e <command_25>:
     25e:	73 6f 75 6e 64 5f 35 5f 73 69 7a 65 3d 00           sound_5_size=.

0000026c <command_26>:
     26c:	73 6f 75 6e 64 5f 35 5f 73 69 7a 65 3f 00           sound_5_size?.

0000027a <command_27>:
     27a:	73 6f 75 6e 64 5f 36 5f 61 64 72 65 73 73 3d 00     sound_6_adress=.

0000028a <command_28>:
     28a:	73 6f 75 6e 64 5f 36 5f 61 64 72 65 73 73 3f 00     sound_6_adress?.

0000029a <command_29>:
     29a:	73 6f 75 6e 64 5f 36 5f 73 69 7a 65 3d 00           sound_6_size=.

000002a8 <command_30>:
     2a8:	73 6f 75 6e 64 5f 36 5f 73 69 7a 65 3f 00           sound_6_size?.

000002b6 <command_31>:
     2b6:	70 6c 61 79 5f 73 6f 75 6e 64 00                    play_sound.

000002c1 <command_32>:
     2c1:	70 6c 61 79 5f 73 68 6f 74 5f 73 6f 75 6e 64 00     play_shot_sound.

000002d1 <command_33>:
     2d1:	70 6c 61 79 65 72 5f 69 64 3d 00                    player_id=.

000002dc <command_34>:
     2dc:	70 6c 61 79 65 72 5f 69 64 3f 00                    player_id?.

000002e7 <command_35>:
     2e7:	64 61 6d 61 67 65 5f 69 6e 64 65 78 3d 00           damage_index=.

000002f5 <command_36>:
     2f5:	64 61 6d 61 67 65 5f 69 6e 64 65 78 3f 00           damage_index?.

00000303 <command_37>:
     303:	69 72 5f 70 6f 77 65 72 3d 00                       ir_power=.

0000030d <command_38>:
     30d:	69 72 5f 70 6f 77 65 72 3f 00                       ir_power?.

00000317 <command_39>:
     317:	66 72 69 65 6e 64 6c 79 5f 66 69 72 65 3d 00        friendly_fire=.

00000326 <command_40>:
     326:	66 72 69 65 6e 64 6c 79 5f 66 69 72 65 3f 00        friendly_fire?.

00000335 <command_41>:
     335:	74 65 61 6d 5f 69 64 3d 00                          team_id=.

0000033e <command_42>:
     33e:	74 65 61 6d 5f 69 64 3f 00                          team_id?.

00000347 <command_43>:
     347:	62 61 74 74 5f 66 75 6c 6c 5f 76 6f 6c 74 61 67     batt_full_voltag
     357:	65 3d 00                                            e=.

0000035a <command_44>:
     35a:	62 61 74 74 5f 66 75 6c 6c 5f 76 6f 6c 74 61 67     batt_full_voltag
     36a:	65 3f 00                                            e?.

0000036d <command_45>:
     36d:	62 61 74 74 5f 6c 6f 77 5f 76 6f 6c 74 61 67 65     batt_low_voltage
     37d:	3d 00                                               =.

0000037f <command_46>:
     37f:	62 61 74 74 5f 6c 6f 77 5f 76 6f 6c 74 61 67 65     batt_low_voltage
     38f:	3f 00                                               ?.

00000391 <commandsPointers>:
     391:	f2 00 03 01 14 01 1e 01 25 01 2c 01 43 01 4e 01     ........%.,.C.N.
     3a1:	5e 01 6e 01 7c 01 8a 01 9a 01 aa 01 b8 01 c6 01     ^.n.|...........
     3b1:	d6 01 e6 01 f4 01 02 02 12 02 22 02 30 02 3e 02     ..........".0.>.
     3c1:	4e 02 5e 02 6c 02 7a 02 8a 02 9a 02 a8 02 b6 02     N.^.l.z.........
     3d1:	c1 02 d1 02 dc 02 e7 02 f5 02 03 03 0d 03 17 03     ................
     3e1:	26 03 35 03 3e 03 47 03 5a 03 6d 03 7f 03           &.5.>.G.Z.m...

000003ef <unknown_command_error>:
     3ef:	45 52 52 4f 52 3a 75 6e 6b 6e 6f 77 6e 20 63 6f     ERROR:unknown co
     3ff:	6d 6d 61 6e 64 0d 0a 00                             mmand...

00000407 <command_error>:
     407:	45 52 52 4f 52 0d 0a 00                             ERROR...

0000040f <parameter_empty_error>:
     40f:	45 52 52 4f 52 3a 70 61 72 61 6d 65 74 65 72 20     ERROR:parameter 
     41f:	69 73 20 6e 6f 74 20 73 70 65 63 69 66 69 65 64     is not specified
     42f:	0d 0a 00                                            ...

00000432 <parameter_out_of_range_error>:
     432:	45 52 52 4f 52 3a 70 61 72 61 6d 65 74 65 72 20     ERROR:parameter 
     442:	6f 75 74 20 6f 66 20 72 61 6e 67 65 0d 0a 00        out of range...

00000451 <parameter_invalid_error>:
     451:	45 52 52 4f 52 3a 69 6e 76 61 6c 69 64 20 70 61     ERROR:invalid pa
     461:	72 61 6d 65 74 65 72 0d 0a 00                       rameter...

0000046b <ok_string>:
     46b:	0d 0a 4f 4b 0d 0a 00                                ..OK...

00000472 <protocol>:
     472:	ca ee eb e8 f7 e5 f1 f2 e2 ee 20 ef e0 f2 f0 ee     .......... .....
     482:	ed ee e2 20 e2 20 ec e0 e3 e0 e7 e8 ed e5 3b 69     ... . ........;i
     492:	6e 74 28 30 2c 39 30 29 3b 62 75 6c 6c 65 74 73     nt(0,90);bullets
     4a2:	5f 69 6e 5f 63 6c 69 70 3f 3b 62 75 6c 6c 65 74     _in_clip?;bullet
     4b2:	73 5f 69 6e 5f 63 6c 69 70 3d 0d 0a cc e0 e3 e0     s_in_clip=......
     4c2:	e7 e8 ed ee e2 3b 69 6e 74 28 30 2c 31 30 30 29     .....;int(0,100)
     4d2:	3b 63 6c 69 70 73 3f 3b 63 6c 69 70 73 3d 0d 0a     ;clips?;clips=..
     4e2:	c8 e4 e5 ed f2 e8 f4 e8 ea e0 f2 ee f0 20 e8 e3     ............. ..
     4f2:	f0 ee ea e0 3b 69 6e 74 28 30 2c 31 32 37 29 3b     ....;int(0,127);
     502:	70 6c 61 79 65 72 5f 69 64 3f 3b 70 6c 61 79 65     player_id?;playe
     512:	72 5f 69 64 3d 0d 0a d6 e2 e5 f2 20 ea ee ec e0     r_id=...... ....
     522:	ed e4 fb 3b 65 6e 75 6d 28 ca f0 e0 f1 ed e0 ff     ...;enum(.......
     532:	2c d1 e8 ed ff ff 2c c6 e5 eb f2 e0 ff 2c c7 e5     ,.....,......,..
     542:	eb e5 ed e0 ff 29 3b 74 65 61 6d 5f 69 64 3f 3b     .....);team_id?;
     552:	74 65 61 6d 5f 69 64 3d 0d 0a cd e0 ed ee f1 e8     team_id=........
     562:	ec fb e9 20 f3 f0 ee ed 3b 65 6e 75 6d 28 31 25     ... ....;enum(1%
     572:	2c 32 25 2c 34 25 2c 35 25 2c 37 25 2c 31 30 25     ,2%,4%,5%,7%,10%
     582:	2c 31 35 25 2c 31 37 25 2c 32 30 25 2c 32 35 25     ,15%,17%,20%,25%
     592:	2c 33 30 25 2c 33 35 25 2c 34 30 25 2c 35 30 25     ,30%,35%,40%,50%
     5a2:	2c 37 35 25 2c 31 30 30 25 29 3b 64 61 6d 61 67     ,75%,100%);damag
     5b2:	65 5f 69 6e 64 65 78 3f 3b 64 61 6d 61 67 65 5f     e_index?;damage_
     5c2:	69 6e 64 65 78 3d 0d 0a c4 f0 f3 e6 e5 f1 f2 e2     index=..........
     5d2:	e5 ed ed fb e9 20 ee e3 ee ed fc 3b 65 6e 75 6d     ..... .....;enum
     5e2:	28 cd e5 f2 2c c4 e0 29 3b 66 72 69 65 6e 64 6c     (...,..);friendl
     5f2:	79 5f 66 69 72 65 3f 3b 66 72 69 65 6e 64 6c 79     y_fire?;friendly
     602:	5f 66 69 72 65 3d 0d 0a cc ee f9 ed ee f1 f2 fc     _fire=..........
     612:	20 c8 ca 20 e8 e7 eb f3 f7 e5 ed e8 ff 3b 65 6e      .. .........;en
     622:	75 6d 28 c4 eb ff 20 e8 e3 f0 fb 20 e2 20 ef ee     um(... .... . ..
     632:	ec e5 f9 e5 ed e8 e8 2c c4 eb ff 20 e8 e3 f0 fb     .......,... ....
     642:	20 ed e0 20 f3 eb e8 f6 e5 29 3b 69 72 5f 70 6f      .. .....);ir_po
     652:	77 65 72 3f 3b 69 72 5f 70 6f 77 65 72 3d 0d 0a     wer?;ir_power=..
     662:	cd e0 ef f0 ff e6 e5 ed e8 e5 20 e7 e0 f0 ff e6     .......... .....
     672:	2e 20 e1 e0 f2 e0 f0 e5 e8 20 ec c2 3b 69 6e 74     . ....... ..;int
     682:	28 35 30 30 30 2c 34 35 30 30 30 29 3b 62 61 74     (5000,45000);bat
     692:	74 5f 66 75 6c 6c 5f 76 6f 6c 74 61 67 65 3f 3b     t_full_voltage?;
     6a2:	62 61 74 74 5f 66 75 6c 6c 5f 76 6f 6c 74 61 67     batt_full_voltag
     6b2:	65 3d 0d 0a cd e0 ef f0 ff e6 e5 ed e8 e5 20 f0     e=............ .
     6c2:	e0 e7 f0 ff e6 2e 20 e1 e0 f2 e0 f0 e5 e8 20 ec     ...... ....... .
     6d2:	c2 3b 69 6e 74 28 34 35 30 30 2c 34 35 30 30 30     .;int(4500,45000
     6e2:	29 3b 62 61 74 74 5f 6c 6f 77 5f 76 6f 6c 74 61     );batt_low_volta
     6f2:	67 65 3f 3b 62 61 74 74 5f 6c 6f 77 5f 76 6f 6c     ge?;batt_low_vol
     702:	74 61 67 65 3d 0d 0a 00                             tage=...

0000070a <numbers>:
     70a:	30 31 32 33 34 35 36 37 38 39 00                    0123456789.

00000715 <damage_value>:
     715:	01 02 04 05 07 0a 0f 11 14 19 1e 23 28 32 4b 64     ...........#(2Kd
	...

00000726 <__ctors_end>:
     726:	11 24       	eor	r1, r1
     728:	1f be       	out	0x3f, r1	; 63
     72a:	cf e5       	ldi	r28, 0x5F	; 95
     72c:	d8 e0       	ldi	r29, 0x08	; 8
     72e:	de bf       	out	0x3e, r29	; 62
     730:	cd bf       	out	0x3d, r28	; 61

00000732 <__do_copy_data>:
     732:	12 e0       	ldi	r17, 0x02	; 2
     734:	a0 e6       	ldi	r26, 0x60	; 96
     736:	b0 e0       	ldi	r27, 0x00	; 0
     738:	ea e1       	ldi	r30, 0x1A	; 26
     73a:	f1 e5       	ldi	r31, 0x51	; 81
     73c:	02 c0       	rjmp	.+4      	; 0x742 <.do_copy_data_start>

0000073e <.do_copy_data_loop>:
     73e:	05 90       	lpm	r0, Z+
     740:	0d 92       	st	X+, r0

00000742 <.do_copy_data_start>:
     742:	a0 3e       	cpi	r26, 0xE0	; 224
     744:	b1 07       	cpc	r27, r17
     746:	d9 f7       	brne	.-10     	; 0x73e <.do_copy_data_loop>

00000748 <__do_clear_bss>:
     748:	15 e0       	ldi	r17, 0x05	; 5
     74a:	a0 ee       	ldi	r26, 0xE0	; 224
     74c:	b2 e0       	ldi	r27, 0x02	; 2
     74e:	01 c0       	rjmp	.+2      	; 0x752 <.do_clear_bss_start>

00000750 <.do_clear_bss_loop>:
     750:	1d 92       	st	X+, r1

00000752 <.do_clear_bss_start>:
     752:	a9 38       	cpi	r26, 0x89	; 137
     754:	b1 07       	cpc	r27, r17
     756:	e1 f7       	brne	.-8      	; 0x750 <.do_clear_bss_loop>
     758:	0e 94 b5 1d 	call	0x3b6a	; 0x3b6a <main>
     75c:	0c 94 8b 28 	jmp	0x5116	; 0x5116 <_exit>

00000760 <__bad_interrupt>:
     760:	0c 94 00 00 	jmp	0	; 0x0 <__vectors>

00000764 <init_shift_register>:
#define SHIFT_REGISTER_ST_CP_OFF SHIFT_REGISTER_ST_CP_PORT&=~SHIFT_REGISTER_ST_CP_PIN ////выставляем в "0" сигнал ST_CP 


//настраиваем все управляющие сдвиговым регистром выводы как "выходы"
void init_shift_register(void){ //
SHIFT_REGISTER_DS_DDR|=SHIFT_REGISTER_DS_PIN;
     764:	e7 e3       	ldi	r30, 0x37	; 55
     766:	f0 e0       	ldi	r31, 0x00	; 0
     768:	80 81       	ld	r24, Z
     76a:	80 62       	ori	r24, 0x20	; 32
     76c:	80 83       	st	Z, r24
SHIFT_REGISTER_SH_CP_DDR|= SHIFT_REGISTER_SH_CP_PIN;
     76e:	80 81       	ld	r24, Z
     770:	80 68       	ori	r24, 0x80	; 128
     772:	80 83       	st	Z, r24
SHIFT_REGISTER_ST_CP_DDR|= SHIFT_REGISTER_ST_CP_PIN;
     774:	80 81       	ld	r24, Z
     776:	80 64       	ori	r24, 0x40	; 64
     778:	80 83       	st	Z, r24

SIHFT_REGISTER_DS_OFF;
     77a:	e8 e3       	ldi	r30, 0x38	; 56
     77c:	f0 e0       	ldi	r31, 0x00	; 0
     77e:	80 81       	ld	r24, Z
     780:	8f 7d       	andi	r24, 0xDF	; 223
     782:	80 83       	st	Z, r24
SHIFT_REGISTER_SH_CP_OFF;
     784:	80 81       	ld	r24, Z
     786:	8f 77       	andi	r24, 0x7F	; 127
     788:	80 83       	st	Z, r24
SHIFT_REGISTER_ST_CP_OFF;
     78a:	80 81       	ld	r24, Z
     78c:	8f 7b       	andi	r24, 0xBF	; 191
     78e:	80 83       	st	Z, r24
};
     790:	08 95       	ret

00000792 <shift_register_set_data>:

void shift_register_set_data(volatile uint8_t shift_data){
     792:	df 93       	push	r29
     794:	cf 93       	push	r28
     796:	00 d0       	rcall	.+0      	; 0x798 <shift_register_set_data+0x6>
     798:	cd b7       	in	r28, 0x3d	; 61
     79a:	de b7       	in	r29, 0x3e	; 62
     79c:	8a 83       	std	Y+2, r24	; 0x02
volatile uint8_t mask;
mask = 0b10000000;
     79e:	80 e8       	ldi	r24, 0x80	; 128
     7a0:	89 83       	std	Y+1, r24	; 0x01
     7a2:	20 e0       	ldi	r18, 0x00	; 0
     7a4:	30 e0       	ldi	r19, 0x00	; 0
		{SIHFT_REGISTER_DS_OFF;}	
//		if ((mask&shift_data)!=0) 
//		{SIHFT_REGISTER_DS_ON;}	
		
		else 
		{SIHFT_REGISTER_DS_ON;}
     7a6:	e8 e3       	ldi	r30, 0x38	; 56
     7a8:	f0 e0       	ldi	r31, 0x00	; 0
void shift_register_set_data(volatile uint8_t shift_data){
volatile uint8_t mask;
mask = 0b10000000;
for (int i=0; i<8; i++)	
	{
		if ((mask&shift_data) ==0) 
     7aa:	99 81       	ldd	r25, Y+1	; 0x01
     7ac:	8a 81       	ldd	r24, Y+2	; 0x02
     7ae:	89 23       	and	r24, r25
     7b0:	21 f4       	brne	.+8      	; 0x7ba <shift_register_set_data+0x28>
		{SIHFT_REGISTER_DS_OFF;}	
     7b2:	80 81       	ld	r24, Z
     7b4:	8f 7d       	andi	r24, 0xDF	; 223
     7b6:	80 83       	st	Z, r24
     7b8:	03 c0       	rjmp	.+6      	; 0x7c0 <shift_register_set_data+0x2e>
//		if ((mask&shift_data)!=0) 
//		{SIHFT_REGISTER_DS_ON;}	
		
		else 
		{SIHFT_REGISTER_DS_ON;}
     7ba:	80 81       	ld	r24, Z
     7bc:	80 62       	ori	r24, 0x20	; 32
     7be:	80 83       	st	Z, r24
		SHIFT_REGISTER_SH_CP_ON;
     7c0:	80 81       	ld	r24, Z
     7c2:	80 68       	ori	r24, 0x80	; 128
     7c4:	80 83       	st	Z, r24
//--//		asm("nop");
		SHIFT_REGISTER_SH_CP_OFF;
     7c6:	80 81       	ld	r24, Z
     7c8:	8f 77       	andi	r24, 0x7F	; 127
     7ca:	80 83       	st	Z, r24
		mask = (mask>>1);
     7cc:	89 81       	ldd	r24, Y+1	; 0x01
     7ce:	86 95       	lsr	r24
     7d0:	89 83       	std	Y+1, r24	; 0x01
};

void shift_register_set_data(volatile uint8_t shift_data){
volatile uint8_t mask;
mask = 0b10000000;
for (int i=0; i<8; i++)	
     7d2:	2f 5f       	subi	r18, 0xFF	; 255
     7d4:	3f 4f       	sbci	r19, 0xFF	; 255
     7d6:	28 30       	cpi	r18, 0x08	; 8
     7d8:	31 05       	cpc	r19, r1
     7da:	39 f7       	brne	.-50     	; 0x7aa <shift_register_set_data+0x18>
//--//		asm("nop");
		SHIFT_REGISTER_SH_CP_OFF;
		mask = (mask>>1);
	}
	
	SHIFT_REGISTER_ST_CP_OFF;
     7dc:	e8 e3       	ldi	r30, 0x38	; 56
     7de:	f0 e0       	ldi	r31, 0x00	; 0
     7e0:	80 81       	ld	r24, Z
     7e2:	8f 7b       	andi	r24, 0xBF	; 191
     7e4:	80 83       	st	Z, r24
//--//	asm("nop");
	SHIFT_REGISTER_ST_CP_ON;
     7e6:	80 81       	ld	r24, Z
     7e8:	80 64       	ori	r24, 0x40	; 64
     7ea:	80 83       	st	Z, r24
}
     7ec:	0f 90       	pop	r0
     7ee:	0f 90       	pop	r0
     7f0:	cf 91       	pop	r28
     7f2:	df 91       	pop	r29
     7f4:	08 95       	ret

000007f6 <shift_register_clean>:


void shift_register_clean(void){
shift_register_set_data(0);
     7f6:	80 e0       	ldi	r24, 0x00	; 0
     7f8:	0e 94 c9 03 	call	0x792	; 0x792 <shift_register_set_data>
}
     7fc:	08 95       	ret

000007fe <toggle_e>:


/* toggle Enable Pin to initiate write */
static void toggle_e(void)
{
    lcd_e_high();
     7fe:	80 91 fe 02 	lds	r24, 0x02FE
     802:	84 60       	ori	r24, 0x04	; 4
     804:	80 93 fe 02 	sts	0x02FE, r24
     808:	0e 94 c9 03 	call	0x792	; 0x792 <shift_register_set_data>
  //  lcd_e_delay();
    lcd_e_low();
     80c:	80 91 fe 02 	lds	r24, 0x02FE
     810:	8b 7f       	andi	r24, 0xFB	; 251
     812:	80 93 fe 02 	sts	0x02FE, r24
     816:	0e 94 c9 03 	call	0x792	; 0x792 <shift_register_set_data>
}
     81a:	08 95       	ret

0000081c <lcd_write>:
}



static void lcd_write(uint8_t data,uint8_t rs) 
{
     81c:	1f 93       	push	r17
     81e:	98 2f       	mov	r25, r24
    unsigned char dataBits ;

//	lcd_buffer=0; //очищаем буффер
    if (rs) {   /* write data        (RS=1, RW=0) */
     820:	66 23       	and	r22, r22
     822:	31 f0       	breq	.+12     	; 0x830 <lcd_write+0x14>
       rs_high;
     824:	80 91 fe 02 	lds	r24, 0x02FE
     828:	82 60       	ori	r24, 0x02	; 2
     82a:	80 93 fe 02 	sts	0x02FE, r24
     82e:	05 c0       	rjmp	.+10     	; 0x83a <lcd_write+0x1e>
    } else {    /* write instruction (RS=0, RW=0) */
       rs_low;
     830:	80 91 fe 02 	lds	r24, 0x02FE
     834:	8d 7f       	andi	r24, 0xFD	; 253
     836:	80 93 fe 02 	sts	0x02FE, r24
    }
   // lcd_rw_low();

    
	//сначала выведем старший полубайт
	if(data & 0x80) data_3_high;
     83a:	99 23       	and	r25, r25
     83c:	34 f4       	brge	.+12     	; 0x84a <lcd_write+0x2e>
     83e:	80 91 fe 02 	lds	r24, 0x02FE
     842:	80 64       	ori	r24, 0x40	; 64
     844:	80 93 fe 02 	sts	0x02FE, r24
     848:	05 c0       	rjmp	.+10     	; 0x854 <lcd_write+0x38>
    else data_3_low;
     84a:	80 91 fe 02 	lds	r24, 0x02FE
     84e:	8f 7b       	andi	r24, 0xBF	; 191
     850:	80 93 fe 02 	sts	0x02FE, r24
	if(data & 0x40) data_2_high;
     854:	19 2f       	mov	r17, r25
     856:	96 ff       	sbrs	r25, 6
     858:	06 c0       	rjmp	.+12     	; 0x866 <__stack+0x7>
     85a:	80 91 fe 02 	lds	r24, 0x02FE
     85e:	80 62       	ori	r24, 0x20	; 32
     860:	80 93 fe 02 	sts	0x02FE, r24
     864:	05 c0       	rjmp	.+10     	; 0x870 <__stack+0x11>
	else data_2_low;
     866:	80 91 fe 02 	lds	r24, 0x02FE
     86a:	8f 7d       	andi	r24, 0xDF	; 223
     86c:	80 93 fe 02 	sts	0x02FE, r24
    if(data & 0x20) data_1_high;
     870:	15 ff       	sbrs	r17, 5
     872:	06 c0       	rjmp	.+12     	; 0x880 <__stack+0x21>
     874:	80 91 fe 02 	lds	r24, 0x02FE
     878:	80 61       	ori	r24, 0x10	; 16
     87a:	80 93 fe 02 	sts	0x02FE, r24
     87e:	05 c0       	rjmp	.+10     	; 0x88a <__stack+0x2b>
	else data_1_low;
     880:	80 91 fe 02 	lds	r24, 0x02FE
     884:	8f 7e       	andi	r24, 0xEF	; 239
     886:	80 93 fe 02 	sts	0x02FE, r24
    if(data & 0x10) data_0_high;
     88a:	14 ff       	sbrs	r17, 4
     88c:	06 c0       	rjmp	.+12     	; 0x89a <__stack+0x3b>
     88e:	80 91 fe 02 	lds	r24, 0x02FE
     892:	88 60       	ori	r24, 0x08	; 8
     894:	80 93 fe 02 	sts	0x02FE, r24
     898:	05 c0       	rjmp	.+10     	; 0x8a4 <__stack+0x45>
 	else data_0_low;
     89a:	80 91 fe 02 	lds	r24, 0x02FE
     89e:	87 7f       	andi	r24, 0xF7	; 247
     8a0:	80 93 fe 02 	sts	0x02FE, r24
	lcd_update(); //выдвигаем данные из буфера в регистр   
     8a4:	80 91 fe 02 	lds	r24, 0x02FE
     8a8:	0e 94 c9 03 	call	0x792	; 0x792 <shift_register_set_data>
    lcd_e_toggle();//говорим дисплею, что данные готовы
     8ac:	0e 94 ff 03 	call	0x7fe	; 0x7fe <toggle_e>
    milliseconds can be achieved.
 */
void
_delay_loop_2(uint16_t __count)
{
	__asm__ volatile (
     8b0:	80 e4       	ldi	r24, 0x40	; 64
     8b2:	9f e1       	ldi	r25, 0x1F	; 31
     8b4:	01 97       	sbiw	r24, 0x01	; 1
     8b6:	f1 f7       	brne	.-4      	; 0x8b4 <__stack+0x55>
	_delay_ms(2);//-----// 
	
//	lcd_buffer=0; //очищаем буффер
	//теперь выведем младший полубайт

	if(data & 0x08) data_3_high;
     8b8:	13 ff       	sbrs	r17, 3
     8ba:	06 c0       	rjmp	.+12     	; 0x8c8 <__stack+0x69>
     8bc:	80 91 fe 02 	lds	r24, 0x02FE
     8c0:	80 64       	ori	r24, 0x40	; 64
     8c2:	80 93 fe 02 	sts	0x02FE, r24
     8c6:	05 c0       	rjmp	.+10     	; 0x8d2 <__stack+0x73>
	else data_3_low;
     8c8:	80 91 fe 02 	lds	r24, 0x02FE
     8cc:	8f 7b       	andi	r24, 0xBF	; 191
     8ce:	80 93 fe 02 	sts	0x02FE, r24
    if(data & 0x04) data_2_high;
     8d2:	12 ff       	sbrs	r17, 2
     8d4:	06 c0       	rjmp	.+12     	; 0x8e2 <__stack+0x83>
     8d6:	80 91 fe 02 	lds	r24, 0x02FE
     8da:	80 62       	ori	r24, 0x20	; 32
     8dc:	80 93 fe 02 	sts	0x02FE, r24
     8e0:	05 c0       	rjmp	.+10     	; 0x8ec <__stack+0x8d>
	else data_2_low;
     8e2:	80 91 fe 02 	lds	r24, 0x02FE
     8e6:	8f 7d       	andi	r24, 0xDF	; 223
     8e8:	80 93 fe 02 	sts	0x02FE, r24
    if(data & 0x02) data_1_high;
     8ec:	11 ff       	sbrs	r17, 1
     8ee:	06 c0       	rjmp	.+12     	; 0x8fc <__stack+0x9d>
     8f0:	80 91 fe 02 	lds	r24, 0x02FE
     8f4:	80 61       	ori	r24, 0x10	; 16
     8f6:	80 93 fe 02 	sts	0x02FE, r24
     8fa:	05 c0       	rjmp	.+10     	; 0x906 <__stack+0xa7>
	else data_1_low;
     8fc:	80 91 fe 02 	lds	r24, 0x02FE
     900:	8f 7e       	andi	r24, 0xEF	; 239
     902:	80 93 fe 02 	sts	0x02FE, r24
    if(data & 0x01) data_0_high;
     906:	10 ff       	sbrs	r17, 0
     908:	06 c0       	rjmp	.+12     	; 0x916 <__stack+0xb7>
     90a:	80 91 fe 02 	lds	r24, 0x02FE
     90e:	88 60       	ori	r24, 0x08	; 8
     910:	80 93 fe 02 	sts	0x02FE, r24
     914:	05 c0       	rjmp	.+10     	; 0x920 <__stack+0xc1>
    else data_0_low;
     916:	80 91 fe 02 	lds	r24, 0x02FE
     91a:	87 7f       	andi	r24, 0xF7	; 247
     91c:	80 93 fe 02 	sts	0x02FE, r24
	lcd_update(); //выдвигаем данные из буфера в регистр   
     920:	80 91 fe 02 	lds	r24, 0x02FE
     924:	0e 94 c9 03 	call	0x792	; 0x792 <shift_register_set_data>
	lcd_e_toggle(); //говорим дисплею, что данные готовы       
     928:	0e 94 ff 03 	call	0x7fe	; 0x7fe <toggle_e>
     92c:	80 e4       	ldi	r24, 0x40	; 64
     92e:	9f e1       	ldi	r25, 0x1F	; 31
     930:	01 97       	sbiw	r24, 0x01	; 1
     932:	f1 f7       	brne	.-4      	; 0x930 <__stack+0xd1>
//    data_1_high;
//    data_0_high;
//	lcd_update(); //выдвигаем данные из буфера в регистр   
	
	
}
     934:	1f 91       	pop	r17
     936:	08 95       	ret

00000938 <lcd_command>:
Returns: none
*************************************************************************/
void lcd_command(uint8_t cmd)
{
   // lcd_waitbusy();
    lcd_write(cmd,0);
     938:	60 e0       	ldi	r22, 0x00	; 0
     93a:	0e 94 0e 04 	call	0x81c	; 0x81c <lcd_write>
}
     93e:	08 95       	ret

00000940 <lcd_clrscr>:
/*************************************************************************
Clear display and set cursor to home position
*************************************************************************/
void lcd_clrscr(void)
{
    lcd_command(LCD_CLR);
     940:	81 e0       	ldi	r24, 0x01	; 1
     942:	90 e0       	ldi	r25, 0x00	; 0
     944:	0e 94 9c 04 	call	0x938	; 0x938 <lcd_command>
}
     948:	08 95       	ret

0000094a <lcd_data>:
Returns: none
*************************************************************************/
void lcd_data(uint8_t data)
{
//    lcd_waitbusy();
    lcd_write(data,1);
     94a:	61 e0       	ldi	r22, 0x01	; 1
     94c:	0e 94 0e 04 	call	0x81c	; 0x81c <lcd_write>
}
     950:	08 95       	ret

00000952 <lcd_function_set>:




void lcd_function_set(uint8_t Attr){
lcd_buffer = LCD_FUNCTION|Attr;
     952:	80 61       	ori	r24, 0x10	; 16
     954:	80 93 fe 02 	sts	0x02FE, r24
lcd_e_toggle();
     958:	0e 94 ff 03 	call	0x7fe	; 0x7fe <toggle_e>
     95c:	80 ee       	ldi	r24, 0xE0	; 224
     95e:	9e e2       	ldi	r25, 0x2E	; 46
     960:	01 97       	sbiw	r24, 0x01	; 1
     962:	f1 f7       	brne	.-4      	; 0x960 <lcd_function_set+0xe>
//shift_register_set_data(LCD_FUNCTION|Attr|E);
//_delay_ms(15); 
//shift_register_set_data(LCD_FUNCTION|Attr);
//_delay_ms(15); //-//
_delay_ms(3);
}
     964:	08 95       	ret

00000966 <lcd_newline>:
/*************************************************************************
Move cursor to the start of next line or to the first line if the cursor 
is already on the last line.
*************************************************************************/
inline void lcd_newline(uint8_t pos)
{
     966:	df 93       	push	r29
     968:	cf 93       	push	r28
     96a:	0f 92       	push	r0
     96c:	cd b7       	in	r28, 0x3d	; 61
     96e:	de b7       	in	r29, 0x3e	; 62

#if LCD_LINES==1
    addressCounter = 0;
#endif
#if LCD_LINES==2
    if ( pos < (LCD_START_LINE2) )
     970:	80 34       	cpi	r24, 0x40	; 64
     972:	18 f4       	brcc	.+6      	; 0x97a <lcd_newline+0x14>
        addressCounter = LCD_START_LINE2;
     974:	80 e4       	ldi	r24, 0x40	; 64
     976:	89 83       	std	Y+1, r24	; 0x01
     978:	01 c0       	rjmp	.+2      	; 0x97c <lcd_newline+0x16>
    else
        addressCounter = LCD_START_LINE1;
     97a:	19 82       	std	Y+1, r1	; 0x01
        addressCounter = LCD_START_LINE4;
    else 
        addressCounter = LCD_START_LINE1;
#endif
#endif
    lcd_command((1<<LCD_DDRAM)+addressCounter);
     97c:	89 81       	ldd	r24, Y+1	; 0x01
     97e:	80 58       	subi	r24, 0x80	; 128
     980:	0e 94 9c 04 	call	0x938	; 0x938 <lcd_command>
	pos=addressCounter;
     984:	89 81       	ldd	r24, Y+1	; 0x01
}/* lcd_newline */
     986:	0f 90       	pop	r0
     988:	cf 91       	pop	r28
     98a:	df 91       	pop	r29
     98c:	08 95       	ret

0000098e <lcd_putc>:
*************************************************************************/
void lcd_putc(char c)
{
    
    //pos = lcd_waitbusy();   // read busy-flag and address counter
    if (c=='\n')
     98e:	8a 30       	cpi	r24, 0x0A	; 10
     990:	31 f4       	brne	.+12     	; 0x99e <lcd_putc+0x10>
    {
        lcd_newline(pos);
     992:	80 91 ec 02 	lds	r24, 0x02EC
     996:	90 e0       	ldi	r25, 0x00	; 0
     998:	0e 94 b3 04 	call	0x966	; 0x966 <lcd_newline>
     99c:	08 95       	ret
        }
#endif
//        lcd_waitbusy();
#endif
        
		if(c>=192) c = pgm_read_byte(&(Decode2Rus[c-192]));
     99e:	80 3c       	cpi	r24, 0xC0	; 192
     9a0:	28 f0       	brcs	.+10     	; 0x9ac <lcd_putc+0x1e>
     9a2:	e8 2f       	mov	r30, r24
     9a4:	f0 e0       	ldi	r31, 0x00	; 0
     9a6:	ee 50       	subi	r30, 0x0E	; 14
     9a8:	f0 40       	sbci	r31, 0x00	; 0
     9aa:	84 91       	lpm	r24, Z+
		lcd_write(c, 1);
     9ac:	61 e0       	ldi	r22, 0x01	; 1
     9ae:	0e 94 0e 04 	call	0x81c	; 0x81c <lcd_write>
		pos++;
     9b2:	80 91 ec 02 	lds	r24, 0x02EC
     9b6:	8f 5f       	subi	r24, 0xFF	; 255
     9b8:	80 93 ec 02 	sts	0x02EC, r24
     9bc:	08 95       	ret

000009be <lcd_puts>:
Input:    string to be displayed
Returns:  none
*************************************************************************/
void lcd_puts(const char *s)
/* print string on lcd (no auto linefeed) */
{
     9be:	cf 93       	push	r28
     9c0:	df 93       	push	r29
     9c2:	fc 01       	movw	r30, r24
    register char c;

    while ( (c = *s++) ) {
     9c4:	80 81       	ld	r24, Z
     9c6:	88 23       	and	r24, r24
     9c8:	39 f0       	breq	.+14     	; 0x9d8 <lcd_puts+0x1a>
     9ca:	ef 01       	movw	r28, r30
        lcd_putc(c);
     9cc:	0e 94 c7 04 	call	0x98e	; 0x98e <lcd_putc>
void lcd_puts(const char *s)
/* print string on lcd (no auto linefeed) */
{
    register char c;

    while ( (c = *s++) ) {
     9d0:	89 81       	ldd	r24, Y+1	; 0x01
     9d2:	21 96       	adiw	r28, 0x01	; 1
     9d4:	88 23       	and	r24, r24
     9d6:	d1 f7       	brne	.-12     	; 0x9cc <lcd_puts+0xe>
        lcd_putc(c);
    }

}/* lcd_puts */
     9d8:	df 91       	pop	r29
     9da:	cf 91       	pop	r28
     9dc:	08 95       	ret

000009de <lcd_gotoxy>:
Input:    x  horizontal position  (0: left most position)
          y  vertical position    (0: first line)
Returns:  none
*************************************************************************/
void lcd_gotoxy(uint8_t x, uint8_t y)
{
     9de:	1f 93       	push	r17
     9e0:	18 2f       	mov	r17, r24
#if LCD_LINES==1
    lcd_command((1<<LCD_DDRAM)+LCD_START_LINE1+x);
#endif
#if LCD_LINES==2
    if ( y==0 ) 
     9e2:	66 23       	and	r22, r22
     9e4:	31 f4       	brne	.+12     	; 0x9f2 <lcd_gotoxy+0x14>
	{
        lcd_command((1<<LCD_DDRAM)+LCD_START_LINE1+x);
     9e6:	80 58       	subi	r24, 0x80	; 128
     9e8:	0e 94 9c 04 	call	0x938	; 0x938 <lcd_command>
		pos = LCD_START_LINE1+x;
     9ec:	10 93 ec 02 	sts	0x02EC, r17
     9f0:	07 c0       	rjmp	.+14     	; 0xa00 <lcd_gotoxy+0x22>
    }
	else
    {
	    lcd_command((1<<LCD_DDRAM)+LCD_START_LINE2+x);
     9f2:	80 54       	subi	r24, 0x40	; 64
     9f4:	0e 94 9c 04 	call	0x938	; 0x938 <lcd_command>
		pos=LCD_START_LINE2+x;
     9f8:	81 2f       	mov	r24, r17
     9fa:	80 5c       	subi	r24, 0xC0	; 192
     9fc:	80 93 ec 02 	sts	0x02EC, r24
        lcd_command((1<<LCD_DDRAM)+LCD_START_LINE4+x);
		pos = LCD_START_LINE4+x;
	}
#endif

}/* lcd_gotoxy */
     a00:	1f 91       	pop	r17
     a02:	08 95       	ret

00000a04 <lcd_home>:
/*************************************************************************
Set cursor to home position
*************************************************************************/
void lcd_home(void)
{
    lcd_command(LCD_HOME);
     a04:	82 e0       	ldi	r24, 0x02	; 2
     a06:	0e 94 9c 04 	call	0x938	; 0x938 <lcd_command>
	pos = LCD_HOME;
     a0a:	82 e0       	ldi	r24, 0x02	; 2
     a0c:	80 93 ec 02 	sts	0x02EC, r24
}
     a10:	08 95       	ret

00000a12 <lcd_puts_p>:
Input:     string from program memory be be displayed                                        
Returns:   none
*************************************************************************/
void lcd_puts_p(const char *progmem_s)
/* print string from program memory on lcd (no auto linefeed) */
{
     a12:	cf 93       	push	r28
     a14:	df 93       	push	r29
     a16:	fc 01       	movw	r30, r24
    register char c;

    while ( (c = pgm_read_byte(progmem_s++)) ) {
     a18:	84 91       	lpm	r24, Z+
     a1a:	88 23       	and	r24, r24
     a1c:	49 f0       	breq	.+18     	; 0xa30 <lcd_puts_p+0x1e>
     a1e:	ef 01       	movw	r28, r30
     a20:	21 96       	adiw	r28, 0x01	; 1
        lcd_putc(c);
     a22:	0e 94 c7 04 	call	0x98e	; 0x98e <lcd_putc>
     a26:	fe 01       	movw	r30, r28
void lcd_puts_p(const char *progmem_s)
/* print string from program memory on lcd (no auto linefeed) */
{
    register char c;

    while ( (c = pgm_read_byte(progmem_s++)) ) {
     a28:	21 96       	adiw	r28, 0x01	; 1
     a2a:	84 91       	lpm	r24, Z+
     a2c:	88 23       	and	r24, r24
     a2e:	c9 f7       	brne	.-14     	; 0xa22 <lcd_puts_p+0x10>
        lcd_putc(c);
    }

}/* lcd_puts_p */
     a30:	df 91       	pop	r29
     a32:	cf 91       	pop	r28
     a34:	08 95       	ret

00000a36 <lcd_bl_on>:



void lcd_bl_on(void)
{
lcd_bl_high();
     a36:	80 91 fe 02 	lds	r24, 0x02FE
     a3a:	80 68       	ori	r24, 0x80	; 128
     a3c:	80 93 fe 02 	sts	0x02FE, r24
     a40:	0e 94 c9 03 	call	0x792	; 0x792 <shift_register_set_data>
}
     a44:	08 95       	ret

00000a46 <lcd_bl_off>:


void lcd_bl_off(void)
{
lcd_bl_low();
     a46:	80 91 fe 02 	lds	r24, 0x02FE
     a4a:	8f 77       	andi	r24, 0x7F	; 127
     a4c:	80 93 fe 02 	sts	0x02FE, r24
     a50:	0e 94 c9 03 	call	0x792	; 0x792 <shift_register_set_data>
}
     a54:	08 95       	ret

00000a56 <lcd_generate_batt_symbols>:
*создаем в памяти ЖКИ символы батарейки
*****************************************/

void lcd_generate_batt_symbols(void)
{
lcd_command(1<<LCD_CGRAM|0); //устанавливаем адрес CGRAM=0 
     a56:	80 e4       	ldi	r24, 0x40	; 64
     a58:	0e 94 9c 04 	call	0x938	; 0x938 <lcd_command>
lcd_data(0b00001110);
     a5c:	8e e0       	ldi	r24, 0x0E	; 14
     a5e:	0e 94 a5 04 	call	0x94a	; 0x94a <lcd_data>
lcd_data(0b00010001);
     a62:	81 e1       	ldi	r24, 0x11	; 17
     a64:	0e 94 a5 04 	call	0x94a	; 0x94a <lcd_data>
lcd_data(0b00010001);
     a68:	81 e1       	ldi	r24, 0x11	; 17
     a6a:	0e 94 a5 04 	call	0x94a	; 0x94a <lcd_data>
lcd_data(0b00010001);
     a6e:	81 e1       	ldi	r24, 0x11	; 17
     a70:	0e 94 a5 04 	call	0x94a	; 0x94a <lcd_data>
lcd_data(0b00010001);
     a74:	81 e1       	ldi	r24, 0x11	; 17
     a76:	0e 94 a5 04 	call	0x94a	; 0x94a <lcd_data>
lcd_data(0b00010001);
     a7a:	81 e1       	ldi	r24, 0x11	; 17
     a7c:	0e 94 a5 04 	call	0x94a	; 0x94a <lcd_data>
lcd_data(0b00011111);
     a80:	8f e1       	ldi	r24, 0x1F	; 31
     a82:	0e 94 a5 04 	call	0x94a	; 0x94a <lcd_data>
lcd_data(0b00000000);
     a86:	80 e0       	ldi	r24, 0x00	; 0
     a88:	0e 94 a5 04 	call	0x94a	; 0x94a <lcd_data>

lcd_data(0b00001110);
     a8c:	8e e0       	ldi	r24, 0x0E	; 14
     a8e:	0e 94 a5 04 	call	0x94a	; 0x94a <lcd_data>
lcd_data(0b00010001);
     a92:	81 e1       	ldi	r24, 0x11	; 17
     a94:	0e 94 a5 04 	call	0x94a	; 0x94a <lcd_data>
lcd_data(0b00010001);
     a98:	81 e1       	ldi	r24, 0x11	; 17
     a9a:	0e 94 a5 04 	call	0x94a	; 0x94a <lcd_data>
lcd_data(0b00010001);
     a9e:	81 e1       	ldi	r24, 0x11	; 17
     aa0:	0e 94 a5 04 	call	0x94a	; 0x94a <lcd_data>
lcd_data(0b00010001);
     aa4:	81 e1       	ldi	r24, 0x11	; 17
     aa6:	0e 94 a5 04 	call	0x94a	; 0x94a <lcd_data>
lcd_data(0b00011111);
     aaa:	8f e1       	ldi	r24, 0x1F	; 31
     aac:	0e 94 a5 04 	call	0x94a	; 0x94a <lcd_data>
lcd_data(0b00011111);
     ab0:	8f e1       	ldi	r24, 0x1F	; 31
     ab2:	0e 94 a5 04 	call	0x94a	; 0x94a <lcd_data>
lcd_data(0b00000000);
     ab6:	80 e0       	ldi	r24, 0x00	; 0
     ab8:	0e 94 a5 04 	call	0x94a	; 0x94a <lcd_data>

lcd_data(0b00001110);
     abc:	8e e0       	ldi	r24, 0x0E	; 14
     abe:	0e 94 a5 04 	call	0x94a	; 0x94a <lcd_data>
lcd_data(0b00010001);
     ac2:	81 e1       	ldi	r24, 0x11	; 17
     ac4:	0e 94 a5 04 	call	0x94a	; 0x94a <lcd_data>
lcd_data(0b00010001);
     ac8:	81 e1       	ldi	r24, 0x11	; 17
     aca:	0e 94 a5 04 	call	0x94a	; 0x94a <lcd_data>
lcd_data(0b00010001);
     ace:	81 e1       	ldi	r24, 0x11	; 17
     ad0:	0e 94 a5 04 	call	0x94a	; 0x94a <lcd_data>
lcd_data(0b00011111);
     ad4:	8f e1       	ldi	r24, 0x1F	; 31
     ad6:	0e 94 a5 04 	call	0x94a	; 0x94a <lcd_data>
lcd_data(0b00011111);
     ada:	8f e1       	ldi	r24, 0x1F	; 31
     adc:	0e 94 a5 04 	call	0x94a	; 0x94a <lcd_data>
lcd_data(0b00011111);
     ae0:	8f e1       	ldi	r24, 0x1F	; 31
     ae2:	0e 94 a5 04 	call	0x94a	; 0x94a <lcd_data>
lcd_data(0b00000000);
     ae6:	80 e0       	ldi	r24, 0x00	; 0
     ae8:	0e 94 a5 04 	call	0x94a	; 0x94a <lcd_data>

lcd_data(0b00001110);
     aec:	8e e0       	ldi	r24, 0x0E	; 14
     aee:	0e 94 a5 04 	call	0x94a	; 0x94a <lcd_data>
lcd_data(0b00010001);
     af2:	81 e1       	ldi	r24, 0x11	; 17
     af4:	0e 94 a5 04 	call	0x94a	; 0x94a <lcd_data>
lcd_data(0b00010001);
     af8:	81 e1       	ldi	r24, 0x11	; 17
     afa:	0e 94 a5 04 	call	0x94a	; 0x94a <lcd_data>
lcd_data(0b00011111);
     afe:	8f e1       	ldi	r24, 0x1F	; 31
     b00:	0e 94 a5 04 	call	0x94a	; 0x94a <lcd_data>
lcd_data(0b00011111);
     b04:	8f e1       	ldi	r24, 0x1F	; 31
     b06:	0e 94 a5 04 	call	0x94a	; 0x94a <lcd_data>
lcd_data(0b00011111);
     b0a:	8f e1       	ldi	r24, 0x1F	; 31
     b0c:	0e 94 a5 04 	call	0x94a	; 0x94a <lcd_data>
lcd_data(0b00011111);
     b10:	8f e1       	ldi	r24, 0x1F	; 31
     b12:	0e 94 a5 04 	call	0x94a	; 0x94a <lcd_data>
lcd_data(0b00000000);
     b16:	80 e0       	ldi	r24, 0x00	; 0
     b18:	0e 94 a5 04 	call	0x94a	; 0x94a <lcd_data>


lcd_data(0b00001110);
     b1c:	8e e0       	ldi	r24, 0x0E	; 14
     b1e:	0e 94 a5 04 	call	0x94a	; 0x94a <lcd_data>
lcd_data(0b00010001);
     b22:	81 e1       	ldi	r24, 0x11	; 17
     b24:	0e 94 a5 04 	call	0x94a	; 0x94a <lcd_data>
lcd_data(0b00011111);
     b28:	8f e1       	ldi	r24, 0x1F	; 31
     b2a:	0e 94 a5 04 	call	0x94a	; 0x94a <lcd_data>
lcd_data(0b00011111);
     b2e:	8f e1       	ldi	r24, 0x1F	; 31
     b30:	0e 94 a5 04 	call	0x94a	; 0x94a <lcd_data>
lcd_data(0b00011111);
     b34:	8f e1       	ldi	r24, 0x1F	; 31
     b36:	0e 94 a5 04 	call	0x94a	; 0x94a <lcd_data>
lcd_data(0b00011111);
     b3a:	8f e1       	ldi	r24, 0x1F	; 31
     b3c:	0e 94 a5 04 	call	0x94a	; 0x94a <lcd_data>
lcd_data(0b00011111);
     b40:	8f e1       	ldi	r24, 0x1F	; 31
     b42:	0e 94 a5 04 	call	0x94a	; 0x94a <lcd_data>
lcd_data(0b00000000);
     b46:	80 e0       	ldi	r24, 0x00	; 0
     b48:	0e 94 a5 04 	call	0x94a	; 0x94a <lcd_data>

lcd_data(0b00001110);
     b4c:	8e e0       	ldi	r24, 0x0E	; 14
     b4e:	0e 94 a5 04 	call	0x94a	; 0x94a <lcd_data>
lcd_data(0b00011111);
     b52:	8f e1       	ldi	r24, 0x1F	; 31
     b54:	0e 94 a5 04 	call	0x94a	; 0x94a <lcd_data>
lcd_data(0b00011111);
     b58:	8f e1       	ldi	r24, 0x1F	; 31
     b5a:	0e 94 a5 04 	call	0x94a	; 0x94a <lcd_data>
lcd_data(0b00011111);
     b5e:	8f e1       	ldi	r24, 0x1F	; 31
     b60:	0e 94 a5 04 	call	0x94a	; 0x94a <lcd_data>
lcd_data(0b00011111);
     b64:	8f e1       	ldi	r24, 0x1F	; 31
     b66:	0e 94 a5 04 	call	0x94a	; 0x94a <lcd_data>
lcd_data(0b00011111);
     b6a:	8f e1       	ldi	r24, 0x1F	; 31
     b6c:	0e 94 a5 04 	call	0x94a	; 0x94a <lcd_data>
lcd_data(0b00011111);
     b70:	8f e1       	ldi	r24, 0x1F	; 31
     b72:	0e 94 a5 04 	call	0x94a	; 0x94a <lcd_data>
lcd_data(0b00000000);
     b76:	80 e0       	ldi	r24, 0x00	; 0
     b78:	0e 94 a5 04 	call	0x94a	; 0x94a <lcd_data>
lcd_command(1<<LCD_DDRAM|0); //устанавливаем адрес DDRAM=0 
     b7c:	80 e8       	ldi	r24, 0x80	; 128
     b7e:	0e 94 9c 04 	call	0x938	; 0x938 <lcd_command>

}
     b82:	08 95       	ret

00000b84 <init_lcd>:
                   LCD_DISP_ON_CURSOR      display on, cursor on
                   LCD_DISP_CURSOR_BLINK   display on, cursor on flashing
Returns:  none
*************************************************************************/
void init_lcd(){
init_shift_register(); //настраеваем порт для работы со сдвиговым
     b84:	0e 94 b2 03 	call	0x764	; 0x764 <init_shift_register>
shift_register_clean();
     b88:	0e 94 fb 03 	call	0x7f6	; 0x7f6 <shift_register_clean>
lcd_d5_low();
lcd_d6_low();
lcd_d7_low();
//shift_register_set_data(D4|D5|D6|D7);
*/
lcd_buffer = 0;
     b8c:	10 92 fe 02 	sts	0x02FE, r1
pos = 0;
     b90:	10 92 ec 02 	sts	0x02EC, r1
     b94:	2e eb       	ldi	r18, 0xBE	; 190
     b96:	30 e0       	ldi	r19, 0x00	; 0
     b98:	40 e9       	ldi	r20, 0x90	; 144
     b9a:	51 e0       	ldi	r21, 0x01	; 1
     b9c:	ca 01       	movw	r24, r20
     b9e:	01 97       	sbiw	r24, 0x01	; 1
     ba0:	f1 f7       	brne	.-4      	; 0xb9e <init_lcd+0x1a>
		__ticks = (uint16_t) (__ms * 10.0);
		while(__ticks)
		{
			// wait 1/10 ms
			_delay_loop_2(((F_CPU) / 4e3) / 10);
			__ticks --;
     ba2:	21 50       	subi	r18, 0x01	; 1
     ba4:	30 40       	sbci	r19, 0x00	; 0
		__ticks = 1;
	else if (__tmp > 65535)
	{
		//	__ticks = requested delay in 1/10 ms
		__ticks = (uint16_t) (__ms * 10.0);
		while(__ticks)
     ba6:	d1 f7       	brne	.-12     	; 0xb9c <init_lcd+0x18>
_delay_ms(16+3);        /* wait 16ms or more after power-on       */
init_shift_register();
     ba8:	0e 94 b2 03 	call	0x764	; 0x764 <init_shift_register>
     bac:	24 eb       	ldi	r18, 0xB4	; 180
     bae:	30 e0       	ldi	r19, 0x00	; 0
     bb0:	40 e9       	ldi	r20, 0x90	; 144
     bb2:	51 e0       	ldi	r21, 0x01	; 1
     bb4:	ca 01       	movw	r24, r20
     bb6:	01 97       	sbiw	r24, 0x01	; 1
     bb8:	f1 f7       	brne	.-4      	; 0xbb6 <init_lcd+0x32>
		{
			// wait 1/10 ms
			_delay_loop_2(((F_CPU) / 4e3) / 10);
			__ticks --;
     bba:	21 50       	subi	r18, 0x01	; 1
     bbc:	30 40       	sbci	r19, 0x00	; 0
		__ticks = 1;
	else if (__tmp > 65535)
	{
		//	__ticks = requested delay in 1/10 ms
		__ticks = (uint16_t) (__ms * 10.0);
		while(__ticks)
     bbe:	d1 f7       	brne	.-12     	; 0xbb4 <init_lcd+0x30>
_delay_ms(15+3); 

lcd_function_set(LCD_FUNCTION_8BIT);
     bc0:	88 e0       	ldi	r24, 0x08	; 8
     bc2:	90 e0       	ldi	r25, 0x00	; 0
     bc4:	0e 94 a9 04 	call	0x952	; 0x952 <lcd_function_set>

lcd_e_toggle();
     bc8:	0e 94 ff 03 	call	0x7fe	; 0x7fe <toggle_e>

lcd_e_toggle();
     bcc:	0e 94 ff 03 	call	0x7fe	; 0x7fe <toggle_e>

lcd_function_set(LCD_FUNCTION_4BIT);
     bd0:	80 e0       	ldi	r24, 0x00	; 0
     bd2:	90 e0       	ldi	r25, 0x00	; 0
     bd4:	0e 94 a9 04 	call	0x952	; 0x952 <lcd_function_set>

lcd_command(LCD_CMD_FUNCTION|LCD_FUNCTION_DEFAULT);
     bd8:	88 e2       	ldi	r24, 0x28	; 40
     bda:	90 e0       	ldi	r25, 0x00	; 0
     bdc:	0e 94 9c 04 	call	0x938	; 0x938 <lcd_command>

//выключаем дисплей

lcd_command(1<<LCD_ON);
     be0:	88 e0       	ldi	r24, 0x08	; 8
     be2:	90 e0       	ldi	r25, 0x00	; 0
     be4:	0e 94 9c 04 	call	0x938	; 0x938 <lcd_command>

//очищаем дисплей
lcd_command(LCD_CLR);
     be8:	81 e0       	ldi	r24, 0x01	; 1
     bea:	90 e0       	ldi	r25, 0x00	; 0
     bec:	0e 94 9c 04 	call	0x938	; 0x938 <lcd_command>

//Enrty mode set
lcd_command(LCD_ENTRY_MODE);
     bf0:	84 e0       	ldi	r24, 0x04	; 4
     bf2:	90 e0       	ldi	r25, 0x00	; 0
     bf4:	0e 94 9c 04 	call	0x938	; 0x938 <lcd_command>
//lcd_command(LCD_ON|LCD_ON_DISPLAY);

//--//lcd_command(LCD_ON|LCD_DISP_ON_BLINK);


lcd_command(LCD_DISP_ON);//включаем дисплей, курсор выключен
     bf8:	8c e0       	ldi	r24, 0x0C	; 12
     bfa:	90 e0       	ldi	r25, 0x00	; 0
     bfc:	0e 94 9c 04 	call	0x938	; 0x938 <lcd_command>

//ставим курсор на начало
lcd_command(LCD_ENTRY_MODE|LCD_ENTRY_INC);
     c00:	86 e0       	ldi	r24, 0x06	; 6
     c02:	90 e0       	ldi	r25, 0x00	; 0
     c04:	0e 94 9c 04 	call	0x938	; 0x938 <lcd_command>

lcd_generate_batt_symbols();
     c08:	0e 94 2b 05 	call	0xa56	; 0xa56 <lcd_generate_batt_symbols>
}
     c0c:	08 95       	ret

00000c0e <init_tm>:

/**************************************************************************************
* Функция выполняет настройку внешних прерываний вывода INT1
***************************************************************************************/
void init_tm(void){
tm_connect = false;
     c0e:	10 92 1b 03 	sts	0x031B, r1
DDRD &=~(1<<3); 				//Настраиваем вывод INT1 как вход
     c12:	e1 e3       	ldi	r30, 0x31	; 49
     c14:	f0 e0       	ldi	r31, 0x00	; 0
     c16:	80 81       	ld	r24, Z
     c18:	87 7f       	andi	r24, 0xF7	; 247
     c1a:	80 83       	st	Z, r24
PORTD&=~(1<<3);					//Выключаем подтягивающий резистор 
     c1c:	e2 e3       	ldi	r30, 0x32	; 50
     c1e:	f0 e0       	ldi	r31, 0x00	; 0
     c20:	80 81       	ld	r24, Z
     c22:	87 7f       	andi	r24, 0xF7	; 247
     c24:	80 83       	st	Z, r24
MCUCR |=_BV(ISC11);				//Прерывания будут генерироваться 
     c26:	e5 e5       	ldi	r30, 0x55	; 85
     c28:	f0 e0       	ldi	r31, 0x00	; 0
     c2a:	80 81       	ld	r24, Z
     c2c:	88 60       	ori	r24, 0x08	; 8
     c2e:	80 83       	st	Z, r24
MCUCR &=~_BV(ISC10);			//по спаду импульса
     c30:	80 81       	ld	r24, Z
     c32:	8b 7f       	andi	r24, 0xFB	; 251
     c34:	80 83       	st	Z, r24
GICR |=_BV(INT1); 				//Разрешаем внешние прерывания на INT1
     c36:	eb e5       	ldi	r30, 0x5B	; 91
     c38:	f0 e0       	ldi	r31, 0x00	; 0
     c3a:	80 81       	ld	r24, Z
     c3c:	80 68       	ori	r24, 0x80	; 128
     c3e:	80 83       	st	Z, r24
tm_event = no_tm_event;
     c40:	10 92 ff 02 	sts	0x02FF, r1
}
     c44:	08 95       	ret

00000c46 <tm_send>:
 * tm_send
 *
 * Отправка байта.
 */
void tm_send( unsigned char byte )
{
     c46:	38 2f       	mov	r19, r24
     c48:	20 e0       	ldi	r18, 0x00	; 0
			delay( 80 );	
        }
        if ((b&1)==0)
        {
          /* write-zero */
         	TM_TX_PULLDOWN();
     c4a:	e1 e3       	ldi	r30, 0x31	; 49
     c4c:	f0 e0       	ldi	r31, 0x00	; 0
static inline void _delayFourCycles(unsigned int __count)
{
    if ( __count == 0 )    
        __asm__ __volatile__( "rjmp 1f\n 1:" );    // 2 cycles
    else
        __asm__ __volatile__ (
     c4e:	a8 e1       	ldi	r26, 0x18	; 24
     c50:	b1 e0       	ldi	r27, 0x01	; 1
    b=byte;
    for( i = 0; i < 8; i++ )
    {
        volatile unsigned char pulldown_time, recovery_time;

        if( b & 1 )
     c52:	60 e5       	ldi	r22, 0x50	; 80
     c54:	70 e0       	ldi	r23, 0x00	; 0
     c56:	40 e4       	ldi	r20, 0x40	; 64
     c58:	51 e0       	ldi	r21, 0x01	; 1
     c5a:	30 ff       	sbrs	r19, 0
     c5c:	0a c0       	rjmp	.+20     	; 0xc72 <tm_send+0x2c>
        {
			/* write-one */
			TM_TX_PULLDOWN();
     c5e:	80 81       	ld	r24, Z
     c60:	88 60       	ori	r24, 0x08	; 8
     c62:	80 83       	st	Z, r24
	        TM_TX_RELEASE();
     c64:	80 81       	ld	r24, Z
     c66:	87 7f       	andi	r24, 0xF7	; 247
     c68:	80 83       	st	Z, r24
static inline void _delayFourCycles(unsigned int __count)
{
    if ( __count == 0 )    
        __asm__ __volatile__( "rjmp 1f\n 1:" );    // 2 cycles
    else
        __asm__ __volatile__ (
     c6a:	ca 01       	movw	r24, r20
     c6c:	01 97       	sbiw	r24, 0x01	; 1
     c6e:	f1 f7       	brne	.-4      	; 0xc6c <tm_send+0x26>
     c70:	0c c0       	rjmp	.+24     	; 0xc8a <tm_send+0x44>
			delay( 80 );	
        }
        if ((b&1)==0)
        {
          /* write-zero */
         	TM_TX_PULLDOWN();
     c72:	80 81       	ld	r24, Z
     c74:	88 60       	ori	r24, 0x08	; 8
     c76:	80 83       	st	Z, r24
static inline void _delayFourCycles(unsigned int __count)
{
    if ( __count == 0 )    
        __asm__ __volatile__( "rjmp 1f\n 1:" );    // 2 cycles
    else
        __asm__ __volatile__ (
     c78:	cd 01       	movw	r24, r26
     c7a:	01 97       	sbiw	r24, 0x01	; 1
     c7c:	f1 f7       	brne	.-4      	; 0xc7a <tm_send+0x34>
        if ((b&1)==0)
        {
          /* write-zero */
         	TM_TX_PULLDOWN();
			delay( 70 );
	        TM_TX_RELEASE();
     c7e:	80 81       	ld	r24, Z
     c80:	87 7f       	andi	r24, 0xF7	; 247
     c82:	80 83       	st	Z, r24
static inline void _delayFourCycles(unsigned int __count)
{
    if ( __count == 0 )    
        __asm__ __volatile__( "rjmp 1f\n 1:" );    // 2 cycles
    else
        __asm__ __volatile__ (
     c84:	cb 01       	movw	r24, r22
     c86:	01 97       	sbiw	r24, 0x01	; 1
     c88:	f1 f7       	brne	.-4      	; 0xc86 <tm_send+0x40>
 */
void tm_send( unsigned char byte )
{
    unsigned char i,b;
    b=byte;
    for( i = 0; i < 8; i++ )
     c8a:	2f 5f       	subi	r18, 0xFF	; 255
     c8c:	28 30       	cpi	r18, 0x08	; 8
     c8e:	11 f0       	breq	.+4      	; 0xc94 <tm_send+0x4e>
			delay( 70 );
	        TM_TX_RELEASE();
   		    delay( 20 );	 		   
        }

        b >>= 1;
     c90:	36 95       	lsr	r19
     c92:	e3 cf       	rjmp	.-58     	; 0xc5a <tm_send+0x14>
     c94:	08 95       	ret

00000c96 <tm_read>:
 * tm_read
 *
 * Приём байта.
 */
unsigned char tm_read()
{
     c96:	30 e0       	ldi	r19, 0x00	; 0
     c98:	20 e0       	ldi	r18, 0x00	; 0
    for( i = 0; i < 8; i++ )
    {
 //       unsigned char in;

 //       dint();
        TM_TX_PULLDOWN();
     c9a:	e1 e3       	ldi	r30, 0x31	; 49
     c9c:	f0 e0       	ldi	r31, 0x00	; 0
static inline void _delayFourCycles(unsigned int __count)
{
    if ( __count == 0 )    
        __asm__ __volatile__( "rjmp 1f\n 1:" );    // 2 cycles
    else
        __asm__ __volatile__ (
     c9e:	64 e1       	ldi	r22, 0x14	; 20
     ca0:	70 e0       	ldi	r23, 0x00	; 0
 //       dint();
        TM_TX_PULLDOWN();
 ////       delay( 1 );
        TM_TX_RELEASE();
        delay( 5);
        in =  (PIND) & (1<<3);
     ca2:	a0 e3       	ldi	r26, 0x30	; 48
     ca4:	b0 e0       	ldi	r27, 0x00	; 0
static inline void _delayFourCycles(unsigned int __count)
{
    if ( __count == 0 )    
        __asm__ __volatile__( "rjmp 1f\n 1:" );    // 2 cycles
    else
        __asm__ __volatile__ (
     ca6:	40 e2       	ldi	r20, 0x20	; 32
     ca8:	53 e0       	ldi	r21, 0x03	; 3
    for( i = 0; i < 8; i++ )
    {
 //       unsigned char in;

 //       dint();
        TM_TX_PULLDOWN();
     caa:	80 81       	ld	r24, Z
     cac:	88 60       	ori	r24, 0x08	; 8
     cae:	80 83       	st	Z, r24
 ////       delay( 1 );
        TM_TX_RELEASE();
     cb0:	80 81       	ld	r24, Z
     cb2:	87 7f       	andi	r24, 0xF7	; 247
     cb4:	80 83       	st	Z, r24
static inline void _delayFourCycles(unsigned int __count)
{
    if ( __count == 0 )    
        __asm__ __volatile__( "rjmp 1f\n 1:" );    // 2 cycles
    else
        __asm__ __volatile__ (
     cb6:	cb 01       	movw	r24, r22
     cb8:	01 97       	sbiw	r24, 0x01	; 1
     cba:	f1 f7       	brne	.-4      	; 0xcb8 <tm_read+0x22>
 //       dint();
        TM_TX_PULLDOWN();
 ////       delay( 1 );
        TM_TX_RELEASE();
        delay( 5);
        in =  (PIND) & (1<<3);
     cbc:	8c 91       	ld	r24, X
     cbe:	88 70       	andi	r24, 0x08	; 8
     cc0:	80 93 f6 02 	sts	0x02F6, r24
//        eint();
        ret >>= 1;
     cc4:	26 95       	lsr	r18
        if(in)
     cc6:	80 91 f6 02 	lds	r24, 0x02F6
     cca:	81 11       	cpse	r24, r1
            ret |= (1<<7);
     ccc:	20 68       	ori	r18, 0x80	; 128
static inline void _delayFourCycles(unsigned int __count)
{
    if ( __count == 0 )    
        __asm__ __volatile__( "rjmp 1f\n 1:" );    // 2 cycles
    else
        __asm__ __volatile__ (
     cce:	ca 01       	movw	r24, r20
     cd0:	01 97       	sbiw	r24, 0x01	; 1
     cd2:	f1 f7       	brne	.-4      	; 0xcd0 <tm_read+0x3a>
 */
unsigned char tm_read()
{
    unsigned char i, ret = 0;

    for( i = 0; i < 8; i++ )
     cd4:	3f 5f       	subi	r19, 0xFF	; 255
     cd6:	38 30       	cpi	r19, 0x08	; 8
     cd8:	41 f7       	brne	.-48     	; 0xcaa <tm_read+0x14>
            ret |= (1<<7);
        /* release & recovery */
        delay( 200);
    }
    return ret;
}
     cda:	82 2f       	mov	r24, r18
     cdc:	08 95       	ret

00000cde <new_crc8>:
 * new_crc8
 *
 * Вычисление нового значения CRC8.
 */
unsigned char new_crc8( unsigned char crc8, unsigned char byte )
{
     cde:	28 2f       	mov	r18, r24
     ce0:	90 e0       	ldi	r25, 0x00	; 0
    unsigned char i;

    for( i = 0; i < 8; i++ )
    {
        if( (crc8 ^ byte) & 1 )
            crc8 = ((crc8 ^ 0x18) >> 1) | 0x80;
     ce2:	38 e1       	ldi	r19, 0x18	; 24
{
    unsigned char i;

    for( i = 0; i < 8; i++ )
    {
        if( (crc8 ^ byte) & 1 )
     ce4:	82 2f       	mov	r24, r18
     ce6:	86 27       	eor	r24, r22
     ce8:	80 ff       	sbrs	r24, 0
     cea:	06 c0       	rjmp	.+12     	; 0xcf8 <new_crc8+0x1a>
            crc8 = ((crc8 ^ 0x18) >> 1) | 0x80;
     cec:	82 2f       	mov	r24, r18
     cee:	83 27       	eor	r24, r19
     cf0:	86 95       	lsr	r24
     cf2:	28 2f       	mov	r18, r24
     cf4:	20 68       	ori	r18, 0x80	; 128
     cf6:	01 c0       	rjmp	.+2      	; 0xcfa <new_crc8+0x1c>
        else
            crc8 >>= 1;
     cf8:	26 95       	lsr	r18
 */
unsigned char new_crc8( unsigned char crc8, unsigned char byte )
{
    unsigned char i;

    for( i = 0; i < 8; i++ )
     cfa:	9f 5f       	subi	r25, 0xFF	; 255
     cfc:	98 30       	cpi	r25, 0x08	; 8
     cfe:	11 f0       	breq	.+4      	; 0xd04 <new_crc8+0x26>
    {
        if( (crc8 ^ byte) & 1 )
            crc8 = ((crc8 ^ 0x18) >> 1) | 0x80;
        else
            crc8 >>= 1;
        byte >>= 1;
     d00:	66 95       	lsr	r22
     d02:	f0 cf       	rjmp	.-32     	; 0xce4 <new_crc8+0x6>
    }
    return crc8;
}
     d04:	82 2f       	mov	r24, r18
     d06:	08 95       	ret

00000d08 <tm_read_serial_number>:




void tm_read_serial_number()
{       
     d08:	cf 93       	push	r28
     d0a:	df 93       	push	r29
//GICR &=~_BV(INT1); 				//Запрешаем внешние прерывания на INT1

uint8_t read_attempts = 1;
while( read_attempts-- )
if (tm_event==no_tm_event)  {
     d0c:	80 91 ff 02 	lds	r24, 0x02FF
     d10:	88 23       	and	r24, r24
     d12:	09 f0       	breq	.+2      	; 0xd16 <tm_read_serial_number+0xe>
     d14:	6f c0       	rjmp	.+222    	; 0xdf4 <tm_read_serial_number+0xec>
static inline void _delayFourCycles(unsigned int __count)
{
    if ( __count == 0 )    
        __asm__ __volatile__( "rjmp 1f\n 1:" );    // 2 cycles
    else
        __asm__ __volatile__ (
     d16:	80 e0       	ldi	r24, 0x00	; 0
     d18:	98 e0       	ldi	r25, 0x08	; 8
     d1a:	01 97       	sbiw	r24, 0x01	; 1
     d1c:	f1 f7       	brne	.-4      	; 0xd1a <tm_read_serial_number+0x12>




		/* reset */
		TM_TX_PULLDOWN();
     d1e:	e1 e3       	ldi	r30, 0x31	; 49
     d20:	f0 e0       	ldi	r31, 0x00	; 0
     d22:	80 81       	ld	r24, Z
     d24:	88 60       	ori	r24, 0x08	; 8
     d26:	80 83       	st	Z, r24
static inline void _delayFourCycles(unsigned int __count)
{
    if ( __count == 0 )    
        __asm__ __volatile__( "rjmp 1f\n 1:" );    // 2 cycles
    else
        __asm__ __volatile__ (
     d28:	80 e8       	ldi	r24, 0x80	; 128
     d2a:	97 e0       	ldi	r25, 0x07	; 7
     d2c:	01 97       	sbiw	r24, 0x01	; 1
     d2e:	f1 f7       	brne	.-4      	; 0xd2c <tm_read_serial_number+0x24>
		/* reset */
		TM_TX_PULLDOWN();
		delay(480);  /* tRSTL > 480us */
		/* завершаем импульс сброса, проверяем уровень, должен быть высокий */
//		cli(); //запрещаем общие прерывания
		TM_TX_RELEASE();
     d30:	80 81       	ld	r24, Z
     d32:	87 7f       	andi	r24, 0xF7	; 247
     d34:	80 83       	st	Z, r24
static inline void _delayFourCycles(unsigned int __count)
{
    if ( __count == 0 )    
        __asm__ __volatile__( "rjmp 1f\n 1:" );    // 2 cycles
    else
        __asm__ __volatile__ (
     d36:	8c e1       	ldi	r24, 0x1C	; 28
     d38:	90 e0       	ldi	r25, 0x00	; 0
     d3a:	01 97       	sbiw	r24, 0x01	; 1
     d3c:	f1 f7       	brne	.-4      	; 0xd3a <tm_read_serial_number+0x32>
		TM_TX_RELEASE();
//		GIFR &=~_BV(INTF1);

		delay(7);   /* 15us minimum tPDH */
//		GIFR |=_BV(INTF1);
 		if( (PIND&(1<<3)) == 0 )
     d3e:	83 9b       	sbis	0x10, 3	; 16
     d40:	59 c0       	rjmp	.+178    	; 0xdf4 <tm_read_serial_number+0xec>
static inline void _delayFourCycles(unsigned int __count)
{
    if ( __count == 0 )    
        __asm__ __volatile__( "rjmp 1f\n 1:" );    // 2 cycles
    else
        __asm__ __volatile__ (
     d42:	80 e4       	ldi	r24, 0x40	; 64
     d44:	91 e0       	ldi	r25, 0x01	; 1
     d46:	01 97       	sbiw	r24, 0x01	; 1
     d48:	f1 f7       	brne	.-4      	; 0xd46 <tm_read_serial_number+0x3e>
		 	/* контролируем presence pulse */
        
		delay(80);  /* 60us minimum tPDL */
//		sei(); //разрешаем общие прерывания

		if( PIND&(1<<3) )
     d4a:	83 99       	sbic	0x10, 3	; 16
     d4c:	53 c0       	rjmp	.+166    	; 0xdf4 <tm_read_serial_number+0xec>
static inline void _delayFourCycles(unsigned int __count)
{
    if ( __count == 0 )    
        __asm__ __volatile__( "rjmp 1f\n 1:" );    // 2 cycles
    else
        __asm__ __volatile__ (
     d4e:	80 ec       	ldi	r24, 0xC0	; 192
     d50:	93 e0       	ldi	r25, 0x03	; 3
     d52:	01 97       	sbiw	r24, 0x01	; 1
     d54:	f1 f7       	brne	.-4      	; 0xd52 <tm_read_serial_number+0x4a>
            continue;

		/* ожидаем завершения presence pulse */

        delay(240); /* tPDL */
        if( !(PIND&(1<<3)) )
     d56:	83 9b       	sbis	0x10, 3	; 16
     d58:	4d c0       	rjmp	.+154    	; 0xdf4 <tm_read_serial_number+0xec>
static inline void _delayFourCycles(unsigned int __count)
{
    if ( __count == 0 )    
        __asm__ __volatile__( "rjmp 1f\n 1:" );    // 2 cycles
    else
        __asm__ __volatile__ (
     d5a:	80 e8       	ldi	r24, 0x80	; 128
     d5c:	97 e0       	ldi	r25, 0x07	; 7
     d5e:	01 97       	sbiw	r24, 0x01	; 1
     d60:	f1 f7       	brne	.-4      	; 0xd5e <tm_read_serial_number+0x56>

		/* выдерживаем высокий уровень tRSTH */
        delay( 480 );
		
		  /* посылаем команду Read ROM */
        tm_send( 0x33 );
     d62:	83 e3       	ldi	r24, 0x33	; 51
     d64:	0e 94 23 06 	call	0xc46	; 0xc46 <tm_send>

 /* читаем тип устройства */
      
		device_code = tm_read();
     d68:	0e 94 4b 06 	call	0xc96	; 0xc96 <tm_read>
     d6c:	80 93 00 03 	sts	0x0300, r24
        if( 0 == device_code)
     d70:	80 91 00 03 	lds	r24, 0x0300
     d74:	88 23       	and	r24, r24
     d76:	f1 f1       	breq	.+124    	; 0xdf4 <tm_read_serial_number+0xec>
        /* тип устройства не может быть нулевым */
        continue;

		

		crc8 = new_crc8( 0, device_code);
     d78:	60 91 00 03 	lds	r22, 0x0300
     d7c:	80 e0       	ldi	r24, 0x00	; 0
     d7e:	0e 94 6f 06 	call	0xcde	; 0xcde <new_crc8>
     d82:	80 93 fd 02 	sts	0x02FD, r24


 /* читаем код */
        for( ch = 0; ch < 6; ch++ )
     d86:	10 92 02 03 	sts	0x0302, r1
     d8a:	80 91 02 03 	lds	r24, 0x0302
     d8e:	86 30       	cpi	r24, 0x06	; 6
     d90:	f8 f4       	brcc	.+62     	; 0xdd0 <tm_read_serial_number+0xc8>
        {
            code = tm_read();
            tm_code[ ch ] = code;
     d92:	c7 ef       	ldi	r28, 0xF7	; 247
     d94:	d2 e0       	ldi	r29, 0x02	; 2


 /* читаем код */
        for( ch = 0; ch < 6; ch++ )
        {
            code = tm_read();
     d96:	0e 94 4b 06 	call	0xc96	; 0xc96 <tm_read>
     d9a:	80 93 01 03 	sts	0x0301, r24
            tm_code[ ch ] = code;
     d9e:	80 91 02 03 	lds	r24, 0x0302
     da2:	90 91 01 03 	lds	r25, 0x0301
     da6:	fe 01       	movw	r30, r28
     da8:	e8 0f       	add	r30, r24
     daa:	f1 1d       	adc	r31, r1
     dac:	90 83       	st	Z, r25
            crc8 = new_crc8( crc8, code );
     dae:	80 91 fd 02 	lds	r24, 0x02FD
     db2:	60 91 01 03 	lds	r22, 0x0301
     db6:	0e 94 6f 06 	call	0xcde	; 0xcde <new_crc8>
     dba:	80 93 fd 02 	sts	0x02FD, r24

		crc8 = new_crc8( 0, device_code);


 /* читаем код */
        for( ch = 0; ch < 6; ch++ )
     dbe:	80 91 02 03 	lds	r24, 0x0302
     dc2:	8f 5f       	subi	r24, 0xFF	; 255
     dc4:	80 93 02 03 	sts	0x0302, r24
     dc8:	80 91 02 03 	lds	r24, 0x0302
     dcc:	86 30       	cpi	r24, 0x06	; 6
     dce:	18 f3       	brcs	.-58     	; 0xd96 <tm_read_serial_number+0x8e>
            code = tm_read();
            tm_code[ ch ] = code;
            crc8 = new_crc8( crc8, code );
        }
 /* читаем crc8 и проверяем */
        ch = tm_read();
     dd0:	0e 94 4b 06 	call	0xc96	; 0xc96 <tm_read>
     dd4:	80 93 02 03 	sts	0x0302, r24
		if( ch != crc8 )
     dd8:	90 91 02 03 	lds	r25, 0x0302
     ddc:	80 91 fd 02 	lds	r24, 0x02FD
     de0:	98 17       	cp	r25, r24
     de2:	21 f0       	breq	.+8      	; 0xdec <tm_read_serial_number+0xe4>
           {
           tm_event=tm_crc_error;           
     de4:	82 e0       	ldi	r24, 0x02	; 2
     de6:	80 93 ff 02 	sts	0x02FF, r24
     dea:	04 c0       	rjmp	.+8      	; 0xdf4 <tm_read_serial_number+0xec>
			continue;
	
           }
        else { 
			tm_event=tm_crc_ok;  
     dec:	81 e0       	ldi	r24, 0x01	; 1
     dee:	80 93 ff 02 	sts	0x02FF, r24
     df2:	05 c0       	rjmp	.+10     	; 0xdfe <tm_read_serial_number+0xf6>
		return;}

	}
///	sei(); //разрешаем общие прерывания
	}
GIFR |=_BV(INTF1);
     df4:	ea e5       	ldi	r30, 0x5A	; 90
     df6:	f0 e0       	ldi	r31, 0x00	; 0
     df8:	80 81       	ld	r24, Z
     dfa:	80 68       	ori	r24, 0x80	; 128
     dfc:	80 83       	st	Z, r24
//GICR |=_BV(INT1); 				//Разрешаем внешние прерывания на INT1

} 	
     dfe:	df 91       	pop	r29
     e00:	cf 91       	pop	r28
     e02:	08 95       	ret

00000e04 <eeInit>:
#define TW_BUS_ERROR                0x00

void eeInit(){ //Настраиваем Генератор скорости связи c eeprom

/*Настраиваем Генератор скорости связи*/
TWBR = (F_CPU/slaveF_SCL - 16)/(2 * /* TWI_Prescaler= 4^TWPS */1);
     e04:	e0 e2       	ldi	r30, 0x20	; 32
     e06:	f0 e0       	ldi	r31, 0x00	; 0
     e08:	8c e0       	ldi	r24, 0x0C	; 12
     e0a:	80 83       	st	Z, r24
/*
Если TWI работает в ведущем режиме, то значение TWBR должно быть не менее 10. Если значение TWBR меньше 10, то ведущее устройство шины может генерировать некорректные сигналы на линиях SDA и SCL во время передачи байта.
*/
    if(TWBR < 10)
     e0c:	80 81       	ld	r24, Z
     e0e:	8a 30       	cpi	r24, 0x0A	; 10
     e10:	10 f4       	brcc	.+4      	; 0xe16 <eeInit+0x12>
        TWBR = 10;
     e12:	8a e0       	ldi	r24, 0x0A	; 10
     e14:	80 b9       	out	0x00, r24	; 0
 
/*
Настройка предделителя в регистре статуса Блока управления.
Очищаются биты TWPS0 и TWPS1 регистра статуса, устанавливая тем самым, значение предделителя = 1.
 */
    TWSR &= (~((1<<TWPS1)|(1<<TWPS0)));
     e16:	e1 e2       	ldi	r30, 0x21	; 33
     e18:	f0 e0       	ldi	r31, 0x00	; 0
     e1a:	80 81       	ld	r24, Z
     e1c:	8c 7f       	andi	r24, 0xFC	; 252
     e1e:	80 83       	st	Z, r24
}
     e20:	08 95       	ret

00000e22 <eeWriteByte>:



uint8_t eeWriteByte(uint16_t address,uint8_t data)
{
     e22:	cf 93       	push	r28
     e24:	df 93       	push	r29
     e26:	58 2f       	mov	r21, r24
/*
а)Сброс флага прерывания TWINT (Флаг TWINT сбрасывается программно путем записи в него логической 1) для разрешения начала новой передачи данных
б)Уст. бит условия СТАРТ
в)Уст. бит разрешения работы TWI
*/
        TWCR=(1<<TWINT)|(1<<TWSTA)|(1<<TWEN);
     e28:	e6 e5       	ldi	r30, 0x56	; 86
     e2a:	f0 e0       	ldi	r31, 0x00	; 0
     e2c:	44 ea       	ldi	r20, 0xA4	; 164
        while(!(TWCR & (1<<TWINT)));
 
        /*Проверяем регистр статуса, а точнее биты TWS3-7,
        которые доступны только для чтения. Эти пять битов
        отражают состояние шины. TWS2-0 «отсекаем» с помощью операции «И         0xF8». Если TWS7-3 = 0x08, то СТАРТ был успешным.*/
        if((TWSR & 0xF8) != TW_START)
     e2e:	a1 e2       	ldi	r26, 0x21	; 33
     e30:	b0 e0       	ldi	r27, 0x00	; 0
/*Так вот, мы хотим работать с микросхемой памяти 24LC64, поэтому по шине нам надо передать ее адрес. Она узнает свой адрес, и будет знать, что данные на запись адресуются именно ей. А остальные микросхемы, если они есть, эти данные будут просто игнорировать.*/
 
/*Постоянная часть адреса 24LC64 – 1010 (см. даташит на 24XX64), 3 бита - переменные (если вдруг мы захотим подключить несколько одинаковых микросхем c одинаковыми заводскими адресами, они пригодятся; в ином(нашем) случае выставляем нули), далее бит 0 - если хотим записывать в память или 1 - если читаем данные из памяти I2C EEPROM*/
 
       //TWDR = 0b1010‘000‘0;
        TWDR = (slaveAddressConst<<4) + (slaveAddressVar<<1) + (WRITEFLAG);
     e32:	c3 e2       	ldi	r28, 0x23	; 35
     e34:	d0 e0       	ldi	r29, 0x00	; 0
     e36:	30 ea       	ldi	r19, 0xA0	; 160
	 
/*Говорим регистру управления, что мы хотим передать данные, содержащиеся в регистре данных TWDR*/
        TWCR=(1<<TWINT)|(1<<TWEN);
     e38:	24 e8       	ldi	r18, 0x84	; 132
/*
а)Сброс флага прерывания TWINT (Флаг TWINT сбрасывается программно путем записи в него логической 1) для разрешения начала новой передачи данных
б)Уст. бит условия СТАРТ
в)Уст. бит разрешения работы TWI
*/
        TWCR=(1<<TWINT)|(1<<TWSTA)|(1<<TWEN);
     e3a:	40 83       	st	Z, r20
 
//Ждем, пока шина даст добро (возможно, линия пока еще занята, ждем)
//TWINT бит устанавливается аппаратно, если TWI завершает текущее задание и ожидает реакции программы
        while(!(TWCR & (1<<TWINT)));
     e3c:	80 81       	ld	r24, Z
     e3e:	88 23       	and	r24, r24
     e40:	ec f7       	brge	.-6      	; 0xe3c <eeWriteByte+0x1a>
 
        /*Проверяем регистр статуса, а точнее биты TWS3-7,
        которые доступны только для чтения. Эти пять битов
        отражают состояние шины. TWS2-0 «отсекаем» с помощью операции «И         0xF8». Если TWS7-3 = 0x08, то СТАРТ был успешным.*/
        if((TWSR & 0xF8) != TW_START)
     e42:	8c 91       	ld	r24, X
     e44:	88 7f       	andi	r24, 0xF8	; 248
     e46:	88 30       	cpi	r24, 0x08	; 8
     e48:	b1 f5       	brne	.+108    	; 0xeb6 <eeWriteByte+0x94>
/*Так вот, мы хотим работать с микросхемой памяти 24LC64, поэтому по шине нам надо передать ее адрес. Она узнает свой адрес, и будет знать, что данные на запись адресуются именно ей. А остальные микросхемы, если они есть, эти данные будут просто игнорировать.*/
 
/*Постоянная часть адреса 24LC64 – 1010 (см. даташит на 24XX64), 3 бита - переменные (если вдруг мы захотим подключить несколько одинаковых микросхем c одинаковыми заводскими адресами, они пригодятся; в ином(нашем) случае выставляем нули), далее бит 0 - если хотим записывать в память или 1 - если читаем данные из памяти I2C EEPROM*/
 
       //TWDR = 0b1010‘000‘0;
        TWDR = (slaveAddressConst<<4) + (slaveAddressVar<<1) + (WRITEFLAG);
     e4a:	38 83       	st	Y, r19
	 
/*Говорим регистру управления, что мы хотим передать данные, содержащиеся в регистре данных TWDR*/
        TWCR=(1<<TWINT)|(1<<TWEN);
     e4c:	20 83       	st	Z, r18
	 
        //Ждем окончания передачи данных
        while(!(TWCR & (1<<TWINT)));
     e4e:	80 81       	ld	r24, Z
     e50:	88 23       	and	r24, r24
     e52:	ec f7       	brge	.-6      	; 0xe4e <eeWriteByte+0x2c>
	 
	/*Если нет подтверждения от ведомого, делаем все по-новой (либо неполадки с линией, либо ведомого с таким адресом нет).
	Если же подтверждение поступило, то регистр статуса установит биты в 0x18=TW_MT_SLA_ACK (в случае записи) или 0x40=TW_MR_SLA_ACK (в случае чтения).
Грубо говоря, если TW_MT_SLA_ACK, то ведомый "говорит" нам, что его адрес как раз 1010’000 и он готов для записи (чтения, если TW_MR_SLA_ACK).*/
    }while((TWSR & 0xF8) != TW_MT_SLA_ACK);
     e54:	8c 91       	ld	r24, X
     e56:	88 7f       	andi	r24, 0xF8	; 248
     e58:	88 31       	cpi	r24, 0x18	; 24
     e5a:	79 f7       	brne	.-34     	; 0xe3a <eeWriteByte+0x18>
/*Здесь можем уже уверенно говорить, что ведущий и ведомый друг друга видят и понимают. Вначале скажем нашей микросхеме памяти, по какому адресу мы хотим записать байт данных*/
 
/*****ПЕРЕДАЕМ АДРЕС ЗАПИСИ********/
	 
/*Записываем в регистр данных старший разряд адреса (адрес 16-битный, uint16_t))..*/
    TWDR=(address>>8);
     e5c:	93 b9       	out	0x03, r25	; 3
 
    //..и передаем его
    TWCR=(1<<TWINT)|(1<<TWEN);
     e5e:	84 e8       	ldi	r24, 0x84	; 132
     e60:	86 bf       	out	0x36, r24	; 54
 
    //ждем окончания передачи
    while(!(TWCR & (1<<TWINT)));
     e62:	e6 e5       	ldi	r30, 0x56	; 86
     e64:	f0 e0       	ldi	r31, 0x00	; 0
     e66:	80 81       	ld	r24, Z
     e68:	88 23       	and	r24, r24
     e6a:	ec f7       	brge	.-6      	; 0xe66 <eeWriteByte+0x44>
	 
/*Проверяем регистр статуса, принял ли ведомый данные. Если ведомый данные принял, то он передает "Подтверждение", устанавливая SDA в низкий уровень. Блок управления, в свою очередь, принимает подтверждение, и записывает в регистр статуса 0x28= TW_MT_DATA_ACK. В противном случае 0x30= TW_MT_DATA_NACK */
    if((TWSR & 0xF8) != TW_MT_DATA_ACK)
     e6c:	81 b1       	in	r24, 0x01	; 1
     e6e:	88 7f       	andi	r24, 0xF8	; 248
     e70:	88 32       	cpi	r24, 0x28	; 40
     e72:	09 f5       	brne	.+66     	; 0xeb6 <eeWriteByte+0x94>
        return false;
	 
    //Далее тоже самое для младшего разряда адреса
    TWDR=(address);
     e74:	53 b9       	out	0x03, r21	; 3
    TWCR=(1<<TWINT)|(1<<TWEN);
     e76:	84 e8       	ldi	r24, 0x84	; 132
     e78:	86 bf       	out	0x36, r24	; 54
    while(!(TWCR & (1<<TWINT)));
     e7a:	e6 e5       	ldi	r30, 0x56	; 86
     e7c:	f0 e0       	ldi	r31, 0x00	; 0
     e7e:	80 81       	ld	r24, Z
     e80:	88 23       	and	r24, r24
     e82:	ec f7       	brge	.-6      	; 0xe7e <eeWriteByte+0x5c>
 
    if((TWSR & 0xF8) != TW_MT_DATA_ACK)
     e84:	81 b1       	in	r24, 0x01	; 1
     e86:	88 7f       	andi	r24, 0xF8	; 248
     e88:	88 32       	cpi	r24, 0x28	; 40
     e8a:	a9 f4       	brne	.+42     	; 0xeb6 <eeWriteByte+0x94>
        return false;
 
/*****ЗАПИСЫВАЕМ БАЙТ ДАННЫХ********/
 
    //Аналогично, как и передавали адрес, передаем байт данных
    TWDR=(data);
     e8c:	63 b9       	out	0x03, r22	; 3
    TWCR=(1<<TWINT)|(1<<TWEN);
     e8e:	84 e8       	ldi	r24, 0x84	; 132
     e90:	86 bf       	out	0x36, r24	; 54
    while(!(TWCR & (1<<TWINT)));
     e92:	e6 e5       	ldi	r30, 0x56	; 86
     e94:	f0 e0       	ldi	r31, 0x00	; 0
     e96:	80 81       	ld	r24, Z
     e98:	88 23       	and	r24, r24
     e9a:	ec f7       	brge	.-6      	; 0xe96 <eeWriteByte+0x74>
 
    if((TWSR & 0xF8) != TW_MT_DATA_ACK)
     e9c:	81 b1       	in	r24, 0x01	; 1
     e9e:	88 7f       	andi	r24, 0xF8	; 248
     ea0:	88 32       	cpi	r24, 0x28	; 40
     ea2:	49 f4       	brne	.+18     	; 0xeb6 <eeWriteByte+0x94>
        return false;
 
    /*Устанавливаем условие завершения передачи данных (СТОП)
    (Устанавливаем бит условия СТОП)*/
    TWCR=(1<<TWINT)|(1<<TWEN)|(1<<TWSTO);
     ea4:	84 e9       	ldi	r24, 0x94	; 148
     ea6:	86 bf       	out	0x36, r24	; 54
 
    //Ждем установки условия СТОП
    while(TWCR & (1<<TWSTO));
     ea8:	e6 e5       	ldi	r30, 0x56	; 86
     eaa:	f0 e0       	ldi	r31, 0x00	; 0
     eac:	80 81       	ld	r24, Z
     eae:	84 fd       	sbrc	r24, 4
     eb0:	fd cf       	rjmp	.-6      	; 0xeac <eeWriteByte+0x8a>
     eb2:	81 e0       	ldi	r24, 0x01	; 1
     eb4:	01 c0       	rjmp	.+2      	; 0xeb8 <eeWriteByte+0x96>
     eb6:	80 e0       	ldi	r24, 0x00	; 0
 
    return true;
}
     eb8:	df 91       	pop	r29
     eba:	cf 91       	pop	r28
     ebc:	08 95       	ret

00000ebe <eeReadByte>:




uint8_t eeReadByte(uint16_t address)
	{
     ebe:	cf 93       	push	r28
     ec0:	df 93       	push	r29
     ec2:	58 2f       	mov	r21, r24
	 
	//Точно такой же кусок кода, как и в eeWriteByte...
	/*****УСТАНАВЛИВАЕМ СВЯЗЬ С ВЕДОМЫМ********/
	    do
	    {
	        TWCR=(1<<TWINT)|(1<<TWSTA)|(1<<TWEN);
     ec4:	e6 e5       	ldi	r30, 0x56	; 86
     ec6:	f0 e0       	ldi	r31, 0x00	; 0
     ec8:	44 ea       	ldi	r20, 0xA4	; 164
	        while(!(TWCR & (1<<TWINT)));
	 
	        if((TWSR & 0xF8) != TW_START)
     eca:	a1 e2       	ldi	r26, 0x21	; 33
     ecc:	b0 e0       	ldi	r27, 0x00	; 0
	            return false;
	 
	        TWDR = (slaveAddressConst<<4) + (slaveAddressVar<<1) + WRITEFLAG;
     ece:	c3 e2       	ldi	r28, 0x23	; 35
     ed0:	d0 e0       	ldi	r29, 0x00	; 0
     ed2:	30 ea       	ldi	r19, 0xA0	; 160
	        TWCR=(1<<TWINT)|(1<<TWEN);
     ed4:	24 e8       	ldi	r18, 0x84	; 132
	 
	//Точно такой же кусок кода, как и в eeWriteByte...
	/*****УСТАНАВЛИВАЕМ СВЯЗЬ С ВЕДОМЫМ********/
	    do
	    {
	        TWCR=(1<<TWINT)|(1<<TWSTA)|(1<<TWEN);
     ed6:	40 83       	st	Z, r20
	        while(!(TWCR & (1<<TWINT)));
     ed8:	80 81       	ld	r24, Z
     eda:	88 23       	and	r24, r24
     edc:	ec f7       	brge	.-6      	; 0xed8 <eeReadByte+0x1a>
	 
	        if((TWSR & 0xF8) != TW_START)
     ede:	8c 91       	ld	r24, X
     ee0:	88 7f       	andi	r24, 0xF8	; 248
     ee2:	88 30       	cpi	r24, 0x08	; 8
     ee4:	09 f0       	breq	.+2      	; 0xee8 <eeReadByte+0x2a>
     ee6:	4d c0       	rjmp	.+154    	; 0xf82 <eeReadByte+0xc4>
	            return false;
	 
	        TWDR = (slaveAddressConst<<4) + (slaveAddressVar<<1) + WRITEFLAG;
     ee8:	38 83       	st	Y, r19
	        TWCR=(1<<TWINT)|(1<<TWEN);
     eea:	20 83       	st	Z, r18
	 
	        while(!(TWCR & (1<<TWINT)));
     eec:	80 81       	ld	r24, Z
     eee:	88 23       	and	r24, r24
     ef0:	ec f7       	brge	.-6      	; 0xeec <eeReadByte+0x2e>
	 
	    }while((TWSR & 0xF8) != TW_MT_SLA_ACK);
     ef2:	8c 91       	ld	r24, X
     ef4:	88 7f       	andi	r24, 0xF8	; 248
     ef6:	88 31       	cpi	r24, 0x18	; 24
     ef8:	71 f7       	brne	.-36     	; 0xed6 <eeReadByte+0x18>
	 
	/*****ПЕРЕДАЕМ АДРЕС ЧТЕНИЯ********/
	    TWDR=(address>>8);
     efa:	93 b9       	out	0x03, r25	; 3
	    TWCR=(1<<TWINT)|(1<<TWEN);
     efc:	84 e8       	ldi	r24, 0x84	; 132
     efe:	86 bf       	out	0x36, r24	; 54
	    while(!(TWCR & (1<<TWINT)));
     f00:	e6 e5       	ldi	r30, 0x56	; 86
     f02:	f0 e0       	ldi	r31, 0x00	; 0
     f04:	80 81       	ld	r24, Z
     f06:	88 23       	and	r24, r24
     f08:	ec f7       	brge	.-6      	; 0xf04 <eeReadByte+0x46>
	 
	    if((TWSR & 0xF8) != TW_MT_DATA_ACK)
     f0a:	81 b1       	in	r24, 0x01	; 1
     f0c:	88 7f       	andi	r24, 0xF8	; 248
     f0e:	88 32       	cpi	r24, 0x28	; 40
     f10:	c1 f5       	brne	.+112    	; 0xf82 <eeReadByte+0xc4>
	        return false;
	 
	    TWDR=(address);
     f12:	53 b9       	out	0x03, r21	; 3
	    TWCR=(1<<TWINT)|(1<<TWEN);
     f14:	84 e8       	ldi	r24, 0x84	; 132
     f16:	86 bf       	out	0x36, r24	; 54
	    while(!(TWCR & (1<<TWINT)));
     f18:	e6 e5       	ldi	r30, 0x56	; 86
     f1a:	f0 e0       	ldi	r31, 0x00	; 0
     f1c:	80 81       	ld	r24, Z
     f1e:	88 23       	and	r24, r24
     f20:	ec f7       	brge	.-6      	; 0xf1c <eeReadByte+0x5e>
	 
	    if((TWSR & 0xF8) != TW_MT_DATA_ACK)
     f22:	81 b1       	in	r24, 0x01	; 1
     f24:	88 7f       	andi	r24, 0xF8	; 248
     f26:	88 32       	cpi	r24, 0x28	; 40
     f28:	61 f5       	brne	.+88     	; 0xf82 <eeReadByte+0xc4>
	 
	/*****ПЕРЕХОД В РЕЖИМ ЧТЕНИЯ********/
	/*Необходимо опять «связаться» с ведомым, т.к. ранее мы отсылали адресный пакет (slaveAddressConst<<4) + (slaveAddressVar<<1) + WRITEFLAG, чтобы записать адрес чтения байта данных. А теперь нужно перейти в режим чтения (мы же хотим прочитать байт данных), для этого отсылаем новый пакет (slaveAddressConst<<4) + (slaveAddressVar<<1) + READFLAG.*/
	 
	    //Повтор условия начала передачи
	    TWCR=(1<<TWINT)|(1<<TWSTA)|(1<<TWEN);
     f2a:	84 ea       	ldi	r24, 0xA4	; 164
     f2c:	86 bf       	out	0x36, r24	; 54
	//ждем выполнения текущей операции
	    while(!(TWCR & (1<<TWINT)));
     f2e:	e6 e5       	ldi	r30, 0x56	; 86
     f30:	f0 e0       	ldi	r31, 0x00	; 0
     f32:	80 81       	ld	r24, Z
     f34:	88 23       	and	r24, r24
     f36:	ec f7       	brge	.-6      	; 0xf32 <eeReadByte+0x74>
	 
	/*Проверяем статус. Условие повтора начала передачи (0x10=TW_REP_START) должно подтвердиться*/
	    if((TWSR & 0xF8) != TW_REP_START)
     f38:	81 b1       	in	r24, 0x01	; 1
     f3a:	88 7f       	andi	r24, 0xF8	; 248
     f3c:	80 31       	cpi	r24, 0x10	; 16
     f3e:	09 f5       	brne	.+66     	; 0xf82 <eeReadByte+0xc4>
	        return false;
	 
	    /*Записываем адрес ведомого (7 битов) и в конце бит чтения (1)*/
	    //TWDR=0b1010’000’1;
	    TWDR = (slaveAddressConst<<4) + (slaveAddressVar<<1) + READFLAG;        
     f40:	81 ea       	ldi	r24, 0xA1	; 161
     f42:	83 b9       	out	0x03, r24	; 3
	 
	//Отправляем..
	    TWCR=(1<<TWINT)|(1<<TWEN);
     f44:	84 e8       	ldi	r24, 0x84	; 132
     f46:	86 bf       	out	0x36, r24	; 54
	    while(!(TWCR & (1<<TWINT)));
     f48:	e6 e5       	ldi	r30, 0x56	; 86
     f4a:	f0 e0       	ldi	r31, 0x00	; 0
     f4c:	80 81       	ld	r24, Z
     f4e:	88 23       	and	r24, r24
     f50:	ec f7       	brge	.-6      	; 0xf4c <eeReadByte+0x8e>
	 
	/*Проверяем, нашелся ли ведомый с адресом 1010’000 и готов ли он работать на чтение*/
	    if((TWSR & 0xF8) != TW_MR_SLA_ACK)
     f52:	81 b1       	in	r24, 0x01	; 1
     f54:	88 7f       	andi	r24, 0xF8	; 248
     f56:	80 34       	cpi	r24, 0x40	; 64
     f58:	a1 f4       	brne	.+40     	; 0xf82 <eeReadByte+0xc4>
	        return false;
	 
	/*****СЧИТЫВАЕМ БАЙТ ДАННЫХ********/
	 
	/*Начинаем прием данных с помощью очистки флага прерывания TWINT. Читаемый байт записывается в регистр TWDR.*/
	    TWCR=(1<<TWINT)|(1<<TWEN);
     f5a:	84 e8       	ldi	r24, 0x84	; 132
     f5c:	86 bf       	out	0x36, r24	; 54
	 
	    //Ждем окончания приема..
	    while(!(TWCR & (1<<TWINT)));
     f5e:	e6 e5       	ldi	r30, 0x56	; 86
     f60:	f0 e0       	ldi	r31, 0x00	; 0
     f62:	80 81       	ld	r24, Z
     f64:	88 23       	and	r24, r24
     f66:	ec f7       	brge	.-6      	; 0xf62 <eeReadByte+0xa4>
	 
	/*Проверяем статус. По протоколу, прием данных должен оканчиваться без подтверждения со стороны ведущего (TW_MR_DATA_NACK = 0x58)*/
	    if((TWSR & 0xF8) != TW_MR_DATA_NACK)
     f68:	81 b1       	in	r24, 0x01	; 1
     f6a:	88 7f       	andi	r24, 0xF8	; 248
     f6c:	88 35       	cpi	r24, 0x58	; 88
     f6e:	49 f4       	brne	.+18     	; 0xf82 <eeReadByte+0xc4>
	        return false;
	 
	    /*Присваиваем переменной data значение, считанное в регистр данных TWDR*/
	    data=TWDR;
     f70:	93 b1       	in	r25, 0x03	; 3
	 
	    /*Устанавливаем условие завершения передачи данных (СТОП)*/
	    TWCR=(1<<TWINT)|(1<<TWEN)|(1<<TWSTO);
     f72:	84 e9       	ldi	r24, 0x94	; 148
     f74:	86 bf       	out	0x36, r24	; 54
	 
	    //Ждем установки условия СТОП
	    while(TWCR & (1<<TWSTO));
     f76:	e6 e5       	ldi	r30, 0x56	; 86
     f78:	f0 e0       	ldi	r31, 0x00	; 0
     f7a:	80 81       	ld	r24, Z
     f7c:	84 fd       	sbrc	r24, 4
     f7e:	fd cf       	rjmp	.-6      	; 0xf7a <eeReadByte+0xbc>
     f80:	01 c0       	rjmp	.+2      	; 0xf84 <eeReadByte+0xc6>
     f82:	90 e0       	ldi	r25, 0x00	; 0
	 
    //Возвращаем считанный байт
    return data;
}
     f84:	89 2f       	mov	r24, r25
     f86:	df 91       	pop	r29
     f88:	cf 91       	pop	r28
     f8a:	08 95       	ret

00000f8c <eeWriteBytes>:




bool eeWriteBytes(uint8_t *buffer, uint16_t address, uint16_t data_size)
{
     f8c:	0f 93       	push	r16
     f8e:	1f 93       	push	r17
     f90:	cf 93       	push	r28
     f92:	df 93       	push	r29
     f94:	8c 01       	movw	r16, r24
/*
а)Сброс флага прерывания TWINT (Флаг TWINT сбрасывается программно путем записи в него логической 1) для разрешения начала новой передачи данных
б)Уст. бит условия СТАРТ
в)Уст. бит разрешения работы TWI
*/
        TWCR=(1<<TWINT)|(1<<TWSTA)|(1<<TWEN);
     f96:	e6 e5       	ldi	r30, 0x56	; 86
     f98:	f0 e0       	ldi	r31, 0x00	; 0
     f9a:	34 ea       	ldi	r19, 0xA4	; 164
        while(!(TWCR & (1<<TWINT)));
 
        /*Проверяем регистр статуса, а точнее биты TWS3-7,
        которые доступны только для чтения. Эти пять битов
        отражают состояние шины. TWS2-0 «отсекаем» с помощью операции «И         0xF8». Если TWS7-3 = 0x08, то СТАРТ был успешным.*/
        if((TWSR & 0xF8) != TW_START)
     f9c:	a1 e2       	ldi	r26, 0x21	; 33
     f9e:	b0 e0       	ldi	r27, 0x00	; 0
/*Так вот, мы хотим работать с микросхемой памяти 24LC64, поэтому по шине нам надо передать ее адрес. Она узнает свой адрес, и будет знать, что данные на запись адресуются именно ей. А остальные микросхемы, если они есть, эти данные будут просто игнорировать.*/
 
/*Постоянная часть адреса 24LC64 – 1010 (см. даташит на 24XX64), 3 бита - переменные (если вдруг мы захотим подключить несколько одинаковых микросхем c одинаковыми заводскими адресами, они пригодятся; в ином(нашем) случае выставляем нули), далее бит 0 - если хотим записывать в память или 1 - если читаем данные из памяти I2C EEPROM*/
 
       //TWDR = 0b1010‘000‘0;
        TWDR = (slaveAddressConst<<4) + (slaveAddressVar<<1) + (WRITEFLAG);
     fa0:	c3 e2       	ldi	r28, 0x23	; 35
     fa2:	d0 e0       	ldi	r29, 0x00	; 0
     fa4:	20 ea       	ldi	r18, 0xA0	; 160
	 
/*Говорим регистру управления, что мы хотим передать данные, содержащиеся в регистре данных TWDR*/
        TWCR=(1<<TWINT)|(1<<TWEN);
     fa6:	94 e8       	ldi	r25, 0x84	; 132
/*
а)Сброс флага прерывания TWINT (Флаг TWINT сбрасывается программно путем записи в него логической 1) для разрешения начала новой передачи данных
б)Уст. бит условия СТАРТ
в)Уст. бит разрешения работы TWI
*/
        TWCR=(1<<TWINT)|(1<<TWSTA)|(1<<TWEN);
     fa8:	30 83       	st	Z, r19
 
//Ждем, пока шина даст добро (возможно, линия пока еще занята, ждем)
//TWINT бит устанавливается аппаратно, если TWI завершает текущее задание и ожидает реакции программы
        while(!(TWCR & (1<<TWINT)));
     faa:	80 81       	ld	r24, Z
     fac:	88 23       	and	r24, r24
     fae:	ec f7       	brge	.-6      	; 0xfaa <eeWriteBytes+0x1e>
 
        /*Проверяем регистр статуса, а точнее биты TWS3-7,
        которые доступны только для чтения. Эти пять битов
        отражают состояние шины. TWS2-0 «отсекаем» с помощью операции «И         0xF8». Если TWS7-3 = 0x08, то СТАРТ был успешным.*/
        if((TWSR & 0xF8) != TW_START)
     fb0:	8c 91       	ld	r24, X
     fb2:	88 7f       	andi	r24, 0xF8	; 248
     fb4:	88 30       	cpi	r24, 0x08	; 8
     fb6:	09 f0       	breq	.+2      	; 0xfba <eeWriteBytes+0x2e>
     fb8:	48 c0       	rjmp	.+144    	; 0x104a <eeWriteBytes+0xbe>
/*Так вот, мы хотим работать с микросхемой памяти 24LC64, поэтому по шине нам надо передать ее адрес. Она узнает свой адрес, и будет знать, что данные на запись адресуются именно ей. А остальные микросхемы, если они есть, эти данные будут просто игнорировать.*/
 
/*Постоянная часть адреса 24LC64 – 1010 (см. даташит на 24XX64), 3 бита - переменные (если вдруг мы захотим подключить несколько одинаковых микросхем c одинаковыми заводскими адресами, они пригодятся; в ином(нашем) случае выставляем нули), далее бит 0 - если хотим записывать в память или 1 - если читаем данные из памяти I2C EEPROM*/
 
       //TWDR = 0b1010‘000‘0;
        TWDR = (slaveAddressConst<<4) + (slaveAddressVar<<1) + (WRITEFLAG);
     fba:	28 83       	st	Y, r18
	 
/*Говорим регистру управления, что мы хотим передать данные, содержащиеся в регистре данных TWDR*/
        TWCR=(1<<TWINT)|(1<<TWEN);
     fbc:	90 83       	st	Z, r25
	 
        //Ждем окончания передачи данных
        while(!(TWCR & (1<<TWINT)));
     fbe:	80 81       	ld	r24, Z
     fc0:	88 23       	and	r24, r24
     fc2:	ec f7       	brge	.-6      	; 0xfbe <eeWriteBytes+0x32>
	 
	/*Если нет подтверждения от ведомого, делаем все по-новой (либо неполадки с линией, либо ведомого с таким адресом нет).
	Если же подтверждение поступило, то регистр статуса установит биты в 0x18=TW_MT_SLA_ACK (в случае записи) или 0x40=TW_MR_SLA_ACK (в случае чтения).
Грубо говоря, если TW_MT_SLA_ACK, то ведомый "говорит" нам, что его адрес как раз 1010’000 и он готов для записи (чтения, если TW_MR_SLA_ACK).*/
    }while((TWSR & 0xF8) != TW_MT_SLA_ACK);
     fc4:	8c 91       	ld	r24, X
     fc6:	88 7f       	andi	r24, 0xF8	; 248
     fc8:	88 31       	cpi	r24, 0x18	; 24
     fca:	71 f7       	brne	.-36     	; 0xfa8 <eeWriteBytes+0x1c>
/*Здесь можем уже уверенно говорить, что ведущий и ведомый друг друга видят и понимают. Вначале скажем нашей микросхеме памяти, по какому адресу мы хотим записать байт данных*/
 
/*****ПЕРЕДАЕМ АДРЕС ЗАПИСИ********/
	 
/*Записываем в регистр данных старший разряд адреса (адрес 16-битный, uint16_t))..*/
    TWDR=(address>>8);
     fcc:	73 b9       	out	0x03, r23	; 3
 
    //..и передаем его
    TWCR=(1<<TWINT)|(1<<TWEN);
     fce:	84 e8       	ldi	r24, 0x84	; 132
     fd0:	86 bf       	out	0x36, r24	; 54
 
    //ждем окончания передачи
    while(!(TWCR & (1<<TWINT)));
     fd2:	e6 e5       	ldi	r30, 0x56	; 86
     fd4:	f0 e0       	ldi	r31, 0x00	; 0
     fd6:	80 81       	ld	r24, Z
     fd8:	88 23       	and	r24, r24
     fda:	ec f7       	brge	.-6      	; 0xfd6 <eeWriteBytes+0x4a>
	 
/*Проверяем регистр статуса, принял ли ведомый данные. Если ведомый данные принял, то он передает "Подтверждение", устанавливая SDA в низкий уровень. Блок управления, в свою очередь, принимает подтверждение, и записывает в регистр статуса 0x28= TW_MT_DATA_ACK. В противном случае 0x30= TW_MT_DATA_NACK */
    if((TWSR & 0xF8) != TW_MT_DATA_ACK)
     fdc:	81 b1       	in	r24, 0x01	; 1
     fde:	88 7f       	andi	r24, 0xF8	; 248
     fe0:	88 32       	cpi	r24, 0x28	; 40
     fe2:	99 f5       	brne	.+102    	; 0x104a <eeWriteBytes+0xbe>
        return false;
	 
    //Далее тоже самое для младшего разряда адреса
    TWDR=(address);
     fe4:	63 b9       	out	0x03, r22	; 3
    TWCR=(1<<TWINT)|(1<<TWEN);
     fe6:	84 e8       	ldi	r24, 0x84	; 132
     fe8:	86 bf       	out	0x36, r24	; 54
    while(!(TWCR & (1<<TWINT)));
     fea:	e6 e5       	ldi	r30, 0x56	; 86
     fec:	f0 e0       	ldi	r31, 0x00	; 0
     fee:	80 81       	ld	r24, Z
     ff0:	88 23       	and	r24, r24
     ff2:	ec f7       	brge	.-6      	; 0xfee <eeWriteBytes+0x62>
 
    if((TWSR & 0xF8) != TW_MT_DATA_ACK)
     ff4:	81 b1       	in	r24, 0x01	; 1
     ff6:	88 7f       	andi	r24, 0xF8	; 248
     ff8:	88 32       	cpi	r24, 0x28	; 40
     ffa:	39 f5       	brne	.+78     	; 0x104a <eeWriteBytes+0xbe>
/*****ЗАПИСЫВАЕМ БАЙТЫ ДАННЫХ********/

    //Аналогично, как и передавали адрес, передаем байты данных

//sound_size = sizeof(pSnd);
for(uint16_t iii=0; iii < data_size; iii++)
     ffc:	41 15       	cp	r20, r1
     ffe:	51 05       	cpc	r21, r1
    1000:	d9 f0       	breq	.+54     	; 0x1038 <eeWriteBytes+0xac>
    1002:	20 e0       	ldi	r18, 0x00	; 0
    1004:	30 e0       	ldi	r19, 0x00	; 0
	{
        
//		data_tmp = pgm_read_byte(&pSnd[iii]);
		//data_tmp = iii;

		TWDR=(*buffer);
    1006:	c3 e2       	ldi	r28, 0x23	; 35
    1008:	d0 e0       	ldi	r29, 0x00	; 0
		buffer++;

        TWCR=(1<<TWINT)|(1<<TWEN);
    100a:	e6 e5       	ldi	r30, 0x56	; 86
    100c:	f0 e0       	ldi	r31, 0x00	; 0
    100e:	94 e8       	ldi	r25, 0x84	; 132
        while(!(TWCR & (1<<TWINT)));
 
        if((TWSR & 0xF8) != TW_MT_DATA_ACK)
    1010:	61 e2       	ldi	r22, 0x21	; 33
    1012:	70 e0       	ldi	r23, 0x00	; 0
	{
        
//		data_tmp = pgm_read_byte(&pSnd[iii]);
		//data_tmp = iii;

		TWDR=(*buffer);
    1014:	d8 01       	movw	r26, r16
    1016:	8d 91       	ld	r24, X+
    1018:	8d 01       	movw	r16, r26
    101a:	88 83       	st	Y, r24
		buffer++;

        TWCR=(1<<TWINT)|(1<<TWEN);
    101c:	90 83       	st	Z, r25
        while(!(TWCR & (1<<TWINT)));
    101e:	80 81       	ld	r24, Z
    1020:	88 23       	and	r24, r24
    1022:	ec f7       	brge	.-6      	; 0x101e <eeWriteBytes+0x92>
 
        if((TWSR & 0xF8) != TW_MT_DATA_ACK)
    1024:	db 01       	movw	r26, r22
    1026:	8c 91       	ld	r24, X
    1028:	88 7f       	andi	r24, 0xF8	; 248
    102a:	88 32       	cpi	r24, 0x28	; 40
    102c:	71 f4       	brne	.+28     	; 0x104a <eeWriteBytes+0xbe>
/*****ЗАПИСЫВАЕМ БАЙТЫ ДАННЫХ********/

    //Аналогично, как и передавали адрес, передаем байты данных

//sound_size = sizeof(pSnd);
for(uint16_t iii=0; iii < data_size; iii++)
    102e:	2f 5f       	subi	r18, 0xFF	; 255
    1030:	3f 4f       	sbci	r19, 0xFF	; 255
    1032:	24 17       	cp	r18, r20
    1034:	35 07       	cpc	r19, r21
    1036:	70 f3       	brcs	.-36     	; 0x1014 <eeWriteBytes+0x88>
	}

 
    /*Устанавливаем условие завершения передачи данных (СТОП)
    (Устанавливаем бит условия СТОП)*/
    TWCR=(1<<TWINT)|(1<<TWEN)|(1<<TWSTO);
    1038:	84 e9       	ldi	r24, 0x94	; 148
    103a:	86 bf       	out	0x36, r24	; 54
 
    //Ждем установки условия СТОП
    while(TWCR & (1<<TWSTO));
    103c:	e6 e5       	ldi	r30, 0x56	; 86
    103e:	f0 e0       	ldi	r31, 0x00	; 0
    1040:	80 81       	ld	r24, Z
    1042:	84 fd       	sbrc	r24, 4
    1044:	fd cf       	rjmp	.-6      	; 0x1040 <eeWriteBytes+0xb4>
    1046:	81 e0       	ldi	r24, 0x01	; 1
    1048:	01 c0       	rjmp	.+2      	; 0x104c <eeWriteBytes+0xc0>
    104a:	80 e0       	ldi	r24, 0x00	; 0
 
    return true;
}
    104c:	df 91       	pop	r29
    104e:	cf 91       	pop	r28
    1050:	1f 91       	pop	r17
    1052:	0f 91       	pop	r16
    1054:	08 95       	ret

00001056 <eeReadBytes>:

bool eeReadBytes(uint8_t *buffer, uint16_t address, uint16_t data_size)
	{
    1056:	0f 93       	push	r16
    1058:	1f 93       	push	r17
    105a:	cf 93       	push	r28
    105c:	df 93       	push	r29
    105e:	8c 01       	movw	r16, r24
	 
	//Точно такой же кусок кода, как и в eeWriteByte...
	/*****УСТАНАВЛИВАЕМ СВЯЗЬ С ВЕДОМЫМ********/
	    do
	    {
	        TWCR=(1<<TWINT)|(1<<TWSTA)|(1<<TWEN);
    1060:	e6 e5       	ldi	r30, 0x56	; 86
    1062:	f0 e0       	ldi	r31, 0x00	; 0
    1064:	34 ea       	ldi	r19, 0xA4	; 164
	        while(!(TWCR & (1<<TWINT)));
	 
	        if((TWSR & 0xF8) != TW_START)
    1066:	a1 e2       	ldi	r26, 0x21	; 33
    1068:	b0 e0       	ldi	r27, 0x00	; 0
	            return false;
	 
	        TWDR = (slaveAddressConst<<4) + (slaveAddressVar<<1) + WRITEFLAG;
    106a:	c3 e2       	ldi	r28, 0x23	; 35
    106c:	d0 e0       	ldi	r29, 0x00	; 0
    106e:	20 ea       	ldi	r18, 0xA0	; 160
	        TWCR=(1<<TWINT)|(1<<TWEN);
    1070:	94 e8       	ldi	r25, 0x84	; 132
	 
	//Точно такой же кусок кода, как и в eeWriteByte...
	/*****УСТАНАВЛИВАЕМ СВЯЗЬ С ВЕДОМЫМ********/
	    do
	    {
	        TWCR=(1<<TWINT)|(1<<TWSTA)|(1<<TWEN);
    1072:	30 83       	st	Z, r19
	        while(!(TWCR & (1<<TWINT)));
    1074:	80 81       	ld	r24, Z
    1076:	88 23       	and	r24, r24
    1078:	ec f7       	brge	.-6      	; 0x1074 <eeReadBytes+0x1e>
	 
	        if((TWSR & 0xF8) != TW_START)
    107a:	8c 91       	ld	r24, X
    107c:	88 7f       	andi	r24, 0xF8	; 248
    107e:	88 30       	cpi	r24, 0x08	; 8
    1080:	09 f0       	breq	.+2      	; 0x1084 <eeReadBytes+0x2e>
    1082:	71 c0       	rjmp	.+226    	; 0x1166 <eeReadBytes+0x110>
	            return false;
	 
	        TWDR = (slaveAddressConst<<4) + (slaveAddressVar<<1) + WRITEFLAG;
    1084:	28 83       	st	Y, r18
	        TWCR=(1<<TWINT)|(1<<TWEN);
    1086:	90 83       	st	Z, r25
	 
	        while(!(TWCR & (1<<TWINT)));
    1088:	80 81       	ld	r24, Z
    108a:	88 23       	and	r24, r24
    108c:	ec f7       	brge	.-6      	; 0x1088 <eeReadBytes+0x32>
	 
	    }while((TWSR & 0xF8) != TW_MT_SLA_ACK);
    108e:	8c 91       	ld	r24, X
    1090:	88 7f       	andi	r24, 0xF8	; 248
    1092:	88 31       	cpi	r24, 0x18	; 24
    1094:	71 f7       	brne	.-36     	; 0x1072 <eeReadBytes+0x1c>
	 
	/*****ПЕРЕДАЕМ АДРЕС ЧТЕНИЯ********/
	    TWDR=(address>>8);
    1096:	73 b9       	out	0x03, r23	; 3
	    TWCR=(1<<TWINT)|(1<<TWEN);
    1098:	84 e8       	ldi	r24, 0x84	; 132
    109a:	86 bf       	out	0x36, r24	; 54
	    while(!(TWCR & (1<<TWINT)));
    109c:	e6 e5       	ldi	r30, 0x56	; 86
    109e:	f0 e0       	ldi	r31, 0x00	; 0
    10a0:	80 81       	ld	r24, Z
    10a2:	88 23       	and	r24, r24
    10a4:	ec f7       	brge	.-6      	; 0x10a0 <eeReadBytes+0x4a>
	 
	    if((TWSR & 0xF8) != TW_MT_DATA_ACK)
    10a6:	81 b1       	in	r24, 0x01	; 1
    10a8:	88 7f       	andi	r24, 0xF8	; 248
    10aa:	88 32       	cpi	r24, 0x28	; 40
    10ac:	09 f0       	breq	.+2      	; 0x10b0 <eeReadBytes+0x5a>
    10ae:	5b c0       	rjmp	.+182    	; 0x1166 <eeReadBytes+0x110>
	        return false;
	 
	    TWDR=(address);
    10b0:	63 b9       	out	0x03, r22	; 3
	    TWCR=(1<<TWINT)|(1<<TWEN);
    10b2:	84 e8       	ldi	r24, 0x84	; 132
    10b4:	86 bf       	out	0x36, r24	; 54
	    while(!(TWCR & (1<<TWINT)));
    10b6:	e6 e5       	ldi	r30, 0x56	; 86
    10b8:	f0 e0       	ldi	r31, 0x00	; 0
    10ba:	80 81       	ld	r24, Z
    10bc:	88 23       	and	r24, r24
    10be:	ec f7       	brge	.-6      	; 0x10ba <eeReadBytes+0x64>
	 
	    if((TWSR & 0xF8) != TW_MT_DATA_ACK)
    10c0:	81 b1       	in	r24, 0x01	; 1
    10c2:	88 7f       	andi	r24, 0xF8	; 248
    10c4:	88 32       	cpi	r24, 0x28	; 40
    10c6:	09 f0       	breq	.+2      	; 0x10ca <eeReadBytes+0x74>
    10c8:	4e c0       	rjmp	.+156    	; 0x1166 <eeReadBytes+0x110>
	 
	/*****ПЕРЕХОД В РЕЖИМ ЧТЕНИЯ********/
	/*Необходимо опять «связаться» с ведомым, т.к. ранее мы отсылали адресный пакет (slaveAddressConst<<4) + (slaveAddressVar<<1) + WRITEFLAG, чтобы записать адрес чтения байта данных. А теперь нужно перейти в режим чтения (мы же хотим прочитать байт данных), для этого отсылаем новый пакет (slaveAddressConst<<4) + (slaveAddressVar<<1) + READFLAG.*/
	 
	    //Повтор условия начала передачи
	    TWCR=(1<<TWINT)|(1<<TWSTA)|(1<<TWEN);
    10ca:	84 ea       	ldi	r24, 0xA4	; 164
    10cc:	86 bf       	out	0x36, r24	; 54
	//ждем выполнения текущей операции
	    while(!(TWCR & (1<<TWINT)));
    10ce:	e6 e5       	ldi	r30, 0x56	; 86
    10d0:	f0 e0       	ldi	r31, 0x00	; 0
    10d2:	80 81       	ld	r24, Z
    10d4:	88 23       	and	r24, r24
    10d6:	ec f7       	brge	.-6      	; 0x10d2 <eeReadBytes+0x7c>
	 
	/*Проверяем статус. Условие повтора начала передачи (0x10=TW_REP_START) должно подтвердиться*/
	    if((TWSR & 0xF8) != TW_REP_START)
    10d8:	81 b1       	in	r24, 0x01	; 1
    10da:	88 7f       	andi	r24, 0xF8	; 248
    10dc:	80 31       	cpi	r24, 0x10	; 16
    10de:	09 f0       	breq	.+2      	; 0x10e2 <eeReadBytes+0x8c>
    10e0:	42 c0       	rjmp	.+132    	; 0x1166 <eeReadBytes+0x110>
	        return false;
	 
	    /*Записываем адрес ведомого (7 битов) и в конце бит чтения (1)*/
	    //TWDR=0b1010’000’1;
	    TWDR = (slaveAddressConst<<4) + (slaveAddressVar<<1) + READFLAG;        
    10e2:	81 ea       	ldi	r24, 0xA1	; 161
    10e4:	83 b9       	out	0x03, r24	; 3
	 
	//Отправляем..
	    TWCR=(1<<TWINT)|(1<<TWEN);
    10e6:	84 e8       	ldi	r24, 0x84	; 132
    10e8:	86 bf       	out	0x36, r24	; 54
	    while(!(TWCR & (1<<TWINT)));
    10ea:	e6 e5       	ldi	r30, 0x56	; 86
    10ec:	f0 e0       	ldi	r31, 0x00	; 0
    10ee:	80 81       	ld	r24, Z
    10f0:	88 23       	and	r24, r24
    10f2:	ec f7       	brge	.-6      	; 0x10ee <eeReadBytes+0x98>
	 
	/*Проверяем, нашелся ли ведомый с адресом 1010’000 и готов ли он работать на чтение*/
	    if((TWSR & 0xF8) != TW_MR_SLA_ACK)
    10f4:	81 b1       	in	r24, 0x01	; 1
    10f6:	88 7f       	andi	r24, 0xF8	; 248
    10f8:	80 34       	cpi	r24, 0x40	; 64
    10fa:	a9 f5       	brne	.+106    	; 0x1166 <eeReadBytes+0x110>
	        return false;
	 
	/*****СЧИТЫВАЕМ БАЙТ ДАННЫХ********/
	 for(uint16_t i=0; i < (data_size - 1); i++)//считаем все байты, кроме последнего
    10fc:	41 50       	subi	r20, 0x01	; 1
    10fe:	50 40       	sbci	r21, 0x00	; 0
    1100:	d9 f0       	breq	.+54     	; 0x1138 <eeReadBytes+0xe2>
    1102:	20 e0       	ldi	r18, 0x00	; 0
    1104:	30 e0       	ldi	r19, 0x00	; 0
	{

	/*Начинаем прием данных с помощью очистки флага прерывания TWINT. Читаемый байт записывается в регистр TWDR.*/
	    TWCR=(1<<TWINT)|(1<<TWEN)|(1<<TWEA);
    1106:	e6 e5       	ldi	r30, 0x56	; 86
    1108:	f0 e0       	ldi	r31, 0x00	; 0
    110a:	94 ec       	ldi	r25, 0xC4	; 196
	 
	    //Ждем окончания приема..
	    while(!(TWCR & (1<<TWINT)));
	 
	/*Проверяем статус. По протоколу, прием данных должен оканчиваться без подтверждения со стороны ведущего (TW_MR_DATA_NACK = 0x58)*/
	    if((TWSR & 0xF8) != TW_MR_DATA_ACK)
    110c:	61 e2       	ldi	r22, 0x21	; 33
    110e:	70 e0       	ldi	r23, 0x00	; 0
	        return false;
	 
	    /*Присваиваем переменной data значение, считанное в регистр данных TWDR*/
	    
		*buffer = TWDR;
    1110:	c3 e2       	ldi	r28, 0x23	; 35
    1112:	d0 e0       	ldi	r29, 0x00	; 0
	/*****СЧИТЫВАЕМ БАЙТ ДАННЫХ********/
	 for(uint16_t i=0; i < (data_size - 1); i++)//считаем все байты, кроме последнего
	{

	/*Начинаем прием данных с помощью очистки флага прерывания TWINT. Читаемый байт записывается в регистр TWDR.*/
	    TWCR=(1<<TWINT)|(1<<TWEN)|(1<<TWEA);
    1114:	90 83       	st	Z, r25
	 
	    //Ждем окончания приема..
	    while(!(TWCR & (1<<TWINT)));
    1116:	80 81       	ld	r24, Z
    1118:	88 23       	and	r24, r24
    111a:	ec f7       	brge	.-6      	; 0x1116 <eeReadBytes+0xc0>
	 
	/*Проверяем статус. По протоколу, прием данных должен оканчиваться без подтверждения со стороны ведущего (TW_MR_DATA_NACK = 0x58)*/
	    if((TWSR & 0xF8) != TW_MR_DATA_ACK)
    111c:	db 01       	movw	r26, r22
    111e:	8c 91       	ld	r24, X
    1120:	88 7f       	andi	r24, 0xF8	; 248
    1122:	80 35       	cpi	r24, 0x50	; 80
    1124:	01 f5       	brne	.+64     	; 0x1166 <eeReadBytes+0x110>
	        return false;
	 
	    /*Присваиваем переменной data значение, считанное в регистр данных TWDR*/
	    
		*buffer = TWDR;
    1126:	88 81       	ld	r24, Y
    1128:	d8 01       	movw	r26, r16
    112a:	8d 93       	st	X+, r24
    112c:	8d 01       	movw	r16, r26
	/*Проверяем, нашелся ли ведомый с адресом 1010’000 и готов ли он работать на чтение*/
	    if((TWSR & 0xF8) != TW_MR_SLA_ACK)
	        return false;
	 
	/*****СЧИТЫВАЕМ БАЙТ ДАННЫХ********/
	 for(uint16_t i=0; i < (data_size - 1); i++)//считаем все байты, кроме последнего
    112e:	2f 5f       	subi	r18, 0xFF	; 255
    1130:	3f 4f       	sbci	r19, 0xFF	; 255
    1132:	24 17       	cp	r18, r20
    1134:	35 07       	cpc	r19, r21
    1136:	70 f3       	brcs	.-36     	; 0x1114 <eeReadBytes+0xbe>
		buffer++;
		//data=TWDR;
	}

	 /*Начинаем прием данных с помощью очистки флага прерывания TWINT. Читаемый байт записывается в регистр TWDR.*/
	    TWCR=(1<<TWINT)|(1<<TWEN);
    1138:	84 e8       	ldi	r24, 0x84	; 132
    113a:	86 bf       	out	0x36, r24	; 54
	 
	    //Ждем окончания приема..
	    while(!(TWCR & (1<<TWINT)));
    113c:	e6 e5       	ldi	r30, 0x56	; 86
    113e:	f0 e0       	ldi	r31, 0x00	; 0
    1140:	80 81       	ld	r24, Z
    1142:	88 23       	and	r24, r24
    1144:	ec f7       	brge	.-6      	; 0x1140 <eeReadBytes+0xea>
	 
	/*Проверяем статус. По протоколу, прием данных должен оканчиваться без подтверждения со стороны ведущего (TW_MR_DATA_NACK = 0x58)*/
	    if((TWSR & 0xF8) != TW_MR_DATA_NACK)
    1146:	81 b1       	in	r24, 0x01	; 1
    1148:	88 7f       	andi	r24, 0xF8	; 248
    114a:	88 35       	cpi	r24, 0x58	; 88
    114c:	61 f4       	brne	.+24     	; 0x1166 <eeReadBytes+0x110>
	        return false;
	 
	    /*Присваиваем переменной data значение, считанное в регистр данных TWDR*/
	    
		*buffer = TWDR;
    114e:	83 b1       	in	r24, 0x03	; 3
    1150:	f8 01       	movw	r30, r16
    1152:	80 83       	st	Z, r24


	    /*Устанавливаем условие завершения передачи данных (СТОП)*/
	    TWCR=(1<<TWINT)|(1<<TWEN)|(1<<TWSTO);
    1154:	84 e9       	ldi	r24, 0x94	; 148
    1156:	86 bf       	out	0x36, r24	; 54
	 
	    //Ждем установки условия СТОП
	    while(TWCR & (1<<TWSTO));
    1158:	e6 e5       	ldi	r30, 0x56	; 86
    115a:	f0 e0       	ldi	r31, 0x00	; 0
    115c:	80 81       	ld	r24, Z
    115e:	84 fd       	sbrc	r24, 4
    1160:	fd cf       	rjmp	.-6      	; 0x115c <eeReadBytes+0x106>
    1162:	81 e0       	ldi	r24, 0x01	; 1
    1164:	01 c0       	rjmp	.+2      	; 0x1168 <eeReadBytes+0x112>
    1166:	80 e0       	ldi	r24, 0x00	; 0
	 
    //Возвращаем считанный байт
    return true;
}
    1168:	df 91       	pop	r29
    116a:	cf 91       	pop	r28
    116c:	1f 91       	pop	r17
    116e:	0f 91       	pop	r16
    1170:	08 95       	ret

00001172 <open_eeprom>:



bool open_eeprom( uint16_t address){
    1172:	cf 93       	push	r28
    1174:	df 93       	push	r29
    1176:	58 2f       	mov	r21, r24
	//Точно такой же кусок кода, как и в eeWriteByte...
	/*****УСТАНАВЛИВАЕМ СВЯЗЬ С ВЕДОМЫМ********/
	    do
	    {
	        TWCR=(1<<TWINT)|(1<<TWSTA)|(1<<TWEN);
    1178:	e6 e5       	ldi	r30, 0x56	; 86
    117a:	f0 e0       	ldi	r31, 0x00	; 0
    117c:	44 ea       	ldi	r20, 0xA4	; 164
	        while(!(TWCR & (1<<TWINT)));
	 
	        if((TWSR & 0xF8) != TW_START)
    117e:	a1 e2       	ldi	r26, 0x21	; 33
    1180:	b0 e0       	ldi	r27, 0x00	; 0
	            return false;
	 
	        TWDR = (slaveAddressConst<<4) + (slaveAddressVar<<1) + WRITEFLAG;
    1182:	c3 e2       	ldi	r28, 0x23	; 35
    1184:	d0 e0       	ldi	r29, 0x00	; 0
    1186:	30 ea       	ldi	r19, 0xA0	; 160
	        TWCR=(1<<TWINT)|(1<<TWEN);
    1188:	24 e8       	ldi	r18, 0x84	; 132
bool open_eeprom( uint16_t address){
	//Точно такой же кусок кода, как и в eeWriteByte...
	/*****УСТАНАВЛИВАЕМ СВЯЗЬ С ВЕДОМЫМ********/
	    do
	    {
	        TWCR=(1<<TWINT)|(1<<TWSTA)|(1<<TWEN);
    118a:	40 83       	st	Z, r20
	        while(!(TWCR & (1<<TWINT)));
    118c:	80 81       	ld	r24, Z
    118e:	88 23       	and	r24, r24
    1190:	ec f7       	brge	.-6      	; 0x118c <open_eeprom+0x1a>
	 
	        if((TWSR & 0xF8) != TW_START)
    1192:	8c 91       	ld	r24, X
    1194:	88 7f       	andi	r24, 0xF8	; 248
    1196:	88 30       	cpi	r24, 0x08	; 8
    1198:	e1 f5       	brne	.+120    	; 0x1212 <open_eeprom+0xa0>
	            return false;
	 
	        TWDR = (slaveAddressConst<<4) + (slaveAddressVar<<1) + WRITEFLAG;
    119a:	38 83       	st	Y, r19
	        TWCR=(1<<TWINT)|(1<<TWEN);
    119c:	20 83       	st	Z, r18
	 
	        while(!(TWCR & (1<<TWINT)));
    119e:	80 81       	ld	r24, Z
    11a0:	88 23       	and	r24, r24
    11a2:	ec f7       	brge	.-6      	; 0x119e <open_eeprom+0x2c>
	 
	    }while((TWSR & 0xF8) != TW_MT_SLA_ACK);
    11a4:	8c 91       	ld	r24, X
    11a6:	88 7f       	andi	r24, 0xF8	; 248
    11a8:	88 31       	cpi	r24, 0x18	; 24
    11aa:	79 f7       	brne	.-34     	; 0x118a <open_eeprom+0x18>
	 
	/*****ПЕРЕДАЕМ АДРЕС ЧТЕНИЯ********/
	    TWDR=(address>>8);
    11ac:	93 b9       	out	0x03, r25	; 3
	    TWCR=(1<<TWINT)|(1<<TWEN);
    11ae:	84 e8       	ldi	r24, 0x84	; 132
    11b0:	86 bf       	out	0x36, r24	; 54
	    while(!(TWCR & (1<<TWINT)));
    11b2:	e6 e5       	ldi	r30, 0x56	; 86
    11b4:	f0 e0       	ldi	r31, 0x00	; 0
    11b6:	80 81       	ld	r24, Z
    11b8:	88 23       	and	r24, r24
    11ba:	ec f7       	brge	.-6      	; 0x11b6 <open_eeprom+0x44>
	 
	    if((TWSR & 0xF8) != TW_MT_DATA_ACK)
    11bc:	81 b1       	in	r24, 0x01	; 1
    11be:	88 7f       	andi	r24, 0xF8	; 248
    11c0:	88 32       	cpi	r24, 0x28	; 40
    11c2:	39 f5       	brne	.+78     	; 0x1212 <open_eeprom+0xa0>
	        return false;
	 
	    TWDR=(address);
    11c4:	53 b9       	out	0x03, r21	; 3
	    TWCR=(1<<TWINT)|(1<<TWEN);
    11c6:	84 e8       	ldi	r24, 0x84	; 132
    11c8:	86 bf       	out	0x36, r24	; 54
	    while(!(TWCR & (1<<TWINT)));
    11ca:	e6 e5       	ldi	r30, 0x56	; 86
    11cc:	f0 e0       	ldi	r31, 0x00	; 0
    11ce:	80 81       	ld	r24, Z
    11d0:	88 23       	and	r24, r24
    11d2:	ec f7       	brge	.-6      	; 0x11ce <open_eeprom+0x5c>
	 
	    if((TWSR & 0xF8) != TW_MT_DATA_ACK)
    11d4:	81 b1       	in	r24, 0x01	; 1
    11d6:	88 7f       	andi	r24, 0xF8	; 248
    11d8:	88 32       	cpi	r24, 0x28	; 40
    11da:	d9 f4       	brne	.+54     	; 0x1212 <open_eeprom+0xa0>
	 
	/*****ПЕРЕХОД В РЕЖИМ ЧТЕНИЯ********/
	/*Необходимо опять «связаться» с ведомым, т.к. ранее мы отсылали адресный пакет (slaveAddressConst<<4) + (slaveAddressVar<<1) + WRITEFLAG, чтобы записать адрес чтения байта данных. А теперь нужно перейти в режим чтения (мы же хотим прочитать байт данных), для этого отсылаем новый пакет (slaveAddressConst<<4) + (slaveAddressVar<<1) + READFLAG.*/
	 
	    //Повтор условия начала передачи
	    TWCR=(1<<TWINT)|(1<<TWSTA)|(1<<TWEN);
    11dc:	84 ea       	ldi	r24, 0xA4	; 164
    11de:	86 bf       	out	0x36, r24	; 54
	//ждем выполнения текущей операции
	    while(!(TWCR & (1<<TWINT)));
    11e0:	e6 e5       	ldi	r30, 0x56	; 86
    11e2:	f0 e0       	ldi	r31, 0x00	; 0
    11e4:	80 81       	ld	r24, Z
    11e6:	88 23       	and	r24, r24
    11e8:	ec f7       	brge	.-6      	; 0x11e4 <open_eeprom+0x72>
	 
	/*Проверяем статус. Условие повтора начала передачи (0x10=TW_REP_START) должно подтвердиться*/
	    if((TWSR & 0xF8) != TW_REP_START)
    11ea:	81 b1       	in	r24, 0x01	; 1
    11ec:	88 7f       	andi	r24, 0xF8	; 248
    11ee:	80 31       	cpi	r24, 0x10	; 16
    11f0:	81 f4       	brne	.+32     	; 0x1212 <open_eeprom+0xa0>
	        return false;
	 
	    /*Записываем адрес ведомого (7 битов) и в конце бит чтения (1)*/
	    //TWDR=0b1010’000’1;
	    TWDR = (slaveAddressConst<<4) + (slaveAddressVar<<1) + READFLAG;        
    11f2:	81 ea       	ldi	r24, 0xA1	; 161
    11f4:	83 b9       	out	0x03, r24	; 3
	 
	//Отправляем..
	    TWCR=(1<<TWINT)|(1<<TWEN);
    11f6:	84 e8       	ldi	r24, 0x84	; 132
    11f8:	86 bf       	out	0x36, r24	; 54
	    while(!(TWCR & (1<<TWINT)));
    11fa:	e6 e5       	ldi	r30, 0x56	; 86
    11fc:	f0 e0       	ldi	r31, 0x00	; 0
    11fe:	80 81       	ld	r24, Z
    1200:	88 23       	and	r24, r24
    1202:	ec f7       	brge	.-6      	; 0x11fe <open_eeprom+0x8c>
	 
	/*Проверяем, нашелся ли ведомый с адресом 1010’000 и готов ли он работать на чтение*/
	    if((TWSR & 0xF8) != TW_MR_SLA_ACK)
    1204:	81 b1       	in	r24, 0x01	; 1
    1206:	90 e0       	ldi	r25, 0x00	; 0
    1208:	88 7f       	andi	r24, 0xF8	; 248
    120a:	80 34       	cpi	r24, 0x40	; 64
    120c:	19 f4       	brne	.+6      	; 0x1214 <open_eeprom+0xa2>
    120e:	91 e0       	ldi	r25, 0x01	; 1
    1210:	01 c0       	rjmp	.+2      	; 0x1214 <open_eeprom+0xa2>
    1212:	90 e0       	ldi	r25, 0x00	; 0
	        return false;
		return true;

}
    1214:	89 2f       	mov	r24, r25
    1216:	df 91       	pop	r29
    1218:	cf 91       	pop	r28
    121a:	08 95       	ret

0000121c <read_eeprom_byte>:


bool read_eeprom_byte(uint8_t *data){
    121c:	dc 01       	movw	r26, r24
/*Начинаем прием данных с помощью очистки флага прерывания TWINT. Читаемый байт записывается в регистр TWDR.*/
	    TWCR=(1<<TWINT)|(1<<TWEN)|(1<<TWEA);
    121e:	84 ec       	ldi	r24, 0xC4	; 196
    1220:	86 bf       	out	0x36, r24	; 54
	 
	    //Ждем окончания приема..
	    while(!(TWCR & (1<<TWINT)));
    1222:	e6 e5       	ldi	r30, 0x56	; 86
    1224:	f0 e0       	ldi	r31, 0x00	; 0
    1226:	80 81       	ld	r24, Z
    1228:	88 23       	and	r24, r24
    122a:	ec f7       	brge	.-6      	; 0x1226 <read_eeprom_byte+0xa>
	 
	/*Проверяем статус. По протоколу, прием данных должен оканчиваться без подтверждения со стороны ведущего (TW_MR_DATA_NACK = 0x58)*/
	    if((TWSR & 0xF8) != TW_MR_DATA_ACK)
    122c:	81 b1       	in	r24, 0x01	; 1
    122e:	88 7f       	andi	r24, 0xF8	; 248
    1230:	80 35       	cpi	r24, 0x50	; 80
    1232:	11 f0       	breq	.+4      	; 0x1238 <read_eeprom_byte+0x1c>
    1234:	80 e0       	ldi	r24, 0x00	; 0
    1236:	08 95       	ret
	        return false;
	 
	    /*Присваиваем переменной data значение, считанное в регистр данных TWDR*/
	    
		*data = TWDR;
    1238:	83 b1       	in	r24, 0x03	; 3
    123a:	8c 93       	st	X, r24
    123c:	81 e0       	ldi	r24, 0x01	; 1
		return true;
		//data=TWDR;


}
    123e:	08 95       	ret

00001240 <close_eeprom>:

bool close_eeprom(uint8_t *data){
    1240:	dc 01       	movw	r26, r24
/*Начинаем прием данных с помощью очистки флага прерывания TWINT. Читаемый байт записывается в регистр TWDR.*/
	    TWCR=(1<<TWINT)|(1<<TWEN);
    1242:	84 e8       	ldi	r24, 0x84	; 132
    1244:	86 bf       	out	0x36, r24	; 54
	 
	    //Ждем окончания приема..
	    while(!(TWCR & (1<<TWINT)));
    1246:	e6 e5       	ldi	r30, 0x56	; 86
    1248:	f0 e0       	ldi	r31, 0x00	; 0
    124a:	80 81       	ld	r24, Z
    124c:	88 23       	and	r24, r24
    124e:	ec f7       	brge	.-6      	; 0x124a <close_eeprom+0xa>
	 
	/*Проверяем статус. По протоколу, прием данных должен оканчиваться без подтверждения со стороны ведущего (TW_MR_DATA_NACK = 0x58)*/
	    if((TWSR & 0xF8) != TW_MR_DATA_NACK)
    1250:	81 b1       	in	r24, 0x01	; 1
    1252:	88 7f       	andi	r24, 0xF8	; 248
    1254:	88 35       	cpi	r24, 0x58	; 88
    1256:	11 f0       	breq	.+4      	; 0x125c <close_eeprom+0x1c>
    1258:	80 e0       	ldi	r24, 0x00	; 0
    125a:	08 95       	ret
	        return false;
	 
	    /*Присваиваем переменной data значение, считанное в регистр данных TWDR*/
	    
		*data = TWDR;
    125c:	83 b1       	in	r24, 0x03	; 3
    125e:	8c 93       	st	X, r24


	    /*Устанавливаем условие завершения передачи данных (СТОП)*/
	    TWCR=(1<<TWINT)|(1<<TWEN)|(1<<TWSTO);
    1260:	84 e9       	ldi	r24, 0x94	; 148
    1262:	86 bf       	out	0x36, r24	; 54
	 
	    //Ждем установки условия СТОП
	    while(TWCR & (1<<TWSTO));
    1264:	e6 e5       	ldi	r30, 0x56	; 86
    1266:	f0 e0       	ldi	r31, 0x00	; 0
    1268:	80 81       	ld	r24, Z
    126a:	84 fd       	sbrc	r24, 4
    126c:	fd cf       	rjmp	.-6      	; 0x1268 <close_eeprom+0x28>
    126e:	81 e0       	ldi	r24, 0x01	; 1
	 
    //Возвращаем считанный байт
    return true;
}
    1270:	08 95       	ret

00001272 <configuring_ports>:
}




void configuring_ports(){
    1272:	cf 93       	push	r28
    1274:	df 93       	push	r29
//IR_LED_DDR |= IR_LED_PIN; //ножку, на которой подключен ИК диот переводим в режим "выход"
FIRE_LED_DDR |= FIRE_LED_PIN; //ножку, на которой подключен ИК диот переводим в режим "выход"
    1276:	e4 e3       	ldi	r30, 0x34	; 52
    1278:	f0 e0       	ldi	r31, 0x00	; 0
    127a:	80 81       	ld	r24, Z
    127c:	80 62       	ori	r24, 0x20	; 32
    127e:	80 83       	st	Z, r24

IR_LED_HIGH_POWER_DDR|=IR_LED_HIGH_POWER_PIN;//ножку, на которой подключен ИК диот переводим в режим "выход"
    1280:	80 81       	ld	r24, Z
    1282:	80 64       	ori	r24, 0x40	; 64
    1284:	80 83       	st	Z, r24
IR_LED_HIGH_POWER_OFF;
    1286:	a5 e3       	ldi	r26, 0x35	; 53
    1288:	b0 e0       	ldi	r27, 0x00	; 0
    128a:	8c 91       	ld	r24, X
    128c:	8f 7b       	andi	r24, 0xBF	; 191
    128e:	8c 93       	st	X, r24
IR_LED_LOW_POWER_DDR|=IR_LED_LOW_POWER_PIN;//ножку, на которой подключен ИК диот переводим в режим "выход"
    1290:	80 81       	ld	r24, Z
    1292:	80 68       	ori	r24, 0x80	; 128
    1294:	80 83       	st	Z, r24
IR_LED_LOW_POWER_OFF;
    1296:	8c 91       	ld	r24, X
    1298:	8f 77       	andi	r24, 0x7F	; 127
    129a:	8c 93       	st	X, r24
				| LIFE_LED4_PIN;//тоже настраиваем как выходы

*/


LIFE_LED1_DDR |= LIFE_LED1_PIN;
    129c:	80 81       	ld	r24, Z
    129e:	88 60       	ori	r24, 0x08	; 8
    12a0:	80 83       	st	Z, r24
LIFE_LED2_DDR |= LIFE_LED2_PIN;
    12a2:	80 81       	ld	r24, Z
    12a4:	80 61       	ori	r24, 0x10	; 16
    12a6:	80 83       	st	Z, r24
LIFE_LED3_DDR |= LIFE_LED3_PIN;
    12a8:	80 81       	ld	r24, Z
    12aa:	84 60       	ori	r24, 0x04	; 4
    12ac:	80 83       	st	Z, r24
LIFE_LED4_DDR |= LIFE_LED4_PIN;
    12ae:	21 e3       	ldi	r18, 0x31	; 49
    12b0:	30 e0       	ldi	r19, 0x00	; 0
    12b2:	e9 01       	movw	r28, r18
    12b4:	88 81       	ld	r24, Y
    12b6:	80 68       	ori	r24, 0x80	; 128
    12b8:	88 83       	st	Y, r24


SOUND_DDR |= SOUND_PIN; //настраиваем выход ШИМ (АЦП)
    12ba:	e7 e3       	ldi	r30, 0x37	; 55
    12bc:	f0 e0       	ldi	r31, 0x00	; 0
    12be:	80 81       	ld	r24, Z
    12c0:	88 60       	ori	r24, 0x08	; 8
    12c2:	80 83       	st	Z, r24
SOUND_CONTROL_DDR|= SOUND_CONTROL_PIN;//настраиваем вывод, контролирующий усилитель, как "выход" 
    12c4:	80 81       	ld	r24, Z
    12c6:	80 61       	ori	r24, 0x10	; 16
    12c8:	80 83       	st	Z, r24
SOUND_ON;//включаем усилитель
    12ca:	a8 e3       	ldi	r26, 0x38	; 56
    12cc:	b0 e0       	ldi	r27, 0x00	; 0
    12ce:	8c 91       	ld	r24, X
    12d0:	80 61       	ori	r24, 0x10	; 16
    12d2:	8c 93       	st	X, r24

BULLETS_OUT_LED_DDR|=BULLETS_OUT_LED_PIN;
    12d4:	4a e3       	ldi	r20, 0x3A	; 58
    12d6:	50 e0       	ldi	r21, 0x00	; 0
    12d8:	ea 01       	movw	r28, r20
    12da:	88 81       	ld	r24, Y
    12dc:	81 60       	ori	r24, 0x01	; 1
    12de:	88 83       	st	Y, r24
//DDRA |= (1 << 4)|(1<<5)|(1<<6)|(1<<7); // Устанавливаем порт PORTA.1 как выход                                                                                                                                                                    DDRB = 1<<DDB3;						//PB3 (OC0) set as output
//DDRD |= (1 << 7);//светодиод на повязке
DDRB |= (1 << 2);// отключение усилителя
    12e0:	80 81       	ld	r24, Z
    12e2:	84 60       	ori	r24, 0x04	; 4
    12e4:	80 83       	st	Z, r24
PORTB &=~(1 << 2);
    12e6:	8c 91       	ld	r24, X
    12e8:	8b 7f       	andi	r24, 0xFB	; 251
    12ea:	8c 93       	st	X, r24
//PORTD &= ~(1 << 7);//выключаем светодиод на повязке
WOUND_LED_DDR |= WOUND_LED_PIN;
    12ec:	e9 01       	movw	r28, r18
    12ee:	88 81       	ld	r24, Y
    12f0:	80 61       	ori	r24, 0x10	; 16
    12f2:	88 83       	st	Y, r24
TSOP_DDR &=~TSOP_PIN; //вывод, к которому подключен ИК-датчик настраиваем как "вход"
    12f4:	88 81       	ld	r24, Y
    12f6:	8b 7f       	andi	r24, 0xFB	; 251
    12f8:	88 83       	st	Y, r24
RELOAD_KEY_DDR &=~RELOAD_KEY_PIN; //вывод, на котором сидит кнопка "перезарядка" как "вход"
    12fa:	80 81       	ld	r24, Z
    12fc:	8e 7f       	andi	r24, 0xFE	; 254
    12fe:	80 83       	st	Z, r24
RELOAD_KEY_PORT |= RELOAD_KEY_PIN;//включаем подтягивающий резистор
    1300:	8c 91       	ld	r24, X
    1302:	81 60       	ori	r24, 0x01	; 1
    1304:	8c 93       	st	X, r24

FIRE_KEY_DDR&=~FIRE_KEY_PIN;
    1306:	80 81       	ld	r24, Z
    1308:	8b 7f       	andi	r24, 0xFB	; 251
    130a:	80 83       	st	Z, r24
FIRE_KEY_PORT|=FIRE_KEY_PIN;
    130c:	8c 91       	ld	r24, X
    130e:	84 60       	ori	r24, 0x04	; 4
    1310:	8c 93       	st	X, r24

FIRE_MODE_KEY_DDR&=~FIRE_MODE_KEY_PIN;
    1312:	80 81       	ld	r24, Z
    1314:	8d 7f       	andi	r24, 0xFD	; 253
    1316:	80 83       	st	Z, r24
FIRE_MODE_KEY_PORT|=FIRE_MODE_KEY_PIN;
    1318:	8c 91       	ld	r24, X
    131a:	82 60       	ori	r24, 0x02	; 2
    131c:	8c 93       	st	X, r24

ADC_DDR&=~ADC_PIN;
    131e:	fa 01       	movw	r30, r20
    1320:	80 81       	ld	r24, Z
    1322:	8f 77       	andi	r24, 0x7F	; 127
    1324:	80 83       	st	Z, r24
ADC_PORT&=~ADC_PIN;
    1326:	eb e3       	ldi	r30, 0x3B	; 59
    1328:	f0 e0       	ldi	r31, 0x00	; 0
    132a:	80 81       	ld	r24, Z
    132c:	8f 77       	andi	r24, 0x7F	; 127
    132e:	80 83       	st	Z, r24
}
    1330:	df 91       	pop	r29
    1332:	cf 91       	pop	r28
    1334:	08 95       	ret

00001336 <init_timer2>:
* генерировались с удвоенной частотой несущей ИК-приемника 
***************************************************************************************/


void init_timer2(void){
OCR2 = F_CPU/IR_F0/2-1;       //Прерывания будут генерироваться с частотой, вдвое большей, чем частота несущей 
    1336:	8d e8       	ldi	r24, 0x8D	; 141
    1338:	83 bd       	out	0x23, r24	; 35
TCCR2 = _BV(CS20)|_BV(WGM21); // Режим работы таймер - СТС (сброс при совпадении)
    133a:	89 e0       	ldi	r24, 0x09	; 9
    133c:	85 bd       	out	0x25, r24	; 37
                              // Тактирование с частотой резонатора (7 372 800 Гц)
//TIMSK |= _BV(OCIE2);          // Разрешаем прерывания по захвату/сравнению
TIMSK &=~_BV(OCIE2);  
    133e:	e9 e5       	ldi	r30, 0x59	; 89
    1340:	f0 e0       	ldi	r31, 0x00	; 0
    1342:	80 81       	ld	r24, Z
    1344:	8f 77       	andi	r24, 0x7F	; 127
    1346:	80 83       	st	Z, r24
}
    1348:	08 95       	ret

0000134a <init_int0>:

/**************************************************************************************
* Функция выполняет настройку внешних прерываний вывода INT0
***************************************************************************************/
void init_int0(void){
DDRD &=~(1<<2); 				//Настраиваем вывод INT0 как вход
    134a:	e1 e3       	ldi	r30, 0x31	; 49
    134c:	f0 e0       	ldi	r31, 0x00	; 0
    134e:	80 81       	ld	r24, Z
    1350:	8b 7f       	andi	r24, 0xFB	; 251
    1352:	80 83       	st	Z, r24
MCUCR |=_BV(ISC01);				//Прерывания будут генерироваться 
    1354:	e5 e5       	ldi	r30, 0x55	; 85
    1356:	f0 e0       	ldi	r31, 0x00	; 0
    1358:	80 81       	ld	r24, Z
    135a:	82 60       	ori	r24, 0x02	; 2
    135c:	80 83       	st	Z, r24
MCUCR &=~_BV(ISC00);			//по спаду импульса
    135e:	80 81       	ld	r24, Z
    1360:	8e 7f       	andi	r24, 0xFE	; 254
    1362:	80 83       	st	Z, r24
GICR |=_BV(INT0); 				//Разрешаем внешние прерывания на INT0
    1364:	eb e5       	ldi	r30, 0x5B	; 91
    1366:	f0 e0       	ldi	r31, 0x00	; 0
    1368:	80 81       	ld	r24, Z
    136a:	80 64       	ori	r24, 0x40	; 64
    136c:	80 83       	st	Z, r24

}
    136e:	08 95       	ret

00001370 <set_buffer_bit>:

void set_buffer_bit(uint8_t index, bool value){	//Задаем значение биту в буфере ИК-приемника
uint8_t byte_index;
uint8_t bit_index;
byte_index = index/8; //Определяем, в каком байте нахадится нужный бит
bit_index = index - (byte_index*8);//Определяем номер бита в байте
    1370:	98 2f       	mov	r25, r24
    1372:	96 95       	lsr	r25
    1374:	96 95       	lsr	r25
    1376:	96 95       	lsr	r25
    1378:	e9 2f       	mov	r30, r25
    137a:	f0 e0       	ldi	r31, 0x00	; 0
    137c:	9f 01       	movw	r18, r30
    137e:	22 0f       	add	r18, r18
    1380:	33 1f       	adc	r19, r19
    1382:	22 0f       	add	r18, r18
    1384:	33 1f       	adc	r19, r19
    1386:	22 0f       	add	r18, r18
    1388:	33 1f       	adc	r19, r19
    138a:	82 1b       	sub	r24, r18
if(value) 
    138c:	66 23       	and	r22, r22
    138e:	89 f0       	breq	.+34     	; 0x13b2 <set_buffer_bit+0x42>
		{
			rx_buffer[byte_index] |= (1<<(7-bit_index));
    1390:	e0 5d       	subi	r30, 0xD0	; 208
    1392:	fc 4f       	sbci	r31, 0xFC	; 252
    1394:	40 81       	ld	r20, Z
    1396:	27 e0       	ldi	r18, 0x07	; 7
    1398:	30 e0       	ldi	r19, 0x00	; 0
    139a:	28 1b       	sub	r18, r24
    139c:	31 09       	sbc	r19, r1
    139e:	81 e0       	ldi	r24, 0x01	; 1
    13a0:	90 e0       	ldi	r25, 0x00	; 0
    13a2:	02 c0       	rjmp	.+4      	; 0x13a8 <set_buffer_bit+0x38>
    13a4:	88 0f       	add	r24, r24
    13a6:	99 1f       	adc	r25, r25
    13a8:	2a 95       	dec	r18
    13aa:	e2 f7       	brpl	.-8      	; 0x13a4 <set_buffer_bit+0x34>
    13ac:	48 2b       	or	r20, r24
    13ae:	40 83       	st	Z, r20
    13b0:	08 95       	ret
		}
else	{
			rx_buffer[byte_index] &= ~(1<<(7-bit_index));
    13b2:	e0 5d       	subi	r30, 0xD0	; 208
    13b4:	fc 4f       	sbci	r31, 0xFC	; 252
    13b6:	40 81       	ld	r20, Z
    13b8:	27 e0       	ldi	r18, 0x07	; 7
    13ba:	30 e0       	ldi	r19, 0x00	; 0
    13bc:	28 1b       	sub	r18, r24
    13be:	31 09       	sbc	r19, r1
    13c0:	81 e0       	ldi	r24, 0x01	; 1
    13c2:	90 e0       	ldi	r25, 0x00	; 0
    13c4:	02 c0       	rjmp	.+4      	; 0x13ca <set_buffer_bit+0x5a>
    13c6:	88 0f       	add	r24, r24
    13c8:	99 1f       	adc	r25, r25
    13ca:	2a 95       	dec	r18
    13cc:	e2 f7       	brpl	.-8      	; 0x13c6 <set_buffer_bit+0x56>
    13ce:	80 95       	com	r24
    13d0:	84 23       	and	r24, r20
    13d2:	80 83       	st	Z, r24
    13d4:	08 95       	ret

000013d6 <send_ir_package>:
***************************************************************************************/


void send_ir_package(void){ //Отправляем пакет ("стреляем")
//ir_pulse_counter=IR_START;
cursor_position = 0; 		//Курсор - на начало блока данных
    13d6:	10 92 85 03 	sts	0x0385, r1
ir_transmitter_on = true;	//Разрешаем передачу
    13da:	81 e0       	ldi	r24, 0x01	; 1
    13dc:	80 93 0a 03 	sts	0x030A, r24
TIMSK |= _BV(OCIE2);          // Разрешаем прерывания по захвату/сравнению
    13e0:	e9 e5       	ldi	r30, 0x59	; 89
    13e2:	f0 e0       	ldi	r31, 0x00	; 0
    13e4:	80 81       	ld	r24, Z
    13e6:	80 68       	ori	r24, 0x80	; 128
    13e8:	80 83       	st	Z, r24
FIRE_LED_ON;
    13ea:	e5 e3       	ldi	r30, 0x35	; 53
    13ec:	f0 e0       	ldi	r31, 0x00	; 0
    13ee:	80 81       	ld	r24, Z
    13f0:	80 62       	ori	r24, 0x20	; 32
    13f2:	80 83       	st	Z, r24


//while (ir_transmitter_on);	//Ждем, пока пакет отправиться
}
    13f4:	08 95       	ret

000013f6 <set_player_id>:
* Установка идентификатора игрока
* в качестве аргумента функции указывается идентификационный номер игрока (от 1 до 127)
* в результате выполнения функции в глобальной переменной data_packet.player_id
* будут соответствующим образом инициированы  data_packet.player_id.(bit_0 ... bit_7) 
***************************************************************************************/
void set_player_id(uint8_t ID){
    13f6:	ed e4       	ldi	r30, 0x4D	; 77
    13f8:	f3 e0       	ldi	r31, 0x03	; 3
    13fa:	20 e0       	ldi	r18, 0x00	; 0
    13fc:	30 e0       	ldi	r19, 0x00	; 0
	{
		*p_id_bit++ = IR_ONE; 				//присваиваем соответствующее значение  data_packet.player_id.bit_x
	}
else 
	{
		*p_id_bit++ = IR_ZERO; 
    13fe:	43 e4       	ldi	r20, 0x43	; 67
    1400:	50 e0       	ldi	r21, 0x00	; 0
p_id_bit = &data_packet.packet.player_id.bit_6; 	//указывает на 6 "бит" структуры 
for (int i=0; i < 7; i++) { 				//надо узнать значения 7 младших бит ID
ID = ID << 1; 								//сдвигаем влево на один бит
if (ID&(1<<7)) 								//если старший бит = 1
	{
		*p_id_bit++ = IR_ONE; 				//присваиваем соответствующее значение  data_packet.player_id.bit_x
    1402:	66 e8       	ldi	r22, 0x86	; 134
    1404:	70 e0       	ldi	r23, 0x00	; 0
void set_player_id(uint8_t ID){

uint16_t *p_id_bit; 							//указатель на биты структуры player_id
p_id_bit = &data_packet.packet.player_id.bit_6; 	//указывает на 6 "бит" структуры 
for (int i=0; i < 7; i++) { 				//надо узнать значения 7 младших бит ID
ID = ID << 1; 								//сдвигаем влево на один бит
    1406:	88 0f       	add	r24, r24
if (ID&(1<<7)) 								//если старший бит = 1
    1408:	1a f4       	brpl	.+6      	; 0x1410 <set_player_id+0x1a>
	{
		*p_id_bit++ = IR_ONE; 				//присваиваем соответствующее значение  data_packet.player_id.bit_x
    140a:	61 93       	st	Z+, r22
    140c:	71 93       	st	Z+, r23
    140e:	02 c0       	rjmp	.+4      	; 0x1414 <set_player_id+0x1e>
	}
else 
	{
		*p_id_bit++ = IR_ZERO; 
    1410:	41 93       	st	Z+, r20
    1412:	51 93       	st	Z+, r21
***************************************************************************************/
void set_player_id(uint8_t ID){

uint16_t *p_id_bit; 							//указатель на биты структуры player_id
p_id_bit = &data_packet.packet.player_id.bit_6; 	//указывает на 6 "бит" структуры 
for (int i=0; i < 7; i++) { 				//надо узнать значения 7 младших бит ID
    1414:	2f 5f       	subi	r18, 0xFF	; 255
    1416:	3f 4f       	sbci	r19, 0xFF	; 255
    1418:	27 30       	cpi	r18, 0x07	; 7
    141a:	31 05       	cpc	r19, r1
    141c:	a1 f7       	brne	.-24     	; 0x1406 <set_player_id+0x10>
		*p_id_bit++ = IR_ZERO; 
	}

}

data_packet.packet.player_id.bit_7 = IR_ZERO; //согласно протоколу, этот "бит" должен быть равен 0 
    141e:	83 e4       	ldi	r24, 0x43	; 67
    1420:	90 e0       	ldi	r25, 0x00	; 0
    1422:	90 93 4c 03 	sts	0x034C, r25
    1426:	80 93 4b 03 	sts	0x034B, r24

}
    142a:	08 95       	ret

0000142c <set_team_color>:
***************************************************************************************/



void set_team_color(tteam_color  color){
switch(color){
    142c:	81 30       	cpi	r24, 0x01	; 1
    142e:	89 f0       	breq	.+34     	; 0x1452 <set_team_color+0x26>
    1430:	81 30       	cpi	r24, 0x01	; 1
    1432:	28 f0       	brcs	.+10     	; 0x143e <set_team_color+0x12>
    1434:	82 30       	cpi	r24, 0x02	; 2
    1436:	c9 f0       	breq	.+50     	; 0x146a <set_team_color+0x3e>
    1438:	83 30       	cpi	r24, 0x03	; 3
    143a:	61 f5       	brne	.+88     	; 0x1494 <set_team_color+0x68>
    143c:	22 c0       	rjmp	.+68     	; 0x1482 <set_team_color+0x56>

		case Red : { //По протоколу 00 = Red
						data_packet.packet.team_id.bit_0 = IR_ZERO;
    143e:	ed e5       	ldi	r30, 0x5D	; 93
    1440:	f3 e0       	ldi	r31, 0x03	; 3
    1442:	83 e4       	ldi	r24, 0x43	; 67
    1444:	90 e0       	ldi	r25, 0x00	; 0
    1446:	91 83       	std	Z+1, r25	; 0x01
    1448:	80 83       	st	Z, r24
						data_packet.packet.team_id.bit_1 = IR_ZERO;
    144a:	32 97       	sbiw	r30, 0x02	; 2
    144c:	91 83       	std	Z+1, r25	; 0x01
    144e:	80 83       	st	Z, r24
    1450:	08 95       	ret
						break;	
					}
		case Blue: { //По протоколу 01 = Blue
						data_packet.packet.team_id.bit_0 = IR_ONE;
    1452:	ed e5       	ldi	r30, 0x5D	; 93
    1454:	f3 e0       	ldi	r31, 0x03	; 3
    1456:	86 e8       	ldi	r24, 0x86	; 134
    1458:	90 e0       	ldi	r25, 0x00	; 0
    145a:	91 83       	std	Z+1, r25	; 0x01
    145c:	80 83       	st	Z, r24
						data_packet.packet.team_id.bit_1 = IR_ZERO;
    145e:	32 97       	sbiw	r30, 0x02	; 2
    1460:	83 e4       	ldi	r24, 0x43	; 67
    1462:	90 e0       	ldi	r25, 0x00	; 0
    1464:	91 83       	std	Z+1, r25	; 0x01
    1466:	80 83       	st	Z, r24
    1468:	08 95       	ret
						break;	
					}
		case Yellow: { //По протоколу 10 = Yellow
						data_packet.packet.team_id.bit_0 = IR_ZERO;
    146a:	ed e5       	ldi	r30, 0x5D	; 93
    146c:	f3 e0       	ldi	r31, 0x03	; 3
    146e:	83 e4       	ldi	r24, 0x43	; 67
    1470:	90 e0       	ldi	r25, 0x00	; 0
    1472:	91 83       	std	Z+1, r25	; 0x01
    1474:	80 83       	st	Z, r24
						data_packet.packet.team_id.bit_1 = IR_ONE;
    1476:	32 97       	sbiw	r30, 0x02	; 2
    1478:	86 e8       	ldi	r24, 0x86	; 134
    147a:	90 e0       	ldi	r25, 0x00	; 0
    147c:	91 83       	std	Z+1, r25	; 0x01
    147e:	80 83       	st	Z, r24
    1480:	08 95       	ret
						break;	
					}
		case Green: { //По протоколу 11 = Green
						data_packet.packet.team_id.bit_0 = IR_ONE;
    1482:	ed e5       	ldi	r30, 0x5D	; 93
    1484:	f3 e0       	ldi	r31, 0x03	; 3
    1486:	86 e8       	ldi	r24, 0x86	; 134
    1488:	90 e0       	ldi	r25, 0x00	; 0
    148a:	91 83       	std	Z+1, r25	; 0x01
    148c:	80 83       	st	Z, r24
						data_packet.packet.team_id.bit_1 = IR_ONE;
    148e:	32 97       	sbiw	r30, 0x02	; 2
    1490:	91 83       	std	Z+1, r25	; 0x01
    1492:	80 83       	st	Z, r24
    1494:	08 95       	ret

00001496 <set_gun_damage>:
***************************************************************************************/


void set_gun_damage(tgun_damage damage){

switch(damage){
    1496:	87 30       	cpi	r24, 0x07	; 7
    1498:	09 f4       	brne	.+2      	; 0x149c <set_gun_damage+0x6>
    149a:	c5 c0       	rjmp	.+394    	; 0x1626 <set_gun_damage+0x190>
    149c:	88 30       	cpi	r24, 0x08	; 8
    149e:	90 f4       	brcc	.+36     	; 0x14c4 <set_gun_damage+0x2e>
    14a0:	83 30       	cpi	r24, 0x03	; 3
    14a2:	09 f4       	brne	.+2      	; 0x14a6 <set_gun_damage+0x10>
    14a4:	68 c0       	rjmp	.+208    	; 0x1576 <set_gun_damage+0xe0>
    14a6:	84 30       	cpi	r24, 0x04	; 4
    14a8:	30 f4       	brcc	.+12     	; 0x14b6 <set_gun_damage+0x20>
    14aa:	81 30       	cpi	r24, 0x01	; 1
    14ac:	c1 f1       	breq	.+112    	; 0x151e <set_gun_damage+0x88>
    14ae:	82 30       	cpi	r24, 0x02	; 2
    14b0:	08 f0       	brcs	.+2      	; 0x14b4 <set_gun_damage+0x1e>
    14b2:	4b c0       	rjmp	.+150    	; 0x154a <set_gun_damage+0xb4>
    14b4:	20 c0       	rjmp	.+64     	; 0x14f6 <set_gun_damage+0x60>
    14b6:	85 30       	cpi	r24, 0x05	; 5
    14b8:	09 f4       	brne	.+2      	; 0x14bc <set_gun_damage+0x26>
    14ba:	89 c0       	rjmp	.+274    	; 0x15ce <set_gun_damage+0x138>
    14bc:	86 30       	cpi	r24, 0x06	; 6
    14be:	08 f0       	brcs	.+2      	; 0x14c2 <set_gun_damage+0x2c>
    14c0:	9c c0       	rjmp	.+312    	; 0x15fa <set_gun_damage+0x164>
    14c2:	6f c0       	rjmp	.+222    	; 0x15a2 <set_gun_damage+0x10c>
    14c4:	8b 30       	cpi	r24, 0x0B	; 11
    14c6:	09 f4       	brne	.+2      	; 0x14ca <set_gun_damage+0x34>
    14c8:	06 c1       	rjmp	.+524    	; 0x16d6 <set_gun_damage+0x240>
    14ca:	8c 30       	cpi	r24, 0x0C	; 12
    14cc:	38 f4       	brcc	.+14     	; 0x14dc <set_gun_damage+0x46>
    14ce:	89 30       	cpi	r24, 0x09	; 9
    14d0:	09 f4       	brne	.+2      	; 0x14d4 <set_gun_damage+0x3e>
    14d2:	d5 c0       	rjmp	.+426    	; 0x167e <set_gun_damage+0x1e8>
    14d4:	8a 30       	cpi	r24, 0x0A	; 10
    14d6:	08 f0       	brcs	.+2      	; 0x14da <set_gun_damage+0x44>
    14d8:	e8 c0       	rjmp	.+464    	; 0x16aa <set_gun_damage+0x214>
    14da:	bb c0       	rjmp	.+374    	; 0x1652 <set_gun_damage+0x1bc>
    14dc:	8d 30       	cpi	r24, 0x0D	; 13
    14de:	09 f4       	brne	.+2      	; 0x14e2 <set_gun_damage+0x4c>
    14e0:	26 c1       	rjmp	.+588    	; 0x172e <set_gun_damage+0x298>
    14e2:	8d 30       	cpi	r24, 0x0D	; 13
    14e4:	08 f4       	brcc	.+2      	; 0x14e8 <set_gun_damage+0x52>
    14e6:	0d c1       	rjmp	.+538    	; 0x1702 <set_gun_damage+0x26c>
    14e8:	8e 30       	cpi	r24, 0x0E	; 14
    14ea:	09 f4       	brne	.+2      	; 0x14ee <set_gun_damage+0x58>
    14ec:	36 c1       	rjmp	.+620    	; 0x175a <set_gun_damage+0x2c4>
    14ee:	8f 30       	cpi	r24, 0x0F	; 15
    14f0:	09 f0       	breq	.+2      	; 0x14f4 <set_gun_damage+0x5e>
    14f2:	5c c1       	rjmp	.+696    	; 0x17ac <set_gun_damage+0x316>
    14f4:	48 c1       	rjmp	.+656    	; 0x1786 <set_gun_damage+0x2f0>
		case Damage_1:{  //По протоколу 0000 = 1
						data_packet.packet.damage.bit_0 = IR_ZERO;
    14f6:	a5 e6       	ldi	r26, 0x65	; 101
    14f8:	b3 e0       	ldi	r27, 0x03	; 3
    14fa:	83 e4       	ldi	r24, 0x43	; 67
    14fc:	90 e0       	ldi	r25, 0x00	; 0
    14fe:	11 96       	adiw	r26, 0x01	; 1
    1500:	9c 93       	st	X, r25
    1502:	8e 93       	st	-X, r24
						data_packet.packet.damage.bit_1 = IR_ZERO;
    1504:	fd 01       	movw	r30, r26
    1506:	32 97       	sbiw	r30, 0x02	; 2
    1508:	91 83       	std	Z+1, r25	; 0x01
    150a:	80 83       	st	Z, r24
						data_packet.packet.damage.bit_2 = IR_ZERO;
    150c:	fd 01       	movw	r30, r26
    150e:	34 97       	sbiw	r30, 0x04	; 4
    1510:	91 83       	std	Z+1, r25	; 0x01
    1512:	80 83       	st	Z, r24
						data_packet.packet.damage.bit_3 = IR_ZERO;
    1514:	16 97       	sbiw	r26, 0x06	; 6
    1516:	11 96       	adiw	r26, 0x01	; 1
    1518:	9c 93       	st	X, r25
    151a:	8e 93       	st	-X, r24
    151c:	08 95       	ret
						break;
						}
		case Damage_2:{  //По протоколу 0001 = 2
						data_packet.packet.damage.bit_0 = IR_ONE;
    151e:	a5 e6       	ldi	r26, 0x65	; 101
    1520:	b3 e0       	ldi	r27, 0x03	; 3
    1522:	86 e8       	ldi	r24, 0x86	; 134
    1524:	90 e0       	ldi	r25, 0x00	; 0
    1526:	11 96       	adiw	r26, 0x01	; 1
    1528:	9c 93       	st	X, r25
    152a:	8e 93       	st	-X, r24
						data_packet.packet.damage.bit_1 = IR_ZERO;
    152c:	fd 01       	movw	r30, r26
    152e:	32 97       	sbiw	r30, 0x02	; 2
    1530:	83 e4       	ldi	r24, 0x43	; 67
    1532:	90 e0       	ldi	r25, 0x00	; 0
    1534:	91 83       	std	Z+1, r25	; 0x01
    1536:	80 83       	st	Z, r24
						data_packet.packet.damage.bit_2 = IR_ZERO;
    1538:	fd 01       	movw	r30, r26
    153a:	34 97       	sbiw	r30, 0x04	; 4
    153c:	91 83       	std	Z+1, r25	; 0x01
    153e:	80 83       	st	Z, r24
						data_packet.packet.damage.bit_3 = IR_ZERO;
    1540:	16 97       	sbiw	r26, 0x06	; 6
    1542:	11 96       	adiw	r26, 0x01	; 1
    1544:	9c 93       	st	X, r25
    1546:	8e 93       	st	-X, r24
    1548:	08 95       	ret
						break;
						}

		case Damage_4:{  //По протоколу 0010 = 4
						data_packet.packet.damage.bit_0 = IR_ZERO;
    154a:	a5 e6       	ldi	r26, 0x65	; 101
    154c:	b3 e0       	ldi	r27, 0x03	; 3
    154e:	23 e4       	ldi	r18, 0x43	; 67
    1550:	30 e0       	ldi	r19, 0x00	; 0
    1552:	11 96       	adiw	r26, 0x01	; 1
    1554:	3c 93       	st	X, r19
    1556:	2e 93       	st	-X, r18
						data_packet.packet.damage.bit_1 = IR_ONE;
    1558:	fd 01       	movw	r30, r26
    155a:	32 97       	sbiw	r30, 0x02	; 2
    155c:	86 e8       	ldi	r24, 0x86	; 134
    155e:	90 e0       	ldi	r25, 0x00	; 0
    1560:	91 83       	std	Z+1, r25	; 0x01
    1562:	80 83       	st	Z, r24
						data_packet.packet.damage.bit_2 = IR_ZERO;
    1564:	fd 01       	movw	r30, r26
    1566:	34 97       	sbiw	r30, 0x04	; 4
    1568:	31 83       	std	Z+1, r19	; 0x01
    156a:	20 83       	st	Z, r18
						data_packet.packet.damage.bit_3 = IR_ZERO;
    156c:	16 97       	sbiw	r26, 0x06	; 6
    156e:	11 96       	adiw	r26, 0x01	; 1
    1570:	3c 93       	st	X, r19
    1572:	2e 93       	st	-X, r18
    1574:	08 95       	ret
						break;
						}

		case Damage_5:{  //По протоколу 0011 = 5
						data_packet.packet.damage.bit_0 = IR_ONE;
    1576:	a5 e6       	ldi	r26, 0x65	; 101
    1578:	b3 e0       	ldi	r27, 0x03	; 3
    157a:	86 e8       	ldi	r24, 0x86	; 134
    157c:	90 e0       	ldi	r25, 0x00	; 0
    157e:	11 96       	adiw	r26, 0x01	; 1
    1580:	9c 93       	st	X, r25
    1582:	8e 93       	st	-X, r24
						data_packet.packet.damage.bit_1 = IR_ONE;
    1584:	fd 01       	movw	r30, r26
    1586:	32 97       	sbiw	r30, 0x02	; 2
    1588:	91 83       	std	Z+1, r25	; 0x01
    158a:	80 83       	st	Z, r24
						data_packet.packet.damage.bit_2 = IR_ZERO;
    158c:	fd 01       	movw	r30, r26
    158e:	34 97       	sbiw	r30, 0x04	; 4
    1590:	83 e4       	ldi	r24, 0x43	; 67
    1592:	90 e0       	ldi	r25, 0x00	; 0
    1594:	91 83       	std	Z+1, r25	; 0x01
    1596:	80 83       	st	Z, r24
						data_packet.packet.damage.bit_3 = IR_ZERO;
    1598:	16 97       	sbiw	r26, 0x06	; 6
    159a:	11 96       	adiw	r26, 0x01	; 1
    159c:	9c 93       	st	X, r25
    159e:	8e 93       	st	-X, r24
    15a0:	08 95       	ret
						break;
						}
		case Damage_7:{  //По протоколу 0100 = 7
						data_packet.packet.damage.bit_0 = IR_ZERO;
    15a2:	a5 e6       	ldi	r26, 0x65	; 101
    15a4:	b3 e0       	ldi	r27, 0x03	; 3
    15a6:	23 e4       	ldi	r18, 0x43	; 67
    15a8:	30 e0       	ldi	r19, 0x00	; 0
    15aa:	11 96       	adiw	r26, 0x01	; 1
    15ac:	3c 93       	st	X, r19
    15ae:	2e 93       	st	-X, r18
						data_packet.packet.damage.bit_1 = IR_ZERO;
    15b0:	fd 01       	movw	r30, r26
    15b2:	32 97       	sbiw	r30, 0x02	; 2
    15b4:	31 83       	std	Z+1, r19	; 0x01
    15b6:	20 83       	st	Z, r18
						data_packet.packet.damage.bit_2 = IR_ONE;
    15b8:	fd 01       	movw	r30, r26
    15ba:	34 97       	sbiw	r30, 0x04	; 4
    15bc:	86 e8       	ldi	r24, 0x86	; 134
    15be:	90 e0       	ldi	r25, 0x00	; 0
    15c0:	91 83       	std	Z+1, r25	; 0x01
    15c2:	80 83       	st	Z, r24
						data_packet.packet.damage.bit_3 = IR_ZERO;
    15c4:	16 97       	sbiw	r26, 0x06	; 6
    15c6:	11 96       	adiw	r26, 0x01	; 1
    15c8:	3c 93       	st	X, r19
    15ca:	2e 93       	st	-X, r18
    15cc:	08 95       	ret
						break;
						}
		case Damage_10:{  //По протоколу 0101 = 10
						data_packet.packet.damage.bit_0 = IR_ONE;
    15ce:	a5 e6       	ldi	r26, 0x65	; 101
    15d0:	b3 e0       	ldi	r27, 0x03	; 3
    15d2:	26 e8       	ldi	r18, 0x86	; 134
    15d4:	30 e0       	ldi	r19, 0x00	; 0
    15d6:	11 96       	adiw	r26, 0x01	; 1
    15d8:	3c 93       	st	X, r19
    15da:	2e 93       	st	-X, r18
						data_packet.packet.damage.bit_1 = IR_ZERO;
    15dc:	fd 01       	movw	r30, r26
    15de:	32 97       	sbiw	r30, 0x02	; 2
    15e0:	83 e4       	ldi	r24, 0x43	; 67
    15e2:	90 e0       	ldi	r25, 0x00	; 0
    15e4:	91 83       	std	Z+1, r25	; 0x01
    15e6:	80 83       	st	Z, r24
						data_packet.packet.damage.bit_2 = IR_ONE;
    15e8:	fd 01       	movw	r30, r26
    15ea:	34 97       	sbiw	r30, 0x04	; 4
    15ec:	31 83       	std	Z+1, r19	; 0x01
    15ee:	20 83       	st	Z, r18
						data_packet.packet.damage.bit_3 = IR_ZERO;
    15f0:	16 97       	sbiw	r26, 0x06	; 6
    15f2:	11 96       	adiw	r26, 0x01	; 1
    15f4:	9c 93       	st	X, r25
    15f6:	8e 93       	st	-X, r24
    15f8:	08 95       	ret
						break;
						}
		case Damage_15:{  //По протоколу 0110 = 15
						data_packet.packet.damage.bit_0 = IR_ZERO;
    15fa:	a5 e6       	ldi	r26, 0x65	; 101
    15fc:	b3 e0       	ldi	r27, 0x03	; 3
    15fe:	23 e4       	ldi	r18, 0x43	; 67
    1600:	30 e0       	ldi	r19, 0x00	; 0
    1602:	11 96       	adiw	r26, 0x01	; 1
    1604:	3c 93       	st	X, r19
    1606:	2e 93       	st	-X, r18
						data_packet.packet.damage.bit_1 = IR_ONE;
    1608:	fd 01       	movw	r30, r26
    160a:	32 97       	sbiw	r30, 0x02	; 2
    160c:	86 e8       	ldi	r24, 0x86	; 134
    160e:	90 e0       	ldi	r25, 0x00	; 0
    1610:	91 83       	std	Z+1, r25	; 0x01
    1612:	80 83       	st	Z, r24
						data_packet.packet.damage.bit_2 = IR_ONE;
    1614:	fd 01       	movw	r30, r26
    1616:	34 97       	sbiw	r30, 0x04	; 4
    1618:	91 83       	std	Z+1, r25	; 0x01
    161a:	80 83       	st	Z, r24
						data_packet.packet.damage.bit_3 = IR_ZERO;
    161c:	16 97       	sbiw	r26, 0x06	; 6
    161e:	11 96       	adiw	r26, 0x01	; 1
    1620:	3c 93       	st	X, r19
    1622:	2e 93       	st	-X, r18
    1624:	08 95       	ret
						break;
						}
		case Damage_17:{  //По протоколу 0111 = 17
						data_packet.packet.damage.bit_0 = IR_ONE;
    1626:	a5 e6       	ldi	r26, 0x65	; 101
    1628:	b3 e0       	ldi	r27, 0x03	; 3
    162a:	86 e8       	ldi	r24, 0x86	; 134
    162c:	90 e0       	ldi	r25, 0x00	; 0
    162e:	11 96       	adiw	r26, 0x01	; 1
    1630:	9c 93       	st	X, r25
    1632:	8e 93       	st	-X, r24
						data_packet.packet.damage.bit_1 = IR_ONE;
    1634:	fd 01       	movw	r30, r26
    1636:	32 97       	sbiw	r30, 0x02	; 2
    1638:	91 83       	std	Z+1, r25	; 0x01
    163a:	80 83       	st	Z, r24
						data_packet.packet.damage.bit_2 = IR_ONE;
    163c:	fd 01       	movw	r30, r26
    163e:	34 97       	sbiw	r30, 0x04	; 4
    1640:	91 83       	std	Z+1, r25	; 0x01
    1642:	80 83       	st	Z, r24
						data_packet.packet.damage.bit_3 = IR_ZERO;
    1644:	16 97       	sbiw	r26, 0x06	; 6
    1646:	83 e4       	ldi	r24, 0x43	; 67
    1648:	90 e0       	ldi	r25, 0x00	; 0
    164a:	11 96       	adiw	r26, 0x01	; 1
    164c:	9c 93       	st	X, r25
    164e:	8e 93       	st	-X, r24
    1650:	08 95       	ret
						break;
						}
		case Damage_20:{  //По протоколу 1000 = 20
						data_packet.packet.damage.bit_0 = IR_ZERO;
    1652:	a5 e6       	ldi	r26, 0x65	; 101
    1654:	b3 e0       	ldi	r27, 0x03	; 3
    1656:	83 e4       	ldi	r24, 0x43	; 67
    1658:	90 e0       	ldi	r25, 0x00	; 0
    165a:	11 96       	adiw	r26, 0x01	; 1
    165c:	9c 93       	st	X, r25
    165e:	8e 93       	st	-X, r24
						data_packet.packet.damage.bit_1 = IR_ZERO;
    1660:	fd 01       	movw	r30, r26
    1662:	32 97       	sbiw	r30, 0x02	; 2
    1664:	91 83       	std	Z+1, r25	; 0x01
    1666:	80 83       	st	Z, r24
						data_packet.packet.damage.bit_2 = IR_ZERO;
    1668:	fd 01       	movw	r30, r26
    166a:	34 97       	sbiw	r30, 0x04	; 4
    166c:	91 83       	std	Z+1, r25	; 0x01
    166e:	80 83       	st	Z, r24
						data_packet.packet.damage.bit_3 = IR_ONE;
    1670:	16 97       	sbiw	r26, 0x06	; 6
    1672:	86 e8       	ldi	r24, 0x86	; 134
    1674:	90 e0       	ldi	r25, 0x00	; 0
    1676:	11 96       	adiw	r26, 0x01	; 1
    1678:	9c 93       	st	X, r25
    167a:	8e 93       	st	-X, r24
    167c:	08 95       	ret
						break;
						}

		case Damage_25:{  //По протоколу 1001 = 25
						data_packet.packet.damage.bit_0 = IR_ONE;
    167e:	a5 e6       	ldi	r26, 0x65	; 101
    1680:	b3 e0       	ldi	r27, 0x03	; 3
    1682:	26 e8       	ldi	r18, 0x86	; 134
    1684:	30 e0       	ldi	r19, 0x00	; 0
    1686:	11 96       	adiw	r26, 0x01	; 1
    1688:	3c 93       	st	X, r19
    168a:	2e 93       	st	-X, r18
						data_packet.packet.damage.bit_1 = IR_ZERO;
    168c:	fd 01       	movw	r30, r26
    168e:	32 97       	sbiw	r30, 0x02	; 2
    1690:	83 e4       	ldi	r24, 0x43	; 67
    1692:	90 e0       	ldi	r25, 0x00	; 0
    1694:	91 83       	std	Z+1, r25	; 0x01
    1696:	80 83       	st	Z, r24
						data_packet.packet.damage.bit_2 = IR_ZERO;
    1698:	fd 01       	movw	r30, r26
    169a:	34 97       	sbiw	r30, 0x04	; 4
    169c:	91 83       	std	Z+1, r25	; 0x01
    169e:	80 83       	st	Z, r24
						data_packet.packet.damage.bit_3 = IR_ONE;
    16a0:	16 97       	sbiw	r26, 0x06	; 6
    16a2:	11 96       	adiw	r26, 0x01	; 1
    16a4:	3c 93       	st	X, r19
    16a6:	2e 93       	st	-X, r18
    16a8:	08 95       	ret
						break;
						}

		case Damage_30:{  //По протоколу 1010 = 30
						data_packet.packet.damage.bit_0 = IR_ZERO;
    16aa:	a5 e6       	ldi	r26, 0x65	; 101
    16ac:	b3 e0       	ldi	r27, 0x03	; 3
    16ae:	23 e4       	ldi	r18, 0x43	; 67
    16b0:	30 e0       	ldi	r19, 0x00	; 0
    16b2:	11 96       	adiw	r26, 0x01	; 1
    16b4:	3c 93       	st	X, r19
    16b6:	2e 93       	st	-X, r18
						data_packet.packet.damage.bit_1 = IR_ONE;
    16b8:	fd 01       	movw	r30, r26
    16ba:	32 97       	sbiw	r30, 0x02	; 2
    16bc:	86 e8       	ldi	r24, 0x86	; 134
    16be:	90 e0       	ldi	r25, 0x00	; 0
    16c0:	91 83       	std	Z+1, r25	; 0x01
    16c2:	80 83       	st	Z, r24
						data_packet.packet.damage.bit_2 = IR_ZERO;
    16c4:	fd 01       	movw	r30, r26
    16c6:	34 97       	sbiw	r30, 0x04	; 4
    16c8:	31 83       	std	Z+1, r19	; 0x01
    16ca:	20 83       	st	Z, r18
						data_packet.packet.damage.bit_3 = IR_ONE;
    16cc:	16 97       	sbiw	r26, 0x06	; 6
    16ce:	11 96       	adiw	r26, 0x01	; 1
    16d0:	9c 93       	st	X, r25
    16d2:	8e 93       	st	-X, r24
    16d4:	08 95       	ret
						break;
						}
		case Damage_35:{  //По протоколу 1011 = 35
						data_packet.packet.damage.bit_0 = IR_ONE;
    16d6:	a5 e6       	ldi	r26, 0x65	; 101
    16d8:	b3 e0       	ldi	r27, 0x03	; 3
    16da:	26 e8       	ldi	r18, 0x86	; 134
    16dc:	30 e0       	ldi	r19, 0x00	; 0
    16de:	11 96       	adiw	r26, 0x01	; 1
    16e0:	3c 93       	st	X, r19
    16e2:	2e 93       	st	-X, r18
						data_packet.packet.damage.bit_1 = IR_ONE;
    16e4:	fd 01       	movw	r30, r26
    16e6:	32 97       	sbiw	r30, 0x02	; 2
    16e8:	31 83       	std	Z+1, r19	; 0x01
    16ea:	20 83       	st	Z, r18
						data_packet.packet.damage.bit_2 = IR_ZERO;
    16ec:	fd 01       	movw	r30, r26
    16ee:	34 97       	sbiw	r30, 0x04	; 4
    16f0:	83 e4       	ldi	r24, 0x43	; 67
    16f2:	90 e0       	ldi	r25, 0x00	; 0
    16f4:	91 83       	std	Z+1, r25	; 0x01
    16f6:	80 83       	st	Z, r24
						data_packet.packet.damage.bit_3 = IR_ONE;
    16f8:	16 97       	sbiw	r26, 0x06	; 6
    16fa:	11 96       	adiw	r26, 0x01	; 1
    16fc:	3c 93       	st	X, r19
    16fe:	2e 93       	st	-X, r18
    1700:	08 95       	ret
						break;
						}

		case Damage_40:{  //По протоколу 1100 = 40
						data_packet.packet.damage.bit_0 = IR_ZERO;
    1702:	a5 e6       	ldi	r26, 0x65	; 101
    1704:	b3 e0       	ldi	r27, 0x03	; 3
    1706:	83 e4       	ldi	r24, 0x43	; 67
    1708:	90 e0       	ldi	r25, 0x00	; 0
    170a:	11 96       	adiw	r26, 0x01	; 1
    170c:	9c 93       	st	X, r25
    170e:	8e 93       	st	-X, r24
						data_packet.packet.damage.bit_1 = IR_ZERO;
    1710:	fd 01       	movw	r30, r26
    1712:	32 97       	sbiw	r30, 0x02	; 2
    1714:	91 83       	std	Z+1, r25	; 0x01
    1716:	80 83       	st	Z, r24
						data_packet.packet.damage.bit_2 = IR_ONE;
    1718:	fd 01       	movw	r30, r26
    171a:	34 97       	sbiw	r30, 0x04	; 4
    171c:	86 e8       	ldi	r24, 0x86	; 134
    171e:	90 e0       	ldi	r25, 0x00	; 0
    1720:	91 83       	std	Z+1, r25	; 0x01
    1722:	80 83       	st	Z, r24
						data_packet.packet.damage.bit_3 = IR_ONE;
    1724:	16 97       	sbiw	r26, 0x06	; 6
    1726:	11 96       	adiw	r26, 0x01	; 1
    1728:	9c 93       	st	X, r25
    172a:	8e 93       	st	-X, r24
    172c:	08 95       	ret
						break;
						}

		case Damage_50:{  //По протоколу 1101 = 50
						data_packet.packet.damage.bit_0 = IR_ONE;
    172e:	a5 e6       	ldi	r26, 0x65	; 101
    1730:	b3 e0       	ldi	r27, 0x03	; 3
    1732:	26 e8       	ldi	r18, 0x86	; 134
    1734:	30 e0       	ldi	r19, 0x00	; 0
    1736:	11 96       	adiw	r26, 0x01	; 1
    1738:	3c 93       	st	X, r19
    173a:	2e 93       	st	-X, r18
						data_packet.packet.damage.bit_1 = IR_ZERO;
    173c:	fd 01       	movw	r30, r26
    173e:	32 97       	sbiw	r30, 0x02	; 2
    1740:	83 e4       	ldi	r24, 0x43	; 67
    1742:	90 e0       	ldi	r25, 0x00	; 0
    1744:	91 83       	std	Z+1, r25	; 0x01
    1746:	80 83       	st	Z, r24
						data_packet.packet.damage.bit_2 = IR_ONE;
    1748:	fd 01       	movw	r30, r26
    174a:	34 97       	sbiw	r30, 0x04	; 4
    174c:	31 83       	std	Z+1, r19	; 0x01
    174e:	20 83       	st	Z, r18
						data_packet.packet.damage.bit_3 = IR_ONE;
    1750:	16 97       	sbiw	r26, 0x06	; 6
    1752:	11 96       	adiw	r26, 0x01	; 1
    1754:	3c 93       	st	X, r19
    1756:	2e 93       	st	-X, r18
    1758:	08 95       	ret
						break;
						}
		case Damage_75:{  //По протоколу 1110 = 75
						data_packet.packet.damage.bit_0 = IR_ZERO;
    175a:	a5 e6       	ldi	r26, 0x65	; 101
    175c:	b3 e0       	ldi	r27, 0x03	; 3
    175e:	83 e4       	ldi	r24, 0x43	; 67
    1760:	90 e0       	ldi	r25, 0x00	; 0
    1762:	11 96       	adiw	r26, 0x01	; 1
    1764:	9c 93       	st	X, r25
    1766:	8e 93       	st	-X, r24
						data_packet.packet.damage.bit_1 = IR_ONE;
    1768:	fd 01       	movw	r30, r26
    176a:	32 97       	sbiw	r30, 0x02	; 2
    176c:	86 e8       	ldi	r24, 0x86	; 134
    176e:	90 e0       	ldi	r25, 0x00	; 0
    1770:	91 83       	std	Z+1, r25	; 0x01
    1772:	80 83       	st	Z, r24
						data_packet.packet.damage.bit_2 = IR_ONE;
    1774:	fd 01       	movw	r30, r26
    1776:	34 97       	sbiw	r30, 0x04	; 4
    1778:	91 83       	std	Z+1, r25	; 0x01
    177a:	80 83       	st	Z, r24
						data_packet.packet.damage.bit_3 = IR_ONE;
    177c:	16 97       	sbiw	r26, 0x06	; 6
    177e:	11 96       	adiw	r26, 0x01	; 1
    1780:	9c 93       	st	X, r25
    1782:	8e 93       	st	-X, r24
    1784:	08 95       	ret
						break;
						}

		case Damage_100:{  //По протоколу 1111 = 100
						data_packet.packet.damage.bit_0 = IR_ONE;
    1786:	a5 e6       	ldi	r26, 0x65	; 101
    1788:	b3 e0       	ldi	r27, 0x03	; 3
    178a:	86 e8       	ldi	r24, 0x86	; 134
    178c:	90 e0       	ldi	r25, 0x00	; 0
    178e:	11 96       	adiw	r26, 0x01	; 1
    1790:	9c 93       	st	X, r25
    1792:	8e 93       	st	-X, r24
						data_packet.packet.damage.bit_1 = IR_ONE;
    1794:	fd 01       	movw	r30, r26
    1796:	32 97       	sbiw	r30, 0x02	; 2
    1798:	91 83       	std	Z+1, r25	; 0x01
    179a:	80 83       	st	Z, r24
						data_packet.packet.damage.bit_2 = IR_ONE;
    179c:	fd 01       	movw	r30, r26
    179e:	34 97       	sbiw	r30, 0x04	; 4
    17a0:	91 83       	std	Z+1, r25	; 0x01
    17a2:	80 83       	st	Z, r24
						data_packet.packet.damage.bit_3 = IR_ONE;
    17a4:	16 97       	sbiw	r26, 0x06	; 6
    17a6:	11 96       	adiw	r26, 0x01	; 1
    17a8:	9c 93       	st	X, r25
    17aa:	8e 93       	st	-X, r24
    17ac:	08 95       	ret

000017ae <get_buffer_bit>:
}




bool get_buffer_bit(uint8_t index){		//Считываем значение бита в буфере ИК-приемника
    17ae:	48 2f       	mov	r20, r24
uint8_t byte_index;
uint8_t bit_index;
byte_index = index/8; //Определяем, в каком байте нахадится нужный бит
bit_index = index - (byte_index*8);//Определяем номер бита в байте
    17b0:	28 2f       	mov	r18, r24
    17b2:	26 95       	lsr	r18
    17b4:	26 95       	lsr	r18
    17b6:	26 95       	lsr	r18
    17b8:	30 e0       	ldi	r19, 0x00	; 0
if(rx_buffer[byte_index]&(1<<(7-bit_index))) return true;
    17ba:	f9 01       	movw	r30, r18
    17bc:	e0 5d       	subi	r30, 0xD0	; 208
    17be:	fc 4f       	sbci	r31, 0xFC	; 252
    17c0:	80 81       	ld	r24, Z
    17c2:	90 e0       	ldi	r25, 0x00	; 0
    17c4:	22 0f       	add	r18, r18
    17c6:	33 1f       	adc	r19, r19
    17c8:	22 0f       	add	r18, r18
    17ca:	33 1f       	adc	r19, r19
    17cc:	22 0f       	add	r18, r18
    17ce:	33 1f       	adc	r19, r19
    17d0:	42 1b       	sub	r20, r18
    17d2:	27 e0       	ldi	r18, 0x07	; 7
    17d4:	30 e0       	ldi	r19, 0x00	; 0
    17d6:	24 1b       	sub	r18, r20
    17d8:	31 09       	sbc	r19, r1
    17da:	02 c0       	rjmp	.+4      	; 0x17e0 <get_buffer_bit+0x32>
    17dc:	95 95       	asr	r25
    17de:	87 95       	ror	r24
    17e0:	2a 95       	dec	r18
    17e2:	e2 f7       	brpl	.-8      	; 0x17dc <get_buffer_bit+0x2e>
else return false;


}
    17e4:	81 70       	andi	r24, 0x01	; 1
    17e6:	08 95       	ret

000017e8 <init_timer0>:

void init_timer0(void){

//OCR0 = F_CPU/1024/100-1;		// Прерывания должны генерироваться с частотой 100 Гц

OCR0 = 128; //Скважность = 0,5
    17e8:	80 e8       	ldi	r24, 0x80	; 128
    17ea:	8c bf       	out	0x3c, r24	; 60
TCCR0 = _BV(WGM01)| _BV(WGM00);	// Режим работы таймер - fast PWM (быстрый ШИМ)
    17ec:	e3 e5       	ldi	r30, 0x53	; 83
    17ee:	f0 e0       	ldi	r31, 0x00	; 0
    17f0:	88 e4       	ldi	r24, 0x48	; 72
    17f2:	80 83       	st	Z, r24
TCCR0 |=  _BV(CS00);            // Тактирование с частотой резонвтора 8 МГц
    17f4:	80 81       	ld	r24, Z
    17f6:	81 60       	ori	r24, 0x01	; 1
    17f8:	80 83       	st	Z, r24
TCCR0 |=  _BV(COM01);    		//Неинвертированный режим ШИМ
    17fa:	80 81       	ld	r24, Z
    17fc:	80 62       	ori	r24, 0x20	; 32
    17fe:	80 83       	st	Z, r24


//TIMSK |= _BV(OCIE0);          // Разрешаем прерывания по захвату/сравнению
		                      // Разрешаем прерывания глобально

}
    1800:	08 95       	ret

00001802 <init_timer1>:
}



void init_timer1(void){ //Настраиваем timer1 на частоту выборки звука -8 
TCCR1A &=~_BV(WGM10); //режим работы таймера - CTC (сброс при совпадении)
    1802:	af e4       	ldi	r26, 0x4F	; 79
    1804:	b0 e0       	ldi	r27, 0x00	; 0
    1806:	8c 91       	ld	r24, X
    1808:	8e 7f       	andi	r24, 0xFE	; 254
    180a:	8c 93       	st	X, r24
TCCR1A &=~_BV(WGM11);
    180c:	8c 91       	ld	r24, X
    180e:	8d 7f       	andi	r24, 0xFD	; 253
    1810:	8c 93       	st	X, r24
TCCR1B |=_BV(WGM12); 
    1812:	ee e4       	ldi	r30, 0x4E	; 78
    1814:	f0 e0       	ldi	r31, 0x00	; 0
    1816:	80 81       	ld	r24, Z
    1818:	88 60       	ori	r24, 0x08	; 8
    181a:	80 83       	st	Z, r24
TCCR1B &=~_BV(WGM13); 
    181c:	80 81       	ld	r24, Z
    181e:	8f 7e       	andi	r24, 0xEF	; 239
    1820:	80 83       	st	Z, r24
TCCR1A &=~_BV(COM1A0);//отключаем таймер от вывода OC1A
    1822:	8c 91       	ld	r24, X
    1824:	8f 7b       	andi	r24, 0xBF	; 191
    1826:	8c 93       	st	X, r24
TCCR1A &=~_BV(COM1A1);
    1828:	8c 91       	ld	r24, X
    182a:	8f 77       	andi	r24, 0x7F	; 127
    182c:	8c 93       	st	X, r24
TCCR1B &=~_BV(COM1B0);//отключаем таймер от вывода OC1B
    182e:	80 81       	ld	r24, Z
    1830:	8f 7e       	andi	r24, 0xEF	; 239
    1832:	80 83       	st	Z, r24
TCCR1B &=~_BV(COM1B1);
    1834:	80 81       	ld	r24, Z
    1836:	8f 7d       	andi	r24, 0xDF	; 223
    1838:	80 83       	st	Z, r24

TCCR1B &=~_BV(CS10); //делитель = 8
    183a:	80 81       	ld	r24, Z
    183c:	8e 7f       	andi	r24, 0xFE	; 254
    183e:	80 83       	st	Z, r24
TCCR1B |=_BV(CS11);
    1840:	80 81       	ld	r24, Z
    1842:	82 60       	ori	r24, 0x02	; 2
    1844:	80 83       	st	Z, r24
TCCR1B &=~_BV(CS12); 
    1846:	80 81       	ld	r24, Z
    1848:	8b 7f       	andi	r24, 0xFB	; 251
    184a:	80 83       	st	Z, r24
//OCR1AL=60;
//OCR1AL=124;
OCR1AL=(F_CPU/8000)/8-1; // настраиваем на частоту выборки звука - 8 кГц
    184c:	89 ef       	ldi	r24, 0xF9	; 249
    184e:	8a bd       	out	0x2a, r24	; 42
//OCR1AL=248; 
//OCR1AH=0x27;
//OCR1AL=0x0F;


TIMSK |= _BV(OCIE1A);  
    1850:	e9 e5       	ldi	r30, 0x59	; 89
    1852:	f0 e0       	ldi	r31, 0x00	; 0
    1854:	80 81       	ld	r24, Z
    1856:	80 61       	ori	r24, 0x10	; 16
    1858:	80 83       	st	Z, r24
//TIMSK |= _BV(OCIE1B);  

}
    185a:	08 95       	ret

0000185c <display_life>:



void display_life(uint8_t life_value) //отображаем уровень жизни на светодиодной линейке
{
    185c:	98 2f       	mov	r25, r24

uint8_t integer_part;
	for (int i=0; i<4; i++)
	{life_leds_status[i] = OFF;}
    185e:	a0 e8       	ldi	r26, 0x80	; 128
    1860:	b3 e0       	ldi	r27, 0x03	; 3
    1862:	fd 01       	movw	r30, r26
    1864:	11 92       	st	Z+, r1
    1866:	10 82       	st	Z, r1
    1868:	fd 01       	movw	r30, r26
    186a:	32 96       	adiw	r30, 0x02	; 2
    186c:	10 82       	st	Z, r1
    186e:	13 96       	adiw	r26, 0x03	; 3
    1870:	1c 92       	st	X, r1

integer_part = life_value/2;
for (int i=0; i<integer_part; i++)
    1872:	86 95       	lsr	r24
    1874:	48 2f       	mov	r20, r24
    1876:	50 e0       	ldi	r21, 0x00	; 0
    1878:	14 16       	cp	r1, r20
    187a:	15 06       	cpc	r1, r21
    187c:	74 f4       	brge	.+28     	; 0x189a <display_life+0x3e>
    187e:	20 e0       	ldi	r18, 0x00	; 0
    1880:	30 e0       	ldi	r19, 0x00	; 0
{
	life_leds_status[i] = ON;
    1882:	60 e8       	ldi	r22, 0x80	; 128
    1884:	73 e0       	ldi	r23, 0x03	; 3
    1886:	8f ef       	ldi	r24, 0xFF	; 255
    1888:	fb 01       	movw	r30, r22
    188a:	e2 0f       	add	r30, r18
    188c:	f3 1f       	adc	r31, r19
    188e:	80 83       	st	Z, r24
uint8_t integer_part;
	for (int i=0; i<4; i++)
	{life_leds_status[i] = OFF;}

integer_part = life_value/2;
for (int i=0; i<integer_part; i++)
    1890:	2f 5f       	subi	r18, 0xFF	; 255
    1892:	3f 4f       	sbci	r19, 0xFF	; 255
    1894:	24 17       	cp	r18, r20
    1896:	35 07       	cpc	r19, r21
    1898:	bc f3       	brlt	.-18     	; 0x1888 <display_life+0x2c>
{
	life_leds_status[i] = ON;
}


if ((life_value-integer_part*2)>0) 
    189a:	9a 01       	movw	r18, r20
    189c:	22 0f       	add	r18, r18
    189e:	33 1f       	adc	r19, r19
    18a0:	89 2f       	mov	r24, r25
    18a2:	90 e0       	ldi	r25, 0x00	; 0
    18a4:	82 1b       	sub	r24, r18
    18a6:	93 0b       	sbc	r25, r19
    18a8:	18 16       	cp	r1, r24
    18aa:	19 06       	cpc	r1, r25
    18ac:	2c f4       	brge	.+10     	; 0x18b8 <display_life+0x5c>
 life_leds_status[integer_part] = FQR_2HZ;
    18ae:	fa 01       	movw	r30, r20
    18b0:	e0 58       	subi	r30, 0x80	; 128
    18b2:	fc 4f       	sbci	r31, 0xFC	; 252
    18b4:	8c ec       	ldi	r24, 0xCC	; 204
    18b6:	80 83       	st	Z, r24
    18b8:	08 95       	ret

000018ba <fire_mode>:


TFIRE_MODE_STATUS fire_mode()//Определяем текущий режим огня (одиночный/очередями)
{
TFIRE_MODE_STATUS result;
if (FIRE_MODE_KEY_IN&FIRE_MODE_KEY_PIN) result = single;
    18ba:	86 b3       	in	r24, 0x16	; 22
    18bc:	86 95       	lsr	r24
    18be:	80 95       	com	r24
else  result = queues;
return result;

}
    18c0:	81 70       	andi	r24, 0x01	; 1
    18c2:	08 95       	ret

000018c4 <beep>:




void beep(uint16_t fqr, uint16_t count, uint8_t value) //Воспроизводим звук (частота, длительность, громкость)
{
    18c4:	ef 92       	push	r14
    18c6:	ff 92       	push	r15
    18c8:	0f 93       	push	r16
    18ca:	1f 93       	push	r17
    18cc:	cf 93       	push	r28
    18ce:	df 93       	push	r29
    18d0:	fc 01       	movw	r30, r24
    18d2:	06 2f       	mov	r16, r22
    18d4:	f7 2e       	mov	r15, r23
    18d6:	14 2f       	mov	r17, r20
uint16_t last_simple_tmp;
uint8_t devider; //делитель, будет иметь значение, указывающее, на сколько нужно поделить частоту 8 кГц чтобы получить нужную (fqr)
uint16_t beep_counter; //длительность звука в циклах (один цикл равен периоду колибаний)

if (fqr > 4000) return; //если запрашиваемая частота выше 4 кГц то мы её воспроизвести не сможем, выходим
    18d8:	8f e0       	ldi	r24, 0x0F	; 15
    18da:	e1 3a       	cpi	r30, 0xA1	; 161
    18dc:	f8 07       	cpc	r31, r24
    18de:	08 f0       	brcs	.+2      	; 0x18e2 <beep+0x1e>
    18e0:	4e c0       	rjmp	.+156    	; 0x197e <beep+0xba>

last_simple_tmp = last_simple; //сохраним значение последнего семпла звука выстрела (вдруг звук воспроизводится в это время)
    18e2:	c0 91 6e 03 	lds	r28, 0x036E
    18e6:	d0 91 6f 03 	lds	r29, 0x036F
last_simple = 0xFFFF; //иначе будет звук выстрела
    18ea:	8f ef       	ldi	r24, 0xFF	; 255
    18ec:	9f ef       	ldi	r25, 0xFF	; 255
    18ee:	90 93 6f 03 	sts	0x036F, r25
    18f2:	80 93 6e 03 	sts	0x036E, r24


devider = 4000/fqr; 
    18f6:	80 ea       	ldi	r24, 0xA0	; 160
    18f8:	9f e0       	ldi	r25, 0x0F	; 15
    18fa:	bf 01       	movw	r22, r30
    18fc:	0e 94 0e 28 	call	0x501c	; 0x501c <__udivmodhi4>
    1900:	e6 2e       	mov	r14, r22
if (count > 160) count = 160; //ограничим время воспроизведения 16 секундами
beep_counter = (fqr/10)*count; //количество циклов (периодов колебаний)
    1902:	80 2f       	mov	r24, r16
    1904:	9f 2d       	mov	r25, r15
    1906:	9c 01       	movw	r18, r24
    1908:	21 3a       	cpi	r18, 0xA1	; 161
    190a:	31 05       	cpc	r19, r1
    190c:	10 f0       	brcs	.+4      	; 0x1912 <beep+0x4e>
    190e:	20 ea       	ldi	r18, 0xA0	; 160
    1910:	30 e0       	ldi	r19, 0x00	; 0
    1912:	cf 01       	movw	r24, r30
    1914:	6a e0       	ldi	r22, 0x0A	; 10
    1916:	70 e0       	ldi	r23, 0x00	; 0
    1918:	0e 94 0e 28 	call	0x501c	; 0x501c <__udivmodhi4>
    191c:	26 9f       	mul	r18, r22
    191e:	a0 01       	movw	r20, r0
    1920:	27 9f       	mul	r18, r23
    1922:	50 0d       	add	r21, r0
    1924:	36 9f       	mul	r19, r22
    1926:	50 0d       	add	r21, r0
    1928:	11 24       	eor	r1, r1

for (uint16_t i=0; i < beep_counter; i++)
    192a:	41 15       	cp	r20, r1
    192c:	51 05       	cpc	r21, r1
    192e:	19 f1       	breq	.+70     	; 0x1976 <beep+0xb2>
    1930:	e0 e0       	ldi	r30, 0x00	; 0
    1932:	f0 e0       	ldi	r31, 0x00	; 0
	{
		OCR0 = value;
    1934:	ac e5       	ldi	r26, 0x5C	; 92
    1936:	b0 e0       	ldi	r27, 0x00	; 0
		timer2=0;
		while (timer2 < devider);
    1938:	6e 2d       	mov	r22, r14
    193a:	70 e0       	ldi	r23, 0x00	; 0
    193c:	9b 01       	movw	r18, r22
if (count > 160) count = 160; //ограничим время воспроизведения 16 секундами
beep_counter = (fqr/10)*count; //количество циклов (периодов колебаний)

for (uint16_t i=0; i < beep_counter; i++)
	{
		OCR0 = value;
    193e:	1c 93       	st	X, r17
		timer2=0;
    1940:	10 92 17 03 	sts	0x0317, r1
    1944:	10 92 16 03 	sts	0x0316, r1
		while (timer2 < devider);
    1948:	80 91 16 03 	lds	r24, 0x0316
    194c:	90 91 17 03 	lds	r25, 0x0317
    1950:	86 17       	cp	r24, r22
    1952:	97 07       	cpc	r25, r23
    1954:	c8 f3       	brcs	.-14     	; 0x1948 <beep+0x84>
		OCR0 = 0;
    1956:	1c 92       	st	X, r1
		timer2=0;
    1958:	10 92 17 03 	sts	0x0317, r1
    195c:	10 92 16 03 	sts	0x0316, r1
		while (timer2 < devider);
    1960:	80 91 16 03 	lds	r24, 0x0316
    1964:	90 91 17 03 	lds	r25, 0x0317
    1968:	82 17       	cp	r24, r18
    196a:	93 07       	cpc	r25, r19
    196c:	c8 f3       	brcs	.-14     	; 0x1960 <beep+0x9c>

devider = 4000/fqr; 
if (count > 160) count = 160; //ограничим время воспроизведения 16 секундами
beep_counter = (fqr/10)*count; //количество циклов (периодов колебаний)

for (uint16_t i=0; i < beep_counter; i++)
    196e:	31 96       	adiw	r30, 0x01	; 1
    1970:	e4 17       	cp	r30, r20
    1972:	f5 07       	cpc	r31, r21
    1974:	20 f3       	brcs	.-56     	; 0x193e <beep+0x7a>
		while (timer2 < devider);

	}


last_simple = last_simple_tmp;
    1976:	d0 93 6f 03 	sts	0x036F, r29
    197a:	c0 93 6e 03 	sts	0x036E, r28
}
    197e:	df 91       	pop	r29
    1980:	cf 91       	pop	r28
    1982:	1f 91       	pop	r17
    1984:	0f 91       	pop	r16
    1986:	ff 90       	pop	r15
    1988:	ef 90       	pop	r14
    198a:	08 95       	ret

0000198c <damage_beep>:

inline void damage_beep(void) // Воспроизводим звук при ранении
{
    198c:	0f 93       	push	r16
    198e:	1f 93       	push	r17
WOUND_LED_ON; //включаем вспомогательный светодиод
    1990:	02 e3       	ldi	r16, 0x32	; 50
    1992:	10 e0       	ldi	r17, 0x00	; 0
    1994:	f8 01       	movw	r30, r16
    1996:	80 81       	ld	r24, Z
    1998:	80 61       	ori	r24, 0x10	; 16
    199a:	80 83       	st	Z, r24

beep(1000, 3, 128);
    199c:	88 ee       	ldi	r24, 0xE8	; 232
    199e:	93 e0       	ldi	r25, 0x03	; 3
    19a0:	63 e0       	ldi	r22, 0x03	; 3
    19a2:	70 e0       	ldi	r23, 0x00	; 0
    19a4:	40 e8       	ldi	r20, 0x80	; 128
    19a6:	0e 94 62 0c 	call	0x18c4	; 0x18c4 <beep>
beep(500, 3, 128);
    19aa:	84 ef       	ldi	r24, 0xF4	; 244
    19ac:	91 e0       	ldi	r25, 0x01	; 1
    19ae:	63 e0       	ldi	r22, 0x03	; 3
    19b0:	70 e0       	ldi	r23, 0x00	; 0
    19b2:	40 e8       	ldi	r20, 0x80	; 128
    19b4:	0e 94 62 0c 	call	0x18c4	; 0x18c4 <beep>
WOUND_LED_OFF;
    19b8:	f8 01       	movw	r30, r16
    19ba:	80 81       	ld	r24, Z
    19bc:	8f 7e       	andi	r24, 0xEF	; 239
    19be:	80 83       	st	Z, r24

}
    19c0:	1f 91       	pop	r17
    19c2:	0f 91       	pop	r16
    19c4:	08 95       	ret

000019c6 <int_to_str>:

}


char numbers[] PROGMEM={"0123456789"};
char* int_to_str(uint8_t x, uint8_t digits){
    19c6:	8f 92       	push	r8
    19c8:	9f 92       	push	r9
    19ca:	af 92       	push	r10
    19cc:	bf 92       	push	r11
    19ce:	cf 92       	push	r12
    19d0:	df 92       	push	r13
    19d2:	ef 92       	push	r14
    19d4:	ff 92       	push	r15
    19d6:	0f 93       	push	r16
    19d8:	1f 93       	push	r17
    19da:	df 93       	push	r29
    19dc:	cf 93       	push	r28
    19de:	00 d0       	rcall	.+0      	; 0x19e0 <int_to_str+0x1a>
    19e0:	cd b7       	in	r28, 0x3d	; 61
    19e2:	de b7       	in	r29, 0x3e	; 62
    19e4:	d6 2e       	mov	r13, r22
static volatile char str[6];



volatile uint8_t celoe, ostatok;
celoe=x;
    19e6:	89 83       	std	Y+1, r24	; 0x01
//tmp = celoe/100;
//str[0]=pgm_read_byte(&numbers[tmp]);
//tmp = celoe - t100;
int digits_tmp;
digits_tmp=digits;
if (digits == 0) digits_tmp=3;
    19e8:	66 23       	and	r22, r22
    19ea:	29 f4       	brne	.+10     	; 0x19f6 <int_to_str+0x30>
    19ec:	22 e0       	ldi	r18, 0x02	; 2
    19ee:	30 e0       	ldi	r19, 0x00	; 0
    19f0:	43 e0       	ldi	r20, 0x03	; 3
    19f2:	50 e0       	ldi	r21, 0x00	; 0
    19f4:	07 c0       	rjmp	.+14     	; 0x1a04 <int_to_str+0x3e>
celoe=x;
//tmp = celoe/100;
//str[0]=pgm_read_byte(&numbers[tmp]);
//tmp = celoe - t100;
int digits_tmp;
digits_tmp=digits;
    19f6:	46 2f       	mov	r20, r22
    19f8:	50 e0       	ldi	r21, 0x00	; 0
if (digits == 0) digits_tmp=3;
      for (int i=(digits_tmp-1); i>=0; i--)
    19fa:	9a 01       	movw	r18, r20
    19fc:	21 50       	subi	r18, 0x01	; 1
    19fe:	30 40       	sbci	r19, 0x00	; 0
    1a00:	0a f4       	brpl	.+2      	; 0x1a04 <int_to_str+0x3e>
    1a02:	76 c0       	rjmp	.+236    	; 0x1af0 <int_to_str+0x12a>
      //volatile long int tmp;
	 // tmp = celoe;
      ostatok= celoe%10;
	  celoe  = celoe/10;
	  //ostatok= tmp - celoe*10;   
      str[i]= pgm_read_byte(&numbers[ostatok]);
    1a04:	0f 2e       	mov	r0, r31
    1a06:	fa e0       	ldi	r31, 0x0A	; 10
    1a08:	ef 2e       	mov	r14, r31
    1a0a:	f7 e0       	ldi	r31, 0x07	; 7
    1a0c:	ff 2e       	mov	r15, r31
    1a0e:	f0 2d       	mov	r31, r0
    1a10:	06 ee       	ldi	r16, 0xE6	; 230
    1a12:	12 e0       	ldi	r17, 0x02	; 2
if (digits == 0) digits_tmp=3;
      for (int i=(digits_tmp-1); i>=0; i--)
      {   
      //volatile long int tmp;
	 // tmp = celoe;
      ostatok= celoe%10;
    1a14:	89 81       	ldd	r24, Y+1	; 0x01
    1a16:	6a e0       	ldi	r22, 0x0A	; 10
    1a18:	0e 94 02 28 	call	0x5004	; 0x5004 <__udivmodqi4>
    1a1c:	9a 83       	std	Y+2, r25	; 0x02
	  celoe  = celoe/10;
    1a1e:	89 81       	ldd	r24, Y+1	; 0x01
    1a20:	0e 94 02 28 	call	0x5004	; 0x5004 <__udivmodqi4>
    1a24:	89 83       	std	Y+1, r24	; 0x01
	  //ostatok= tmp - celoe*10;   
      str[i]= pgm_read_byte(&numbers[ostatok]);
    1a26:	8a 81       	ldd	r24, Y+2	; 0x02
    1a28:	f7 01       	movw	r30, r14
    1a2a:	e8 0f       	add	r30, r24
    1a2c:	f1 1d       	adc	r31, r1
    1a2e:	e4 91       	lpm	r30, Z+
    1a30:	d8 01       	movw	r26, r16
    1a32:	a2 0f       	add	r26, r18
    1a34:	b3 1f       	adc	r27, r19
    1a36:	ec 93       	st	X, r30
//str[0]=pgm_read_byte(&numbers[tmp]);
//tmp = celoe - t100;
int digits_tmp;
digits_tmp=digits;
if (digits == 0) digits_tmp=3;
      for (int i=(digits_tmp-1); i>=0; i--)
    1a38:	21 50       	subi	r18, 0x01	; 1
    1a3a:	30 40       	sbci	r19, 0x00	; 0
    1a3c:	5a f7       	brpl	.-42     	; 0x1a14 <int_to_str+0x4e>
      ostatok= celoe%10;
	  celoe  = celoe/10;
	  //ostatok= tmp - celoe*10;   
      str[i]= pgm_read_byte(&numbers[ostatok]);
      }
      str[digits_tmp]='\0';
    1a3e:	fa 01       	movw	r30, r20
    1a40:	ea 51       	subi	r30, 0x1A	; 26
    1a42:	fd 4f       	sbci	r31, 0xFD	; 253
    1a44:	10 82       	st	Z, r1
	  
	  
	  
if (digits == 0)	
    1a46:	dd 20       	and	r13, r13
    1a48:	09 f0       	breq	.+2      	; 0x1a4c <int_to_str+0x86>
    1a4a:	41 c0       	rjmp	.+130    	; 0x1ace <int_to_str+0x108>
{
        while ((str[0]=='0')&str[1] !='\0') for (int i=0; i < 6; i++) str[i]=str[i+1];
    1a4c:	0f 2e       	mov	r0, r31
    1a4e:	f6 ee       	ldi	r31, 0xE6	; 230
    1a50:	cf 2e       	mov	r12, r31
    1a52:	f2 e0       	ldi	r31, 0x02	; 2
    1a54:	df 2e       	mov	r13, r31
    1a56:	f0 2d       	mov	r31, r0
    1a58:	56 01       	movw	r10, r12
    1a5a:	08 94       	sec
    1a5c:	a1 1c       	adc	r10, r1
    1a5e:	b1 1c       	adc	r11, r1
    1a60:	07 ee       	ldi	r16, 0xE7	; 231
    1a62:	12 e0       	ldi	r17, 0x02	; 2
    1a64:	48 01       	movw	r8, r16
    1a66:	08 94       	sec
    1a68:	81 08       	sbc	r8, r1
    1a6a:	91 08       	sbc	r9, r1
    1a6c:	b4 01       	movw	r22, r8
    1a6e:	6e 5f       	subi	r22, 0xFE	; 254
    1a70:	7f 4f       	sbci	r23, 0xFF	; 255
    1a72:	a4 01       	movw	r20, r8
    1a74:	4d 5f       	subi	r20, 0xFD	; 253
    1a76:	5f 4f       	sbci	r21, 0xFF	; 255
    1a78:	94 01       	movw	r18, r8
    1a7a:	2c 5f       	subi	r18, 0xFC	; 252
    1a7c:	3f 4f       	sbci	r19, 0xFF	; 255
    1a7e:	d4 01       	movw	r26, r8
    1a80:	15 96       	adiw	r26, 0x05	; 5
    1a82:	0f 2e       	mov	r0, r31
    1a84:	f6 e0       	ldi	r31, 0x06	; 6
    1a86:	ef 2e       	mov	r14, r31
    1a88:	ff 24       	eor	r15, r15
    1a8a:	f0 2d       	mov	r31, r0
    1a8c:	e8 0c       	add	r14, r8
    1a8e:	f9 1c       	adc	r15, r9
    1a90:	f6 01       	movw	r30, r12
    1a92:	80 81       	ld	r24, Z
    1a94:	f5 01       	movw	r30, r10
    1a96:	90 81       	ld	r25, Z
    1a98:	80 33       	cpi	r24, 0x30	; 48
    1a9a:	c9 f4       	brne	.+50     	; 0x1ace <int_to_str+0x108>
    1a9c:	99 23       	and	r25, r25
    1a9e:	b9 f0       	breq	.+46     	; 0x1ace <int_to_str+0x108>
    1aa0:	f8 01       	movw	r30, r16
    1aa2:	80 81       	ld	r24, Z
    1aa4:	f4 01       	movw	r30, r8
    1aa6:	80 83       	st	Z, r24
    1aa8:	fb 01       	movw	r30, r22
    1aaa:	80 81       	ld	r24, Z
    1aac:	f8 01       	movw	r30, r16
    1aae:	80 83       	st	Z, r24
    1ab0:	fa 01       	movw	r30, r20
    1ab2:	80 81       	ld	r24, Z
    1ab4:	fb 01       	movw	r30, r22
    1ab6:	80 83       	st	Z, r24
    1ab8:	f9 01       	movw	r30, r18
    1aba:	80 81       	ld	r24, Z
    1abc:	fa 01       	movw	r30, r20
    1abe:	80 83       	st	Z, r24
    1ac0:	8c 91       	ld	r24, X
    1ac2:	f9 01       	movw	r30, r18
    1ac4:	80 83       	st	Z, r24
    1ac6:	f7 01       	movw	r30, r14
    1ac8:	80 81       	ld	r24, Z
    1aca:	8c 93       	st	X, r24
    1acc:	e1 cf       	rjmp	.-62     	; 0x1a90 <int_to_str+0xca>
//str[2]=numbers[2];//pgm_read_byte(&(numbers[2]));
//str[3]='\0';

      return &str;      

}
    1ace:	86 ee       	ldi	r24, 0xE6	; 230
    1ad0:	92 e0       	ldi	r25, 0x02	; 2
    1ad2:	0f 90       	pop	r0
    1ad4:	0f 90       	pop	r0
    1ad6:	cf 91       	pop	r28
    1ad8:	df 91       	pop	r29
    1ada:	1f 91       	pop	r17
    1adc:	0f 91       	pop	r16
    1ade:	ff 90       	pop	r15
    1ae0:	ef 90       	pop	r14
    1ae2:	df 90       	pop	r13
    1ae4:	cf 90       	pop	r12
    1ae6:	bf 90       	pop	r11
    1ae8:	af 90       	pop	r10
    1aea:	9f 90       	pop	r9
    1aec:	8f 90       	pop	r8
    1aee:	08 95       	ret
      ostatok= celoe%10;
	  celoe  = celoe/10;
	  //ostatok= tmp - celoe*10;   
      str[i]= pgm_read_byte(&numbers[ostatok]);
      }
      str[digits_tmp]='\0';
    1af0:	fa 01       	movw	r30, r20
    1af2:	ea 51       	subi	r30, 0x1A	; 26
    1af4:	fd 4f       	sbci	r31, 0xFD	; 253
    1af6:	10 82       	st	Z, r1
    1af8:	ea cf       	rjmp	.-44     	; 0x1ace <int_to_str+0x108>

00001afa <long_int_to_str>:

      return &str;      

}

char* long_int_to_str(uint16_t x, uint8_t digits){
    1afa:	8f 92       	push	r8
    1afc:	9f 92       	push	r9
    1afe:	af 92       	push	r10
    1b00:	bf 92       	push	r11
    1b02:	cf 92       	push	r12
    1b04:	df 92       	push	r13
    1b06:	ef 92       	push	r14
    1b08:	ff 92       	push	r15
    1b0a:	0f 93       	push	r16
    1b0c:	1f 93       	push	r17
    1b0e:	df 93       	push	r29
    1b10:	cf 93       	push	r28
    1b12:	00 d0       	rcall	.+0      	; 0x1b14 <long_int_to_str+0x1a>
    1b14:	00 d0       	rcall	.+0      	; 0x1b16 <long_int_to_str+0x1c>
    1b16:	cd b7       	in	r28, 0x3d	; 61
    1b18:	de b7       	in	r29, 0x3e	; 62
    1b1a:	46 2f       	mov	r20, r22
static volatile char str[6];



volatile uint16_t celoe, ostatok;
celoe=x;
    1b1c:	9a 83       	std	Y+2, r25	; 0x02
    1b1e:	89 83       	std	Y+1, r24	; 0x01
//tmp = celoe/100;
//str[0]=pgm_read_byte(&numbers[tmp]);
//tmp = celoe - t100;
int digits_tmp;
digits_tmp=digits;
if (digits == 0) digits_tmp=5;
    1b20:	66 23       	and	r22, r22
    1b22:	41 f4       	brne	.+16     	; 0x1b34 <long_int_to_str+0x3a>
    1b24:	04 e0       	ldi	r16, 0x04	; 4
    1b26:	10 e0       	ldi	r17, 0x00	; 0
    1b28:	0f 2e       	mov	r0, r31
    1b2a:	f5 e0       	ldi	r31, 0x05	; 5
    1b2c:	ef 2e       	mov	r14, r31
    1b2e:	ff 24       	eor	r15, r15
    1b30:	f0 2d       	mov	r31, r0
    1b32:	07 c0       	rjmp	.+14     	; 0x1b42 <long_int_to_str+0x48>
celoe=x;
//tmp = celoe/100;
//str[0]=pgm_read_byte(&numbers[tmp]);
//tmp = celoe - t100;
int digits_tmp;
digits_tmp=digits;
    1b34:	e6 2e       	mov	r14, r22
    1b36:	ff 24       	eor	r15, r15
if (digits == 0) digits_tmp=5;
      for (int i=(digits_tmp-1); i>=0; i--)
    1b38:	87 01       	movw	r16, r14
    1b3a:	01 50       	subi	r16, 0x01	; 1
    1b3c:	10 40       	sbci	r17, 0x00	; 0
    1b3e:	0a f4       	brpl	.+2      	; 0x1b42 <long_int_to_str+0x48>
    1b40:	88 c0       	rjmp	.+272    	; 0x1c52 <long_int_to_str+0x158>
      //volatile long int tmp;
	 // tmp = celoe;
      ostatok= celoe%10;
	  celoe  = celoe/10;
	  //ostatok= tmp - celoe*10;   
      str[i]= pgm_read_byte(&numbers[ostatok]);
    1b42:	0f 2e       	mov	r0, r31
    1b44:	fa e0       	ldi	r31, 0x0A	; 10
    1b46:	af 2e       	mov	r10, r31
    1b48:	f7 e0       	ldi	r31, 0x07	; 7
    1b4a:	bf 2e       	mov	r11, r31
    1b4c:	f0 2d       	mov	r31, r0
    1b4e:	0f 2e       	mov	r0, r31
    1b50:	f0 ee       	ldi	r31, 0xE0	; 224
    1b52:	cf 2e       	mov	r12, r31
    1b54:	f2 e0       	ldi	r31, 0x02	; 2
    1b56:	df 2e       	mov	r13, r31
    1b58:	f0 2d       	mov	r31, r0
if (digits == 0) digits_tmp=5;
      for (int i=(digits_tmp-1); i>=0; i--)
      {   
      //volatile long int tmp;
	 // tmp = celoe;
      ostatok= celoe%10;
    1b5a:	89 81       	ldd	r24, Y+1	; 0x01
    1b5c:	9a 81       	ldd	r25, Y+2	; 0x02
    1b5e:	6a e0       	ldi	r22, 0x0A	; 10
    1b60:	70 e0       	ldi	r23, 0x00	; 0
    1b62:	0e 94 0e 28 	call	0x501c	; 0x501c <__udivmodhi4>
    1b66:	28 2f       	mov	r18, r24
    1b68:	39 2f       	mov	r19, r25
    1b6a:	3c 83       	std	Y+4, r19	; 0x04
    1b6c:	2b 83       	std	Y+3, r18	; 0x03
	  celoe  = celoe/10;
    1b6e:	89 81       	ldd	r24, Y+1	; 0x01
    1b70:	9a 81       	ldd	r25, Y+2	; 0x02
    1b72:	6a e0       	ldi	r22, 0x0A	; 10
    1b74:	70 e0       	ldi	r23, 0x00	; 0
    1b76:	0e 94 0e 28 	call	0x501c	; 0x501c <__udivmodhi4>
    1b7a:	86 2f       	mov	r24, r22
    1b7c:	97 2f       	mov	r25, r23
    1b7e:	9a 83       	std	Y+2, r25	; 0x02
    1b80:	89 83       	std	Y+1, r24	; 0x01
	  //ostatok= tmp - celoe*10;   
      str[i]= pgm_read_byte(&numbers[ostatok]);
    1b82:	8b 81       	ldd	r24, Y+3	; 0x03
    1b84:	9c 81       	ldd	r25, Y+4	; 0x04
    1b86:	f5 01       	movw	r30, r10
    1b88:	e8 0f       	add	r30, r24
    1b8a:	f9 1f       	adc	r31, r25
    1b8c:	e4 91       	lpm	r30, Z+
    1b8e:	d6 01       	movw	r26, r12
    1b90:	a0 0f       	add	r26, r16
    1b92:	b1 1f       	adc	r27, r17
    1b94:	ec 93       	st	X, r30
//str[0]=pgm_read_byte(&numbers[tmp]);
//tmp = celoe - t100;
int digits_tmp;
digits_tmp=digits;
if (digits == 0) digits_tmp=5;
      for (int i=(digits_tmp-1); i>=0; i--)
    1b96:	01 50       	subi	r16, 0x01	; 1
    1b98:	10 40       	sbci	r17, 0x00	; 0
    1b9a:	fa f6       	brpl	.-66     	; 0x1b5a <long_int_to_str+0x60>
      ostatok= celoe%10;
	  celoe  = celoe/10;
	  //ostatok= tmp - celoe*10;   
      str[i]= pgm_read_byte(&numbers[ostatok]);
      }
      str[digits_tmp]='\0';
    1b9c:	f7 01       	movw	r30, r14
    1b9e:	e0 52       	subi	r30, 0x20	; 32
    1ba0:	fd 4f       	sbci	r31, 0xFD	; 253
    1ba2:	10 82       	st	Z, r1
	  
	  
	  
if (digits == 0)	
    1ba4:	44 23       	and	r20, r20
    1ba6:	09 f0       	breq	.+2      	; 0x1baa <long_int_to_str+0xb0>
    1ba8:	41 c0       	rjmp	.+130    	; 0x1c2c <long_int_to_str+0x132>
{
        while ((str[0]=='0')&str[1] !='\0') for (int i=0; i < 6; i++) str[i]=str[i+1];
    1baa:	0f 2e       	mov	r0, r31
    1bac:	f0 ee       	ldi	r31, 0xE0	; 224
    1bae:	cf 2e       	mov	r12, r31
    1bb0:	f2 e0       	ldi	r31, 0x02	; 2
    1bb2:	df 2e       	mov	r13, r31
    1bb4:	f0 2d       	mov	r31, r0
    1bb6:	56 01       	movw	r10, r12
    1bb8:	08 94       	sec
    1bba:	a1 1c       	adc	r10, r1
    1bbc:	b1 1c       	adc	r11, r1
    1bbe:	01 ee       	ldi	r16, 0xE1	; 225
    1bc0:	12 e0       	ldi	r17, 0x02	; 2
    1bc2:	48 01       	movw	r8, r16
    1bc4:	08 94       	sec
    1bc6:	81 08       	sbc	r8, r1
    1bc8:	91 08       	sbc	r9, r1
    1bca:	b4 01       	movw	r22, r8
    1bcc:	6e 5f       	subi	r22, 0xFE	; 254
    1bce:	7f 4f       	sbci	r23, 0xFF	; 255
    1bd0:	a4 01       	movw	r20, r8
    1bd2:	4d 5f       	subi	r20, 0xFD	; 253
    1bd4:	5f 4f       	sbci	r21, 0xFF	; 255
    1bd6:	94 01       	movw	r18, r8
    1bd8:	2c 5f       	subi	r18, 0xFC	; 252
    1bda:	3f 4f       	sbci	r19, 0xFF	; 255
    1bdc:	d4 01       	movw	r26, r8
    1bde:	15 96       	adiw	r26, 0x05	; 5
    1be0:	0f 2e       	mov	r0, r31
    1be2:	f6 e0       	ldi	r31, 0x06	; 6
    1be4:	ef 2e       	mov	r14, r31
    1be6:	ff 24       	eor	r15, r15
    1be8:	f0 2d       	mov	r31, r0
    1bea:	e8 0c       	add	r14, r8
    1bec:	f9 1c       	adc	r15, r9
    1bee:	f6 01       	movw	r30, r12
    1bf0:	80 81       	ld	r24, Z
    1bf2:	f5 01       	movw	r30, r10
    1bf4:	90 81       	ld	r25, Z
    1bf6:	80 33       	cpi	r24, 0x30	; 48
    1bf8:	c9 f4       	brne	.+50     	; 0x1c2c <long_int_to_str+0x132>
    1bfa:	99 23       	and	r25, r25
    1bfc:	b9 f0       	breq	.+46     	; 0x1c2c <long_int_to_str+0x132>
    1bfe:	f8 01       	movw	r30, r16
    1c00:	80 81       	ld	r24, Z
    1c02:	f4 01       	movw	r30, r8
    1c04:	80 83       	st	Z, r24
    1c06:	fb 01       	movw	r30, r22
    1c08:	80 81       	ld	r24, Z
    1c0a:	f8 01       	movw	r30, r16
    1c0c:	80 83       	st	Z, r24
    1c0e:	fa 01       	movw	r30, r20
    1c10:	80 81       	ld	r24, Z
    1c12:	fb 01       	movw	r30, r22
    1c14:	80 83       	st	Z, r24
    1c16:	f9 01       	movw	r30, r18
    1c18:	80 81       	ld	r24, Z
    1c1a:	fa 01       	movw	r30, r20
    1c1c:	80 83       	st	Z, r24
    1c1e:	8c 91       	ld	r24, X
    1c20:	f9 01       	movw	r30, r18
    1c22:	80 83       	st	Z, r24
    1c24:	f7 01       	movw	r30, r14
    1c26:	80 81       	ld	r24, Z
    1c28:	8c 93       	st	X, r24
    1c2a:	e1 cf       	rjmp	.-62     	; 0x1bee <long_int_to_str+0xf4>
//str[2]=numbers[2];//pgm_read_byte(&(numbers[2]));
//str[3]='\0';

      return &str;      

}
    1c2c:	80 ee       	ldi	r24, 0xE0	; 224
    1c2e:	92 e0       	ldi	r25, 0x02	; 2
    1c30:	0f 90       	pop	r0
    1c32:	0f 90       	pop	r0
    1c34:	0f 90       	pop	r0
    1c36:	0f 90       	pop	r0
    1c38:	cf 91       	pop	r28
    1c3a:	df 91       	pop	r29
    1c3c:	1f 91       	pop	r17
    1c3e:	0f 91       	pop	r16
    1c40:	ff 90       	pop	r15
    1c42:	ef 90       	pop	r14
    1c44:	df 90       	pop	r13
    1c46:	cf 90       	pop	r12
    1c48:	bf 90       	pop	r11
    1c4a:	af 90       	pop	r10
    1c4c:	9f 90       	pop	r9
    1c4e:	8f 90       	pop	r8
    1c50:	08 95       	ret
      ostatok= celoe%10;
	  celoe  = celoe/10;
	  //ostatok= tmp - celoe*10;   
      str[i]= pgm_read_byte(&numbers[ostatok]);
      }
      str[digits_tmp]='\0';
    1c52:	f7 01       	movw	r30, r14
    1c54:	e0 52       	subi	r30, 0x20	; 32
    1c56:	fd 4f       	sbci	r31, 0xFD	; 253
    1c58:	10 82       	st	Z, r1
    1c5a:	e8 cf       	rjmp	.-48     	; 0x1c2c <long_int_to_str+0x132>

00001c5c <display_status>:



void display_status()//выводим на дисплей текущее значение жизни, патронов, магазинов 
{
	lcd_clrscr();
    1c5c:	0e 94 a0 04 	call	0x940	; 0x940 <lcd_clrscr>
	lcd_puts("жизнь: ");
    1c60:	80 e6       	ldi	r24, 0x60	; 96
    1c62:	90 e0       	ldi	r25, 0x00	; 0
    1c64:	0e 94 df 04 	call	0x9be	; 0x9be <lcd_puts>
	lcd_puts(int_to_str(life_in_percent,0));
    1c68:	80 91 6b 03 	lds	r24, 0x036B
    1c6c:	90 91 6c 03 	lds	r25, 0x036C
    1c70:	60 e0       	ldi	r22, 0x00	; 0
    1c72:	0e 94 e3 0c 	call	0x19c6	; 0x19c6 <int_to_str>
    1c76:	0e 94 df 04 	call	0x9be	; 0x9be <lcd_puts>
	lcd_puts("% ");
    1c7a:	88 e6       	ldi	r24, 0x68	; 104
    1c7c:	90 e0       	ldi	r25, 0x00	; 0
    1c7e:	0e 94 df 04 	call	0x9be	; 0x9be <lcd_puts>
	lcd_gotoxy(0, 1);
    1c82:	80 e0       	ldi	r24, 0x00	; 0
    1c84:	61 e0       	ldi	r22, 0x01	; 1
    1c86:	0e 94 ef 04 	call	0x9de	; 0x9de <lcd_gotoxy>
	lcd_puts("патр: ");
    1c8a:	8b e6       	ldi	r24, 0x6B	; 107
    1c8c:	90 e0       	ldi	r25, 0x00	; 0
    1c8e:	0e 94 df 04 	call	0x9be	; 0x9be <lcd_puts>
	lcd_puts(int_to_str(bullets,0));
    1c92:	80 91 1e 03 	lds	r24, 0x031E
    1c96:	90 91 1f 03 	lds	r25, 0x031F
    1c9a:	60 e0       	ldi	r22, 0x00	; 0
    1c9c:	0e 94 e3 0c 	call	0x19c6	; 0x19c6 <int_to_str>
    1ca0:	0e 94 df 04 	call	0x9be	; 0x9be <lcd_puts>
	lcd_gotoxy(10, 1);
    1ca4:	8a e0       	ldi	r24, 0x0A	; 10
    1ca6:	61 e0       	ldi	r22, 0x01	; 1
    1ca8:	0e 94 ef 04 	call	0x9de	; 0x9de <lcd_gotoxy>
	lcd_puts("м: ");
    1cac:	82 e7       	ldi	r24, 0x72	; 114
    1cae:	90 e0       	ldi	r25, 0x00	; 0
    1cb0:	0e 94 df 04 	call	0x9be	; 0x9be <lcd_puts>
	lcd_puts(int_to_str(clips,0));
    1cb4:	80 91 18 03 	lds	r24, 0x0318
    1cb8:	60 e0       	ldi	r22, 0x00	; 0
    1cba:	0e 94 e3 0c 	call	0x19c6	; 0x19c6 <int_to_str>
    1cbe:	0e 94 df 04 	call	0x9be	; 0x9be <lcd_puts>
	lcd_puts(" ");
    1cc2:	86 e7       	ldi	r24, 0x76	; 118
    1cc4:	90 e0       	ldi	r25, 0x00	; 0
    1cc6:	0e 94 df 04 	call	0x9be	; 0x9be <lcd_puts>



}
    1cca:	08 95       	ret

00001ccc <display_life_update>:


void display_life_update(){//обновляем значение жизни на дисплее
lcd_gotoxy(7, 0);
    1ccc:	87 e0       	ldi	r24, 0x07	; 7
    1cce:	60 e0       	ldi	r22, 0x00	; 0
    1cd0:	0e 94 ef 04 	call	0x9de	; 0x9de <lcd_gotoxy>
lcd_puts(int_to_str(life_in_percent,0));
    1cd4:	80 91 6b 03 	lds	r24, 0x036B
    1cd8:	90 91 6c 03 	lds	r25, 0x036C
    1cdc:	60 e0       	ldi	r22, 0x00	; 0
    1cde:	0e 94 e3 0c 	call	0x19c6	; 0x19c6 <int_to_str>
    1ce2:	0e 94 df 04 	call	0x9be	; 0x9be <lcd_puts>
lcd_puts("%   ");
    1ce6:	88 e7       	ldi	r24, 0x78	; 120
    1ce8:	90 e0       	ldi	r25, 0x00	; 0
    1cea:	0e 94 df 04 	call	0x9be	; 0x9be <lcd_puts>
}
    1cee:	08 95       	ret

00001cf0 <display_bullets_update>:



void display_bullets_update(){//обновляем значение жизни на дисплее
lcd_gotoxy(6, 1);
    1cf0:	86 e0       	ldi	r24, 0x06	; 6
    1cf2:	61 e0       	ldi	r22, 0x01	; 1
    1cf4:	0e 94 ef 04 	call	0x9de	; 0x9de <lcd_gotoxy>
lcd_puts(int_to_str(bullets,0));
    1cf8:	80 91 1e 03 	lds	r24, 0x031E
    1cfc:	90 91 1f 03 	lds	r25, 0x031F
    1d00:	60 e0       	ldi	r22, 0x00	; 0
    1d02:	0e 94 e3 0c 	call	0x19c6	; 0x19c6 <int_to_str>
    1d06:	0e 94 df 04 	call	0x9be	; 0x9be <lcd_puts>
lcd_puts(" ");
    1d0a:	86 e7       	ldi	r24, 0x76	; 118
    1d0c:	90 e0       	ldi	r25, 0x00	; 0
    1d0e:	0e 94 df 04 	call	0x9be	; 0x9be <lcd_puts>
}
    1d12:	08 95       	ret

00001d14 <display_clips_update>:

void display_clips_update(){//обновляем значение жизни на дисплее
lcd_gotoxy(13, 1);
    1d14:	8d e0       	ldi	r24, 0x0D	; 13
    1d16:	61 e0       	ldi	r22, 0x01	; 1
    1d18:	0e 94 ef 04 	call	0x9de	; 0x9de <lcd_gotoxy>
lcd_puts(int_to_str(clips,0));
    1d1c:	80 91 18 03 	lds	r24, 0x0318
    1d20:	60 e0       	ldi	r22, 0x00	; 0
    1d22:	0e 94 e3 0c 	call	0x19c6	; 0x19c6 <int_to_str>
    1d26:	0e 94 df 04 	call	0x9be	; 0x9be <lcd_puts>
lcd_puts(" ");
    1d2a:	86 e7       	ldi	r24, 0x76	; 118
    1d2c:	90 e0       	ldi	r25, 0x00	; 0
    1d2e:	0e 94 df 04 	call	0x9be	; 0x9be <lcd_puts>
}
    1d32:	08 95       	ret

00001d34 <init_adc>:


void init_adc(void)
{

ADMUX=((1<<REFS0)|(1<<REFS1));//выбираем внутренний источник опорного напряжения
    1d34:	80 ec       	ldi	r24, 0xC0	; 192
    1d36:	87 b9       	out	0x07, r24	; 7
ADCSRA=(1<<ADEN)|(1<<ADPS2)|(1<<ADPS1)|(1<<ADPS0); //Rrescalar div factor =128
    1d38:	87 e8       	ldi	r24, 0x87	; 135
    1d3a:	86 b9       	out	0x06, r24	; 6


}
    1d3c:	08 95       	ret

00001d3e <ReadADC>:

uint16_t ReadADC(uint8_t ch)
{
   //Select ADC Channel ch must be 0-7
   ch=ch&0b00000111;
   ADMUX|=ch;
    1d3e:	e7 e2       	ldi	r30, 0x27	; 39
    1d40:	f0 e0       	ldi	r31, 0x00	; 0
    1d42:	90 81       	ld	r25, Z
    1d44:	87 70       	andi	r24, 0x07	; 7
    1d46:	89 2b       	or	r24, r25
    1d48:	80 83       	st	Z, r24

   //Start Single conversion
   ADCSRA|=(1<<ADSC);
    1d4a:	e6 e2       	ldi	r30, 0x26	; 38
    1d4c:	f0 e0       	ldi	r31, 0x00	; 0
    1d4e:	80 81       	ld	r24, Z
    1d50:	80 64       	ori	r24, 0x40	; 64
    1d52:	80 83       	st	Z, r24

   //Wait for conversion to complete
   while(!(ADCSRA & (1<<ADIF)));
    1d54:	80 81       	ld	r24, Z
    1d56:	84 ff       	sbrs	r24, 4
    1d58:	fd cf       	rjmp	.-6      	; 0x1d54 <ReadADC+0x16>
   //Clear ADIF by writing one to it
   //Note you may be wondering why we have write one to clear it
   //This is standard way of clearing bits in io as said in datasheets.
   //The code writes '1' but it result in setting bit to '0' !!!

   ADCSRA|=(1<<ADIF);
    1d5a:	e6 e2       	ldi	r30, 0x26	; 38
    1d5c:	f0 e0       	ldi	r31, 0x00	; 0
    1d5e:	80 81       	ld	r24, Z
    1d60:	80 61       	ori	r24, 0x10	; 16
    1d62:	80 83       	st	Z, r24

   return(ADC);
    1d64:	24 b1       	in	r18, 0x04	; 4
    1d66:	35 b1       	in	r19, 0x05	; 5
}
    1d68:	82 2f       	mov	r24, r18
    1d6a:	93 2f       	mov	r25, r19
    1d6c:	08 95       	ret

00001d6e <display_hit_data>:
/********************************************
*покажем кто в нас попал и какой урон нанёс
********************************************/

void display_hit_data(void)
{
    1d6e:	0f 93       	push	r16
    1d70:	1f 93       	push	r17
lcd_clrscr();
    1d72:	0e 94 a0 04 	call	0x940	; 0x940 <lcd_clrscr>
lcd_home();
    1d76:	0e 94 02 05 	call	0xa04	; 0xa04 <lcd_home>
lcd_puts("Урон ");
    1d7a:	8d e7       	ldi	r24, 0x7D	; 125
    1d7c:	90 e0       	ldi	r25, 0x00	; 0
    1d7e:	0e 94 df 04 	call	0x9be	; 0x9be <lcd_puts>
lcd_puts(int_to_str(rx_packet.damage,0));
    1d82:	09 e7       	ldi	r16, 0x79	; 121
    1d84:	13 e0       	ldi	r17, 0x03	; 3
    1d86:	f8 01       	movw	r30, r16
    1d88:	80 81       	ld	r24, Z
    1d8a:	60 e0       	ldi	r22, 0x00	; 0
    1d8c:	0e 94 e3 0c 	call	0x19c6	; 0x19c6 <int_to_str>
    1d90:	0e 94 df 04 	call	0x9be	; 0x9be <lcd_puts>
lcd_puts("% нанес");
    1d94:	83 e8       	ldi	r24, 0x83	; 131
    1d96:	90 e0       	ldi	r25, 0x00	; 0
    1d98:	0e 94 df 04 	call	0x9be	; 0x9be <lcd_puts>
lcd_gotoxy(0, 1);
    1d9c:	80 e0       	ldi	r24, 0x00	; 0
    1d9e:	61 e0       	ldi	r22, 0x01	; 1
    1da0:	0e 94 ef 04 	call	0x9de	; 0x9de <lcd_gotoxy>
lcd_puts("иг. ");
    1da4:	8b e8       	ldi	r24, 0x8B	; 139
    1da6:	90 e0       	ldi	r25, 0x00	; 0
    1da8:	0e 94 df 04 	call	0x9be	; 0x9be <lcd_puts>
lcd_puts(int_to_str(rx_packet.player_id,0));
    1dac:	02 50       	subi	r16, 0x02	; 2
    1dae:	10 40       	sbci	r17, 0x00	; 0
    1db0:	f8 01       	movw	r30, r16
    1db2:	81 91       	ld	r24, Z+
    1db4:	8f 01       	movw	r16, r30
    1db6:	60 e0       	ldi	r22, 0x00	; 0
    1db8:	0e 94 e3 0c 	call	0x19c6	; 0x19c6 <int_to_str>
    1dbc:	0e 94 df 04 	call	0x9be	; 0x9be <lcd_puts>
lcd_puts(" ком. ");
    1dc0:	80 e9       	ldi	r24, 0x90	; 144
    1dc2:	90 e0       	ldi	r25, 0x00	; 0
    1dc4:	0e 94 df 04 	call	0x9be	; 0x9be <lcd_puts>
lcd_puts(int_to_str(rx_packet.team_id,0));
    1dc8:	f8 01       	movw	r30, r16
    1dca:	80 81       	ld	r24, Z
    1dcc:	60 e0       	ldi	r22, 0x00	; 0
    1dce:	0e 94 e3 0c 	call	0x19c6	; 0x19c6 <int_to_str>
    1dd2:	0e 94 df 04 	call	0x9be	; 0x9be <lcd_puts>
}
    1dd6:	1f 91       	pop	r17
    1dd8:	0f 91       	pop	r16
    1dda:	08 95       	ret

00001ddc <char_to_int>:
USART_SendStr("OK\r\n");

}
uint8_t char_to_int(char c)
     {
       switch(c)
    1ddc:	84 33       	cpi	r24, 0x34	; 52
    1dde:	21 f1       	breq	.+72     	; 0x1e28 <char_to_int+0x4c>
    1de0:	85 33       	cpi	r24, 0x35	; 53
    1de2:	60 f4       	brcc	.+24     	; 0x1dfc <char_to_int+0x20>
    1de4:	81 33       	cpi	r24, 0x31	; 49
    1de6:	c1 f0       	breq	.+48     	; 0x1e18 <char_to_int+0x3c>
    1de8:	82 33       	cpi	r24, 0x32	; 50
    1dea:	18 f4       	brcc	.+6      	; 0x1df2 <char_to_int+0x16>
    1dec:	80 33       	cpi	r24, 0x30	; 48
    1dee:	41 f5       	brne	.+80     	; 0x1e40 <char_to_int+0x64>
    1df0:	15 c0       	rjmp	.+42     	; 0x1e1c <char_to_int+0x40>
    1df2:	82 33       	cpi	r24, 0x32	; 50
    1df4:	a9 f0       	breq	.+42     	; 0x1e20 <char_to_int+0x44>
    1df6:	83 33       	cpi	r24, 0x33	; 51
    1df8:	19 f5       	brne	.+70     	; 0x1e40 <char_to_int+0x64>
    1dfa:	14 c0       	rjmp	.+40     	; 0x1e24 <char_to_int+0x48>
    1dfc:	87 33       	cpi	r24, 0x37	; 55
    1dfe:	d1 f0       	breq	.+52     	; 0x1e34 <char_to_int+0x58>
    1e00:	88 33       	cpi	r24, 0x38	; 56
    1e02:	28 f4       	brcc	.+10     	; 0x1e0e <char_to_int+0x32>
    1e04:	85 33       	cpi	r24, 0x35	; 53
    1e06:	91 f0       	breq	.+36     	; 0x1e2c <char_to_int+0x50>
    1e08:	86 33       	cpi	r24, 0x36	; 54
    1e0a:	d1 f4       	brne	.+52     	; 0x1e40 <char_to_int+0x64>
    1e0c:	11 c0       	rjmp	.+34     	; 0x1e30 <char_to_int+0x54>
    1e0e:	88 33       	cpi	r24, 0x38	; 56
    1e10:	99 f0       	breq	.+38     	; 0x1e38 <char_to_int+0x5c>
    1e12:	89 33       	cpi	r24, 0x39	; 57
    1e14:	a9 f4       	brne	.+42     	; 0x1e40 <char_to_int+0x64>
    1e16:	12 c0       	rjmp	.+36     	; 0x1e3c <char_to_int+0x60>
    1e18:	81 e0       	ldi	r24, 0x01	; 1
    1e1a:	08 95       	ret
    1e1c:	80 e0       	ldi	r24, 0x00	; 0
    1e1e:	08 95       	ret
    1e20:	82 e0       	ldi	r24, 0x02	; 2
    1e22:	08 95       	ret
       {
         case '0': return 0;
         case '1': return 1;
         case '2': return 2;
    1e24:	83 e0       	ldi	r24, 0x03	; 3
    1e26:	08 95       	ret
         case '3': return 3;
    1e28:	84 e0       	ldi	r24, 0x04	; 4
    1e2a:	08 95       	ret
         case '4': return 4;
    1e2c:	85 e0       	ldi	r24, 0x05	; 5
    1e2e:	08 95       	ret
         case '5': return 5;
    1e30:	86 e0       	ldi	r24, 0x06	; 6
    1e32:	08 95       	ret
         case '6': return 6;
    1e34:	87 e0       	ldi	r24, 0x07	; 7
    1e36:	08 95       	ret
         case '7': return 7;
    1e38:	88 e0       	ldi	r24, 0x08	; 8
    1e3a:	08 95       	ret
         case '8': return 8;
    1e3c:	89 e0       	ldi	r24, 0x09	; 9
    1e3e:	08 95       	ret
         case '9': return 9;
    1e40:	85 e5       	ldi	r24, 0x55	; 85
         default : return 0x55;
         
       }
     }
    1e42:	08 95       	ret

00001e44 <str_to_int>:


uint16_t str_to_int()
{
	
}
    1e44:	08 95       	ret

00001e46 <play_sound_from_eeprom>:



bool play_sound_from_eeprom(uint16_t address, uint16_t data_size) //воспроизводим звук непосредственно из eeprom

{ 
    1e46:	cf 93       	push	r28
    1e48:	df 93       	push	r29
    1e4a:	58 2f       	mov	r21, r24
	 
	//Точно такой же кусок кода, как и в eeWriteByte...
	/*****УСТАНАВЛИВАЕМ СВЯЗЬ С ВЕДОМЫМ********/
	    do
	    {
	        TWCR=(1<<TWINT)|(1<<TWSTA)|(1<<TWEN);
    1e4c:	e6 e5       	ldi	r30, 0x56	; 86
    1e4e:	f0 e0       	ldi	r31, 0x00	; 0
    1e50:	44 ea       	ldi	r20, 0xA4	; 164
	        while(!(TWCR & (1<<TWINT)));
	 
	        if((TWSR & 0xF8) != TW_START)
    1e52:	a1 e2       	ldi	r26, 0x21	; 33
    1e54:	b0 e0       	ldi	r27, 0x00	; 0
	            return false;
	 
	        TWDR = (slaveAddressConst<<4) + (slaveAddressVar<<1) + WRITEFLAG;
    1e56:	c3 e2       	ldi	r28, 0x23	; 35
    1e58:	d0 e0       	ldi	r29, 0x00	; 0
    1e5a:	30 ea       	ldi	r19, 0xA0	; 160
	        TWCR=(1<<TWINT)|(1<<TWEN);
    1e5c:	24 e8       	ldi	r18, 0x84	; 132
	 
	//Точно такой же кусок кода, как и в eeWriteByte...
	/*****УСТАНАВЛИВАЕМ СВЯЗЬ С ВЕДОМЫМ********/
	    do
	    {
	        TWCR=(1<<TWINT)|(1<<TWSTA)|(1<<TWEN);
    1e5e:	40 83       	st	Z, r20
	        while(!(TWCR & (1<<TWINT)));
    1e60:	80 81       	ld	r24, Z
    1e62:	88 23       	and	r24, r24
    1e64:	ec f7       	brge	.-6      	; 0x1e60 <play_sound_from_eeprom+0x1a>
	 
	        if((TWSR & 0xF8) != TW_START)
    1e66:	8c 91       	ld	r24, X
    1e68:	88 7f       	andi	r24, 0xF8	; 248
    1e6a:	88 30       	cpi	r24, 0x08	; 8
    1e6c:	09 f0       	breq	.+2      	; 0x1e70 <play_sound_from_eeprom+0x2a>
    1e6e:	83 c0       	rjmp	.+262    	; 0x1f76 <play_sound_from_eeprom+0x130>
	            return false;
	 
	        TWDR = (slaveAddressConst<<4) + (slaveAddressVar<<1) + WRITEFLAG;
    1e70:	38 83       	st	Y, r19
	        TWCR=(1<<TWINT)|(1<<TWEN);
    1e72:	20 83       	st	Z, r18
	 
	        while(!(TWCR & (1<<TWINT)));
    1e74:	80 81       	ld	r24, Z
    1e76:	88 23       	and	r24, r24
    1e78:	ec f7       	brge	.-6      	; 0x1e74 <play_sound_from_eeprom+0x2e>
	 
	    }while((TWSR & 0xF8) != TW_MT_SLA_ACK);
    1e7a:	8c 91       	ld	r24, X
    1e7c:	88 7f       	andi	r24, 0xF8	; 248
    1e7e:	88 31       	cpi	r24, 0x18	; 24
    1e80:	71 f7       	brne	.-36     	; 0x1e5e <play_sound_from_eeprom+0x18>
	 
	/*****ПЕРЕДАЕМ АДРЕС ЧТЕНИЯ********/
	    TWDR=(address>>8);
    1e82:	93 b9       	out	0x03, r25	; 3
	    TWCR=(1<<TWINT)|(1<<TWEN);
    1e84:	84 e8       	ldi	r24, 0x84	; 132
    1e86:	86 bf       	out	0x36, r24	; 54
	    while(!(TWCR & (1<<TWINT)));
    1e88:	e6 e5       	ldi	r30, 0x56	; 86
    1e8a:	f0 e0       	ldi	r31, 0x00	; 0
    1e8c:	80 81       	ld	r24, Z
    1e8e:	88 23       	and	r24, r24
    1e90:	ec f7       	brge	.-6      	; 0x1e8c <play_sound_from_eeprom+0x46>
	 
	    if((TWSR & 0xF8) != TW_MT_DATA_ACK)
    1e92:	81 b1       	in	r24, 0x01	; 1
    1e94:	88 7f       	andi	r24, 0xF8	; 248
    1e96:	88 32       	cpi	r24, 0x28	; 40
    1e98:	09 f0       	breq	.+2      	; 0x1e9c <play_sound_from_eeprom+0x56>
    1e9a:	6d c0       	rjmp	.+218    	; 0x1f76 <play_sound_from_eeprom+0x130>
	        return false;
	 
	    TWDR=(address);
    1e9c:	53 b9       	out	0x03, r21	; 3
	    TWCR=(1<<TWINT)|(1<<TWEN);
    1e9e:	84 e8       	ldi	r24, 0x84	; 132
    1ea0:	86 bf       	out	0x36, r24	; 54
	    while(!(TWCR & (1<<TWINT)));
    1ea2:	e6 e5       	ldi	r30, 0x56	; 86
    1ea4:	f0 e0       	ldi	r31, 0x00	; 0
    1ea6:	80 81       	ld	r24, Z
    1ea8:	88 23       	and	r24, r24
    1eaa:	ec f7       	brge	.-6      	; 0x1ea6 <play_sound_from_eeprom+0x60>
	 
	    if((TWSR & 0xF8) != TW_MT_DATA_ACK)
    1eac:	81 b1       	in	r24, 0x01	; 1
    1eae:	88 7f       	andi	r24, 0xF8	; 248
    1eb0:	88 32       	cpi	r24, 0x28	; 40
    1eb2:	09 f0       	breq	.+2      	; 0x1eb6 <play_sound_from_eeprom+0x70>
    1eb4:	60 c0       	rjmp	.+192    	; 0x1f76 <play_sound_from_eeprom+0x130>
	 
	/*****ПЕРЕХОД В РЕЖИМ ЧТЕНИЯ********/
	/*Необходимо опять «связаться» с ведомым, т.к. ранее мы отсылали адресный пакет (slaveAddressConst<<4) + (slaveAddressVar<<1) + WRITEFLAG, чтобы записать адрес чтения байта данных. А теперь нужно перейти в режим чтения (мы же хотим прочитать байт данных), для этого отсылаем новый пакет (slaveAddressConst<<4) + (slaveAddressVar<<1) + READFLAG.*/
	 
	    //Повтор условия начала передачи
	    TWCR=(1<<TWINT)|(1<<TWSTA)|(1<<TWEN);
    1eb6:	84 ea       	ldi	r24, 0xA4	; 164
    1eb8:	86 bf       	out	0x36, r24	; 54
	//ждем выполнения текущей операции
	    while(!(TWCR & (1<<TWINT)));
    1eba:	e6 e5       	ldi	r30, 0x56	; 86
    1ebc:	f0 e0       	ldi	r31, 0x00	; 0
    1ebe:	80 81       	ld	r24, Z
    1ec0:	88 23       	and	r24, r24
    1ec2:	ec f7       	brge	.-6      	; 0x1ebe <play_sound_from_eeprom+0x78>
	 
	/*Проверяем статус. Условие повтора начала передачи (0x10=TW_REP_START) должно подтвердиться*/
	    if((TWSR & 0xF8) != TW_REP_START)
    1ec4:	81 b1       	in	r24, 0x01	; 1
    1ec6:	88 7f       	andi	r24, 0xF8	; 248
    1ec8:	80 31       	cpi	r24, 0x10	; 16
    1eca:	09 f0       	breq	.+2      	; 0x1ece <play_sound_from_eeprom+0x88>
    1ecc:	54 c0       	rjmp	.+168    	; 0x1f76 <play_sound_from_eeprom+0x130>
	        return false;
	 
	    /*Записываем адрес ведомого (7 битов) и в конце бит чтения (1)*/
	    //TWDR=0b1010’000’1;
	    TWDR = (slaveAddressConst<<4) + (slaveAddressVar<<1) + READFLAG;        
    1ece:	81 ea       	ldi	r24, 0xA1	; 161
    1ed0:	83 b9       	out	0x03, r24	; 3
	 
	//Отправляем..
	    TWCR=(1<<TWINT)|(1<<TWEN);
    1ed2:	84 e8       	ldi	r24, 0x84	; 132
    1ed4:	86 bf       	out	0x36, r24	; 54
	    while(!(TWCR & (1<<TWINT)));
    1ed6:	e6 e5       	ldi	r30, 0x56	; 86
    1ed8:	f0 e0       	ldi	r31, 0x00	; 0
    1eda:	80 81       	ld	r24, Z
    1edc:	88 23       	and	r24, r24
    1ede:	ec f7       	brge	.-6      	; 0x1eda <play_sound_from_eeprom+0x94>
	 
	/*Проверяем, нашелся ли ведомый с адресом 1010’000 и готов ли он работать на чтение*/
	    if((TWSR & 0xF8) != TW_MR_SLA_ACK)
    1ee0:	81 b1       	in	r24, 0x01	; 1
    1ee2:	88 7f       	andi	r24, 0xF8	; 248
    1ee4:	80 34       	cpi	r24, 0x40	; 64
    1ee6:	09 f0       	breq	.+2      	; 0x1eea <play_sound_from_eeprom+0xa4>
    1ee8:	46 c0       	rjmp	.+140    	; 0x1f76 <play_sound_from_eeprom+0x130>
	        return false;
	 
	/*****СЧИТЫВАЕМ БАЙТ ДАННЫХ********/
	 for(uint16_t i=0; i < (data_size - 1); i++)//считаем все байты, кроме последнего
    1eea:	61 50       	subi	r22, 0x01	; 1
    1eec:	70 40       	sbci	r23, 0x00	; 0
    1eee:	01 f1       	breq	.+64     	; 0x1f30 <play_sound_from_eeprom+0xea>
    1ef0:	20 e0       	ldi	r18, 0x00	; 0
    1ef2:	30 e0       	ldi	r19, 0x00	; 0
	{

	/*Начинаем прием данных с помощью очистки флага прерывания TWINT. Читаемый байт записывается в регистр TWDR.*/
	    TWCR=(1<<TWINT)|(1<<TWEN)|(1<<TWEA);
    1ef4:	e6 e5       	ldi	r30, 0x56	; 86
    1ef6:	f0 e0       	ldi	r31, 0x00	; 0
    1ef8:	94 ec       	ldi	r25, 0xC4	; 196
	 
	    //Ждем окончания приема..
	    while(!(TWCR & (1<<TWINT)));
	 
	/*Проверяем статус. По протоколу, прием данных должен оканчиваться без подтверждения со стороны ведущего (TW_MR_DATA_NACK = 0x58)*/
	    if((TWSR & 0xF8) != TW_MR_DATA_ACK)
    1efa:	a1 e2       	ldi	r26, 0x21	; 33
    1efc:	b0 e0       	ldi	r27, 0x00	; 0
	        return false;
	 
	    /*Присваиваем переменной data значение, считанное в регистр данных TWDR*/
	    while (fcurr_simple_prepared); //ждем, когда прерывание воспроизведет сеймл
		curr_simple = TWDR; //скармливаем прерыванию очередной сеймпл
    1efe:	c3 e2       	ldi	r28, 0x23	; 35
    1f00:	d0 e0       	ldi	r29, 0x00	; 0
		fcurr_simple_prepared = true;//сообщаем прерыванию, что очередной сейпл готов
    1f02:	41 e0       	ldi	r20, 0x01	; 1
	/*****СЧИТЫВАЕМ БАЙТ ДАННЫХ********/
	 for(uint16_t i=0; i < (data_size - 1); i++)//считаем все байты, кроме последнего
	{

	/*Начинаем прием данных с помощью очистки флага прерывания TWINT. Читаемый байт записывается в регистр TWDR.*/
	    TWCR=(1<<TWINT)|(1<<TWEN)|(1<<TWEA);
    1f04:	90 83       	st	Z, r25
	 
	    //Ждем окончания приема..
	    while(!(TWCR & (1<<TWINT)));
    1f06:	80 81       	ld	r24, Z
    1f08:	88 23       	and	r24, r24
    1f0a:	ec f7       	brge	.-6      	; 0x1f06 <play_sound_from_eeprom+0xc0>
	 
	/*Проверяем статус. По протоколу, прием данных должен оканчиваться без подтверждения со стороны ведущего (TW_MR_DATA_NACK = 0x58)*/
	    if((TWSR & 0xF8) != TW_MR_DATA_ACK)
    1f0c:	8c 91       	ld	r24, X
    1f0e:	88 7f       	andi	r24, 0xF8	; 248
    1f10:	80 35       	cpi	r24, 0x50	; 80
    1f12:	89 f5       	brne	.+98     	; 0x1f76 <play_sound_from_eeprom+0x130>
	        return false;
	 
	    /*Присваиваем переменной data значение, считанное в регистр данных TWDR*/
	    while (fcurr_simple_prepared); //ждем, когда прерывание воспроизведет сеймл
    1f14:	80 91 71 03 	lds	r24, 0x0371
    1f18:	88 23       	and	r24, r24
    1f1a:	e1 f7       	brne	.-8      	; 0x1f14 <play_sound_from_eeprom+0xce>
		curr_simple = TWDR; //скармливаем прерыванию очередной сеймпл
    1f1c:	88 81       	ld	r24, Y
    1f1e:	80 93 6a 03 	sts	0x036A, r24
		fcurr_simple_prepared = true;//сообщаем прерыванию, что очередной сейпл готов
    1f22:	40 93 71 03 	sts	0x0371, r20
	/*Проверяем, нашелся ли ведомый с адресом 1010’000 и готов ли он работать на чтение*/
	    if((TWSR & 0xF8) != TW_MR_SLA_ACK)
	        return false;
	 
	/*****СЧИТЫВАЕМ БАЙТ ДАННЫХ********/
	 for(uint16_t i=0; i < (data_size - 1); i++)//считаем все байты, кроме последнего
    1f26:	2f 5f       	subi	r18, 0xFF	; 255
    1f28:	3f 4f       	sbci	r19, 0xFF	; 255
    1f2a:	26 17       	cp	r18, r22
    1f2c:	37 07       	cpc	r19, r23
    1f2e:	50 f3       	brcs	.-44     	; 0x1f04 <play_sound_from_eeprom+0xbe>
//		buffer++;
		//data=TWDR;
	}

	 /*Начинаем прием данных с помощью очистки флага прерывания TWINT. Читаемый байт записывается в регистр TWDR.*/
	    TWCR=(1<<TWINT)|(1<<TWEN);
    1f30:	84 e8       	ldi	r24, 0x84	; 132
    1f32:	86 bf       	out	0x36, r24	; 54
	 
	    //Ждем окончания приема..
	    while(!(TWCR & (1<<TWINT)));
    1f34:	e6 e5       	ldi	r30, 0x56	; 86
    1f36:	f0 e0       	ldi	r31, 0x00	; 0
    1f38:	80 81       	ld	r24, Z
    1f3a:	88 23       	and	r24, r24
    1f3c:	ec f7       	brge	.-6      	; 0x1f38 <play_sound_from_eeprom+0xf2>
	 
	/*Проверяем статус. По протоколу, прием данных должен оканчиваться без подтверждения со стороны ведущего (TW_MR_DATA_NACK = 0x58)*/
	    if((TWSR & 0xF8) != TW_MR_DATA_NACK)
    1f3e:	81 b1       	in	r24, 0x01	; 1
    1f40:	88 7f       	andi	r24, 0xF8	; 248
    1f42:	88 35       	cpi	r24, 0x58	; 88
    1f44:	c1 f4       	brne	.+48     	; 0x1f76 <play_sound_from_eeprom+0x130>
	        return false;
	 
	    /*Присваиваем переменной data значение, считанное в регистр данных TWDR*/
	    

		while (fcurr_simple_prepared); //ждем, когда прерывание воспроизведет сеймл
    1f46:	80 91 71 03 	lds	r24, 0x0371
    1f4a:	88 23       	and	r24, r24
    1f4c:	e1 f7       	brne	.-8      	; 0x1f46 <play_sound_from_eeprom+0x100>
		curr_simple = TWDR; //скармливаем прерыванию очередной сеймпл
    1f4e:	83 b1       	in	r24, 0x03	; 3
    1f50:	80 93 6a 03 	sts	0x036A, r24
		fcurr_simple_prepared = true;//сообщаем прерыванию, что очередной сейпл готов
    1f54:	81 e0       	ldi	r24, 0x01	; 1
    1f56:	80 93 71 03 	sts	0x0371, r24
//		*buffer = TWDR;


	    /*Устанавливаем условие завершения передачи данных (СТОП)*/
	    TWCR=(1<<TWINT)|(1<<TWEN)|(1<<TWSTO);
    1f5a:	84 e9       	ldi	r24, 0x94	; 148
    1f5c:	86 bf       	out	0x36, r24	; 54
	 
	    //Ждем установки условия СТОП
	    while(TWCR & (1<<TWSTO));
    1f5e:	e6 e5       	ldi	r30, 0x56	; 86
    1f60:	f0 e0       	ldi	r31, 0x00	; 0
    1f62:	80 81       	ld	r24, Z
    1f64:	84 fd       	sbrc	r24, 4
    1f66:	fd cf       	rjmp	.-6      	; 0x1f62 <play_sound_from_eeprom+0x11c>
	 
    //Возвращаем считанный байт
    OCR0 = 0;
    1f68:	1c be       	out	0x3c, r1	; 60
	curr_simple=0;
    1f6a:	10 92 6a 03 	sts	0x036A, r1
	fcurr_simple_prepared=false;
    1f6e:	10 92 71 03 	sts	0x0371, r1
    1f72:	81 e0       	ldi	r24, 0x01	; 1
    1f74:	01 c0       	rjmp	.+2      	; 0x1f78 <play_sound_from_eeprom+0x132>
	return true;
    1f76:	80 e0       	ldi	r24, 0x00	; 0
}
    1f78:	df 91       	pop	r29
    1f7a:	cf 91       	pop	r28
    1f7c:	08 95       	ret

00001f7e <play_sound_6>:
}
void play_sound_5(){//воспроизводим звук 5
play_sound_from_eeprom(eeprom_read_word(&sound_5_adress),eeprom_read_word(&sound_5_size));
}

void play_sound_6(){//воспроизводим звук 6
    1f7e:	0f 93       	push	r16
    1f80:	1f 93       	push	r17
play_sound_from_eeprom(eeprom_read_word(&sound_6_adress),eeprom_read_word(&sound_6_size));
    1f82:	86 e2       	ldi	r24, 0x26	; 38
    1f84:	90 e0       	ldi	r25, 0x00	; 0
    1f86:	0e 94 63 28 	call	0x50c6	; 0x50c6 <__eerd_word_m32>
    1f8a:	8c 01       	movw	r16, r24
    1f8c:	88 e2       	ldi	r24, 0x28	; 40
    1f8e:	90 e0       	ldi	r25, 0x00	; 0
    1f90:	0e 94 63 28 	call	0x50c6	; 0x50c6 <__eerd_word_m32>
    1f94:	bc 01       	movw	r22, r24
    1f96:	c8 01       	movw	r24, r16
    1f98:	0e 94 23 0f 	call	0x1e46	; 0x1e46 <play_sound_from_eeprom>
}
    1f9c:	1f 91       	pop	r17
    1f9e:	0f 91       	pop	r16
    1fa0:	08 95       	ret

00001fa2 <play_sound_5>:
play_sound_from_eeprom(eeprom_read_word(&sound_3_adress),eeprom_read_word(&sound_3_size));
}
void play_sound_4(){//воспроизводим звук 4
play_sound_from_eeprom(eeprom_read_word(&sound_4_adress),eeprom_read_word(&sound_4_size));
}
void play_sound_5(){//воспроизводим звук 5
    1fa2:	0f 93       	push	r16
    1fa4:	1f 93       	push	r17
play_sound_from_eeprom(eeprom_read_word(&sound_5_adress),eeprom_read_word(&sound_5_size));
    1fa6:	82 e2       	ldi	r24, 0x22	; 34
    1fa8:	90 e0       	ldi	r25, 0x00	; 0
    1faa:	0e 94 63 28 	call	0x50c6	; 0x50c6 <__eerd_word_m32>
    1fae:	8c 01       	movw	r16, r24
    1fb0:	84 e2       	ldi	r24, 0x24	; 36
    1fb2:	90 e0       	ldi	r25, 0x00	; 0
    1fb4:	0e 94 63 28 	call	0x50c6	; 0x50c6 <__eerd_word_m32>
    1fb8:	bc 01       	movw	r22, r24
    1fba:	c8 01       	movw	r24, r16
    1fbc:	0e 94 23 0f 	call	0x1e46	; 0x1e46 <play_sound_from_eeprom>
}
    1fc0:	1f 91       	pop	r17
    1fc2:	0f 91       	pop	r16
    1fc4:	08 95       	ret

00001fc6 <play_sound_4>:
}

void play_sound_3(){//воспроизводим звук 3
play_sound_from_eeprom(eeprom_read_word(&sound_3_adress),eeprom_read_word(&sound_3_size));
}
void play_sound_4(){//воспроизводим звук 4
    1fc6:	0f 93       	push	r16
    1fc8:	1f 93       	push	r17
play_sound_from_eeprom(eeprom_read_word(&sound_4_adress),eeprom_read_word(&sound_4_size));
    1fca:	8e e1       	ldi	r24, 0x1E	; 30
    1fcc:	90 e0       	ldi	r25, 0x00	; 0
    1fce:	0e 94 63 28 	call	0x50c6	; 0x50c6 <__eerd_word_m32>
    1fd2:	8c 01       	movw	r16, r24
    1fd4:	80 e2       	ldi	r24, 0x20	; 32
    1fd6:	90 e0       	ldi	r25, 0x00	; 0
    1fd8:	0e 94 63 28 	call	0x50c6	; 0x50c6 <__eerd_word_m32>
    1fdc:	bc 01       	movw	r22, r24
    1fde:	c8 01       	movw	r24, r16
    1fe0:	0e 94 23 0f 	call	0x1e46	; 0x1e46 <play_sound_from_eeprom>
}
    1fe4:	1f 91       	pop	r17
    1fe6:	0f 91       	pop	r16
    1fe8:	08 95       	ret

00001fea <playclipoutsound>:


void playclipoutsound(void) //Воспроизводим звук при отпускании затвора
{
//play_hit_snd = true; //разрешаем воспроизведенме звука
play_sound_4();
    1fea:	0e 94 e3 0f 	call	0x1fc6	; 0x1fc6 <play_sound_4>

play_hit_snd = true; //разрешаем воспроизведенме звука

while (play_hit_snd);// ждем окончания воспроизведения звука
*/
}
    1fee:	08 95       	ret

00001ff0 <play_sound_3>:
}
void play_sound_2(){//воспроизводим звук 2
play_sound_from_eeprom(eeprom_read_word(&sound_2_adress),eeprom_read_word(&sound_2_size));
}

void play_sound_3(){//воспроизводим звук 3
    1ff0:	0f 93       	push	r16
    1ff2:	1f 93       	push	r17
play_sound_from_eeprom(eeprom_read_word(&sound_3_adress),eeprom_read_word(&sound_3_size));
    1ff4:	8a e1       	ldi	r24, 0x1A	; 26
    1ff6:	90 e0       	ldi	r25, 0x00	; 0
    1ff8:	0e 94 63 28 	call	0x50c6	; 0x50c6 <__eerd_word_m32>
    1ffc:	8c 01       	movw	r16, r24
    1ffe:	8c e1       	ldi	r24, 0x1C	; 28
    2000:	90 e0       	ldi	r25, 0x00	; 0
    2002:	0e 94 63 28 	call	0x50c6	; 0x50c6 <__eerd_word_m32>
    2006:	bc 01       	movw	r22, r24
    2008:	c8 01       	movw	r24, r16
    200a:	0e 94 23 0f 	call	0x1e46	; 0x1e46 <play_sound_from_eeprom>
}
    200e:	1f 91       	pop	r17
    2010:	0f 91       	pop	r16
    2012:	08 95       	ret

00002014 <playclipinsound>:


void playclipinsound(void) //Воспроизводим звук при передёргивании затвора
{
//play_hit_snd = true; //разрешаем воспроизведенме звука
play_sound_3();
    2014:	0e 94 f8 0f 	call	0x1ff0	; 0x1ff0 <play_sound_3>

play_hit_snd = true; //разрешаем воспроизведенме звука

while (play_hit_snd);// ждем окончания воспроизведения звука
*/
}
    2018:	08 95       	ret

0000201a <play_sound_2>:
}

void play_sound_1(){//воспроизводим звук 1
play_sound_from_eeprom(eeprom_read_word(&sound_1_adress),eeprom_read_word(&sound_1_size));
}
void play_sound_2(){//воспроизводим звук 2
    201a:	0f 93       	push	r16
    201c:	1f 93       	push	r17
play_sound_from_eeprom(eeprom_read_word(&sound_2_adress),eeprom_read_word(&sound_2_size));
    201e:	86 e1       	ldi	r24, 0x16	; 22
    2020:	90 e0       	ldi	r25, 0x00	; 0
    2022:	0e 94 63 28 	call	0x50c6	; 0x50c6 <__eerd_word_m32>
    2026:	8c 01       	movw	r16, r24
    2028:	88 e1       	ldi	r24, 0x18	; 24
    202a:	90 e0       	ldi	r25, 0x00	; 0
    202c:	0e 94 63 28 	call	0x50c6	; 0x50c6 <__eerd_word_m32>
    2030:	bc 01       	movw	r22, r24
    2032:	c8 01       	movw	r24, r16
    2034:	0e 94 23 0f 	call	0x1e46	; 0x1e46 <play_sound_from_eeprom>
}
    2038:	1f 91       	pop	r17
    203a:	0f 91       	pop	r16
    203c:	08 95       	ret

0000203e <playhitsound>:


void playhitsound(void) //Воспроизводим звук при ранении

{
if (simples_in_queue>1) //если звук выстрла воспроизводится
    203e:	80 91 13 03 	lds	r24, 0x0313
    2042:	90 91 14 03 	lds	r25, 0x0314
    2046:	02 97       	sbiw	r24, 0x02	; 2
    2048:	50 f0       	brcs	.+20     	; 0x205e <playhitsound+0x20>
				{
					simples_in_queue=1;//закроем eeprom
    204a:	81 e0       	ldi	r24, 0x01	; 1
    204c:	90 e0       	ldi	r25, 0x00	; 0
    204e:	90 93 14 03 	sts	0x0314, r25
    2052:	80 93 13 03 	sts	0x0313, r24
					while (eeprom_is_open);//дождемся, пока eerom закроется
    2056:	80 91 7e 03 	lds	r24, 0x037E
    205a:	88 23       	and	r24, r24
    205c:	e1 f7       	brne	.-8      	; 0x2056 <playhitsound+0x18>
				}
play_sound_2();
    205e:	0e 94 0d 10 	call	0x201a	; 0x201a <play_sound_2>

play_hit_snd = true; //разрешаем воспроизведенме звука

while (play_hit_snd);// ждем окончания воспроизведения звука

*/}
    2062:	08 95       	ret

00002064 <play_sound_1>:
	curr_simple=0;
	fcurr_simple_prepared=false;
	return true;
}

void play_sound_1(){//воспроизводим звук 1
    2064:	0f 93       	push	r16
    2066:	1f 93       	push	r17
play_sound_from_eeprom(eeprom_read_word(&sound_1_adress),eeprom_read_word(&sound_1_size));
    2068:	82 e1       	ldi	r24, 0x12	; 18
    206a:	90 e0       	ldi	r25, 0x00	; 0
    206c:	0e 94 63 28 	call	0x50c6	; 0x50c6 <__eerd_word_m32>
    2070:	8c 01       	movw	r16, r24
    2072:	84 e1       	ldi	r24, 0x14	; 20
    2074:	90 e0       	ldi	r25, 0x00	; 0
    2076:	0e 94 63 28 	call	0x50c6	; 0x50c6 <__eerd_word_m32>
    207a:	bc 01       	movw	r22, r24
    207c:	c8 01       	movw	r24, r16
    207e:	0e 94 23 0f 	call	0x1e46	; 0x1e46 <play_sound_from_eeprom>
}
    2082:	1f 91       	pop	r17
    2084:	0f 91       	pop	r16
    2086:	08 95       	ret

00002088 <display_voltage_update>:
lcd_puts(int_to_str(clips,0));
lcd_puts(" ");
}


void display_voltage_update(){//обновляем значение жизни на дисплее
    2088:	ef 92       	push	r14
    208a:	ff 92       	push	r15
    208c:	0f 93       	push	r16
    208e:	1f 93       	push	r17
    2090:	df 93       	push	r29
    2092:	cf 93       	push	r28
    2094:	00 d0       	rcall	.+0      	; 0x2096 <display_voltage_update+0xe>
    2096:	cd b7       	in	r28, 0x3d	; 61
    2098:	de b7       	in	r29, 0x3e	; 62

volatile uint16_t adc_data;
//volatile uint16_t batt_voltage;
adc_data=ReadADC(ADC_CHANNEL);
    209a:	87 e0       	ldi	r24, 0x07	; 7
    209c:	0e 94 9f 0e 	call	0x1d3e	; 0x1d3e <ReadADC>
    20a0:	9a 83       	std	Y+2, r25	; 0x02
    20a2:	89 83       	std	Y+1, r24	; 0x01


uint16_t delta; //разница между значениями АЦП при полностью заряженной и полностью разряженной батареи
uint8_t curr_batt_level; //текузий уровеь состояния батареи (1 из 6 возможных)
uint16_t full_level, low_level;//значения полностью заряженной и полностью разряженной батареи в значениях АЦП
full_level = (eeprom_read_word(&eeprom_batt_full_voltage)*4)/75;
    20a4:	86 e0       	ldi	r24, 0x06	; 6
    20a6:	90 e0       	ldi	r25, 0x00	; 0
    20a8:	0e 94 63 28 	call	0x50c6	; 0x50c6 <__eerd_word_m32>
    20ac:	7c 01       	movw	r14, r24
low_level = (eeprom_read_word(&eeprom_batt_low_voltage)*4)/75;
    20ae:	88 e0       	ldi	r24, 0x08	; 8
    20b0:	90 e0       	ldi	r25, 0x00	; 0
    20b2:	0e 94 63 28 	call	0x50c6	; 0x50c6 <__eerd_word_m32>
    20b6:	8c 01       	movw	r16, r24


//delta=((eeprom_read_word(&eeprom_batt_full_voltage)-eeprom_read_word(&eeprom_batt_low_voltage))*4)/75;
delta = full_level - low_level;

lcd_gotoxy(12, 0);
    20b8:	8c e0       	ldi	r24, 0x0C	; 12
    20ba:	60 e0       	ldi	r22, 0x00	; 0
    20bc:	0e 94 ef 04 	call	0x9de	; 0x9de <lcd_gotoxy>

switch(display_batt_mode)
    20c0:	80 91 7f 03 	lds	r24, 0x037F
    20c4:	88 23       	and	r24, r24
    20c6:	21 f0       	breq	.+8      	; 0x20d0 <display_voltage_update+0x48>
    20c8:	81 30       	cpi	r24, 0x01	; 1
    20ca:	09 f0       	breq	.+2      	; 0x20ce <display_voltage_update+0x46>
    20cc:	7c c0       	rjmp	.+248    	; 0x21c6 <display_voltage_update+0x13e>
    20ce:	41 c0       	rjmp	.+130    	; 0x2152 <display_voltage_update+0xca>

uint16_t delta; //разница между значениями АЦП при полностью заряженной и полностью разряженной батареи
uint8_t curr_batt_level; //текузий уровеь состояния батареи (1 из 6 возможных)
uint16_t full_level, low_level;//значения полностью заряженной и полностью разряженной батареи в значениях АЦП
full_level = (eeprom_read_word(&eeprom_batt_full_voltage)*4)/75;
low_level = (eeprom_read_word(&eeprom_batt_low_voltage)*4)/75;
    20d0:	c8 01       	movw	r24, r16
    20d2:	88 0f       	add	r24, r24
    20d4:	99 1f       	adc	r25, r25
    20d6:	88 0f       	add	r24, r24
    20d8:	99 1f       	adc	r25, r25
    20da:	6b e4       	ldi	r22, 0x4B	; 75
    20dc:	70 e0       	ldi	r23, 0x00	; 0
    20de:	0e 94 0e 28 	call	0x501c	; 0x501c <__udivmodhi4>
    20e2:	86 2f       	mov	r24, r22
    20e4:	97 2f       	mov	r25, r23
    20e6:	8c 01       	movw	r16, r24

switch(display_batt_mode)
{
	case icon:
	{
		lcd_puts("   ");
    20e8:	87 e9       	ldi	r24, 0x97	; 151
    20ea:	90 e0       	ldi	r25, 0x00	; 0
    20ec:	0e 94 df 04 	call	0x9be	; 0x9be <lcd_puts>
	//	lcd_gotoxy(15, 0);
		if (adc_data < low_level) 
    20f0:	89 81       	ldd	r24, Y+1	; 0x01
    20f2:	9a 81       	ldd	r25, Y+2	; 0x02
    20f4:	80 17       	cp	r24, r16
    20f6:	91 07       	cpc	r25, r17
    20f8:	20 f4       	brcc	.+8      	; 0x2102 <display_voltage_update+0x7a>
		{
//		curr_batt_level=0;
			lcd_putc(0);
    20fa:	80 e0       	ldi	r24, 0x00	; 0
    20fc:	0e 94 c7 04 	call	0x98e	; 0x98e <lcd_putc>
    2100:	62 c0       	rjmp	.+196    	; 0x21c6 <display_voltage_update+0x13e>


uint16_t delta; //разница между значениями АЦП при полностью заряженной и полностью разряженной батареи
uint8_t curr_batt_level; //текузий уровеь состояния батареи (1 из 6 возможных)
uint16_t full_level, low_level;//значения полностью заряженной и полностью разряженной батареи в значениях АЦП
full_level = (eeprom_read_word(&eeprom_batt_full_voltage)*4)/75;
    2102:	c7 01       	movw	r24, r14
    2104:	88 0f       	add	r24, r24
    2106:	99 1f       	adc	r25, r25
    2108:	88 0f       	add	r24, r24
    210a:	99 1f       	adc	r25, r25
    210c:	6b e4       	ldi	r22, 0x4B	; 75
    210e:	70 e0       	ldi	r23, 0x00	; 0
    2110:	0e 94 0e 28 	call	0x501c	; 0x501c <__udivmodhi4>
    2114:	86 2f       	mov	r24, r22
    2116:	97 2f       	mov	r25, r23
    2118:	bc 01       	movw	r22, r24
		{
//		curr_batt_level=0;
			lcd_putc(0);
			return;
		}
		if (adc_data >full_level)
    211a:	89 81       	ldd	r24, Y+1	; 0x01
    211c:	9a 81       	ldd	r25, Y+2	; 0x02
    211e:	68 17       	cp	r22, r24
    2120:	79 07       	cpc	r23, r25
    2122:	20 f4       	brcc	.+8      	; 0x212c <display_voltage_update+0xa4>
		{
			lcd_putc(5);
    2124:	85 e0       	ldi	r24, 0x05	; 5
    2126:	0e 94 c7 04 	call	0x98e	; 0x98e <lcd_putc>
    212a:	4d c0       	rjmp	.+154    	; 0x21c6 <display_voltage_update+0x13e>
			return;
		}
		curr_batt_level = (6*(adc_data - low_level))/delta;
    212c:	29 81       	ldd	r18, Y+1	; 0x01
    212e:	3a 81       	ldd	r19, Y+2	; 0x02
		lcd_putc(curr_batt_level);
    2130:	20 1b       	sub	r18, r16
    2132:	31 0b       	sbc	r19, r17
    2134:	c9 01       	movw	r24, r18
    2136:	88 0f       	add	r24, r24
    2138:	99 1f       	adc	r25, r25
    213a:	82 0f       	add	r24, r18
    213c:	93 1f       	adc	r25, r19
    213e:	60 1b       	sub	r22, r16
    2140:	71 0b       	sbc	r23, r17
    2142:	88 0f       	add	r24, r24
    2144:	99 1f       	adc	r25, r25
    2146:	0e 94 0e 28 	call	0x501c	; 0x501c <__udivmodhi4>
    214a:	86 2f       	mov	r24, r22
    214c:	0e 94 c7 04 	call	0x98e	; 0x98e <lcd_putc>
    2150:	3a c0       	rjmp	.+116    	; 0x21c6 <display_voltage_update+0x13e>

	}
	break;
	case digit:
	{
		adc_data=(adc_data*15)/8;
    2152:	29 81       	ldd	r18, Y+1	; 0x01
    2154:	3a 81       	ldd	r19, Y+2	; 0x02
    2156:	c9 01       	movw	r24, r18
    2158:	88 0f       	add	r24, r24
    215a:	99 1f       	adc	r25, r25
    215c:	82 0f       	add	r24, r18
    215e:	93 1f       	adc	r25, r19
    2160:	9c 01       	movw	r18, r24
    2162:	22 0f       	add	r18, r18
    2164:	33 1f       	adc	r19, r19
    2166:	22 0f       	add	r18, r18
    2168:	33 1f       	adc	r19, r19
    216a:	82 0f       	add	r24, r18
    216c:	93 1f       	adc	r25, r19
    216e:	96 95       	lsr	r25
    2170:	87 95       	ror	r24
    2172:	96 95       	lsr	r25
    2174:	87 95       	ror	r24
    2176:	96 95       	lsr	r25
    2178:	87 95       	ror	r24
    217a:	9a 83       	std	Y+2, r25	; 0x02
    217c:	89 83       	std	Y+1, r24	; 0x01
		lcd_puts(int_to_str(adc_data/100,0));
    217e:	89 81       	ldd	r24, Y+1	; 0x01
    2180:	9a 81       	ldd	r25, Y+2	; 0x02
    2182:	64 e6       	ldi	r22, 0x64	; 100
    2184:	70 e0       	ldi	r23, 0x00	; 0
    2186:	0e 94 0e 28 	call	0x501c	; 0x501c <__udivmodhi4>
    218a:	86 2f       	mov	r24, r22
    218c:	60 e0       	ldi	r22, 0x00	; 0
    218e:	0e 94 e3 0c 	call	0x19c6	; 0x19c6 <int_to_str>
    2192:	0e 94 df 04 	call	0x9be	; 0x9be <lcd_puts>
		lcd_puts(",");
    2196:	8b e9       	ldi	r24, 0x9B	; 155
    2198:	90 e0       	ldi	r25, 0x00	; 0
    219a:	0e 94 df 04 	call	0x9be	; 0x9be <lcd_puts>
		lcd_puts(int_to_str((adc_data%100)/10,0));
    219e:	89 81       	ldd	r24, Y+1	; 0x01
    21a0:	9a 81       	ldd	r25, Y+2	; 0x02
    21a2:	64 e6       	ldi	r22, 0x64	; 100
    21a4:	70 e0       	ldi	r23, 0x00	; 0
    21a6:	0e 94 0e 28 	call	0x501c	; 0x501c <__udivmodhi4>
    21aa:	6a e0       	ldi	r22, 0x0A	; 10
    21ac:	70 e0       	ldi	r23, 0x00	; 0
    21ae:	0e 94 0e 28 	call	0x501c	; 0x501c <__udivmodhi4>
    21b2:	86 2f       	mov	r24, r22
    21b4:	60 e0       	ldi	r22, 0x00	; 0
    21b6:	0e 94 e3 0c 	call	0x19c6	; 0x19c6 <int_to_str>
    21ba:	0e 94 df 04 	call	0x9be	; 0x9be <lcd_puts>
		lcd_puts(" ");
    21be:	86 e7       	ldi	r24, 0x76	; 118
    21c0:	90 e0       	ldi	r25, 0x00	; 0
    21c2:	0e 94 df 04 	call	0x9be	; 0x9be <lcd_puts>
*/




}
    21c6:	0f 90       	pop	r0
    21c8:	0f 90       	pop	r0
    21ca:	cf 91       	pop	r28
    21cc:	df 91       	pop	r29
    21ce:	1f 91       	pop	r17
    21d0:	0f 91       	pop	r16
    21d2:	ff 90       	pop	r15
    21d4:	ef 90       	pop	r14
    21d6:	08 95       	ret

000021d8 <command_46_slot>:
void command_45_slot(void){//batt_low_voltage=
get_word_argument_value(&eeprom_batt_low_voltage, 4500, 45000);
}

void command_46_slot(void){//batt_low_voltage?
USART_SendStr(long_int_to_str(eeprom_read_word(&eeprom_batt_low_voltage),0));
    21d8:	88 e0       	ldi	r24, 0x08	; 8
    21da:	90 e0       	ldi	r25, 0x00	; 0
    21dc:	0e 94 63 28 	call	0x50c6	; 0x50c6 <__eerd_word_m32>
    21e0:	60 e0       	ldi	r22, 0x00	; 0
    21e2:	0e 94 7d 0d 	call	0x1afa	; 0x1afa <long_int_to_str>
    21e6:	0e 94 54 27 	call	0x4ea8	; 0x4ea8 <USART_SendStr>
USART_SendStrP(ok_string);
    21ea:	8b e6       	ldi	r24, 0x6B	; 107
    21ec:	94 e0       	ldi	r25, 0x04	; 4
    21ee:	0e 94 64 27 	call	0x4ec8	; 0x4ec8 <USART_SendStrP>
}
    21f2:	08 95       	ret

000021f4 <command_44_slot>:
void command_43_slot(void){//batt_full_voltage=
get_word_argument_value(&eeprom_batt_full_voltage, 0, 45000);
}

void command_44_slot(void){//batt_full_voltage?
USART_SendStr(long_int_to_str(eeprom_read_word(&eeprom_batt_full_voltage),0));
    21f4:	86 e0       	ldi	r24, 0x06	; 6
    21f6:	90 e0       	ldi	r25, 0x00	; 0
    21f8:	0e 94 63 28 	call	0x50c6	; 0x50c6 <__eerd_word_m32>
    21fc:	60 e0       	ldi	r22, 0x00	; 0
    21fe:	0e 94 7d 0d 	call	0x1afa	; 0x1afa <long_int_to_str>
    2202:	0e 94 54 27 	call	0x4ea8	; 0x4ea8 <USART_SendStr>
USART_SendStrP(ok_string);
    2206:	8b e6       	ldi	r24, 0x6B	; 107
    2208:	94 e0       	ldi	r25, 0x04	; 4
    220a:	0e 94 64 27 	call	0x4ec8	; 0x4ec8 <USART_SendStrP>
}
    220e:	08 95       	ret

00002210 <command_32_slot>:




void command_32_slot(void){//"play_shot_sound"
play_sound_1();
    2210:	0e 94 32 10 	call	0x2064	; 0x2064 <play_sound_1>
//playhitsound();
//play_shot_sound();
USART_SendStr("OK\r\n");
    2214:	8d e9       	ldi	r24, 0x9D	; 157
    2216:	90 e0       	ldi	r25, 0x00	; 0
    2218:	0e 94 54 27 	call	0x4ea8	; 0x4ea8 <USART_SendStr>
}
    221c:	08 95       	ret

0000221e <command_31_slot>:
void command_30_slot(void){//"sound_6_size?"
apply_sound_get_command(&sound_6_size);
}


void command_31_slot(void){//"play_sound"
    221e:	cf 92       	push	r12
    2220:	df 92       	push	r13
    2222:	ef 92       	push	r14
    2224:	ff 92       	push	r15
    2226:	0f 93       	push	r16
    2228:	1f 93       	push	r17
    222a:	df 93       	push	r29
    222c:	cf 93       	push	r28
    222e:	00 d0       	rcall	.+0      	; 0x2230 <command_31_slot+0x12>
    2230:	cd b7       	in	r28, 0x3d	; 61
    2232:	de b7       	in	r29, 0x3e	; 62
bool param_not_empty = false;
volatile char ch_tmp;
volatile uint8_t result = 0;
    2234:	1a 82       	std	Y+2, r1	; 0x02
    2236:	20 e0       	ldi	r18, 0x00	; 0
while(usartRxBuf[rxBufHead] !='\r')
    2238:	0f 2e       	mov	r0, r31
    223a:	f9 e8       	ldi	r31, 0x89	; 137
    223c:	ef 2e       	mov	r14, r31
    223e:	f4 e0       	ldi	r31, 0x04	; 4
    2240:	ff 2e       	mov	r15, r31
    2242:	f0 2d       	mov	r31, r0

		ch_tmp = usartRxBuf[rxBufHead++];
		if (ch_tmp==' ') continue; //игнорируем пробелы
		if ((ch_tmp >= '0')&&(ch_tmp<= '9'))
		{
			result = result*10+char_to_int(ch_tmp);
    2244:	0f 2e       	mov	r0, r31
    2246:	fa e0       	ldi	r31, 0x0A	; 10
    2248:	cf 2e       	mov	r12, r31
    224a:	f0 2d       	mov	r31, r0
    224c:	dd 24       	eor	r13, r13
    224e:	d3 94       	inc	r13
    2250:	23 c0       	rjmp	.+70     	; 0x2298 <command_31_slot+0x7a>
volatile uint8_t result = 0;
while(usartRxBuf[rxBufHead] !='\r')

	{

		ch_tmp = usartRxBuf[rxBufHead++];
    2252:	80 91 f4 02 	lds	r24, 0x02F4
    2256:	f7 01       	movw	r30, r14
    2258:	e8 0f       	add	r30, r24
    225a:	f1 1d       	adc	r31, r1
    225c:	90 81       	ld	r25, Z
    225e:	99 83       	std	Y+1, r25	; 0x01
    2260:	8f 5f       	subi	r24, 0xFF	; 255
    2262:	80 93 f4 02 	sts	0x02F4, r24
		if (ch_tmp==' ') continue; //игнорируем пробелы
    2266:	89 81       	ldd	r24, Y+1	; 0x01
    2268:	80 32       	cpi	r24, 0x20	; 32
    226a:	b1 f0       	breq	.+44     	; 0x2298 <command_31_slot+0x7a>
		if ((ch_tmp >= '0')&&(ch_tmp<= '9'))
    226c:	89 81       	ldd	r24, Y+1	; 0x01
    226e:	80 33       	cpi	r24, 0x30	; 48
    2270:	70 f0       	brcs	.+28     	; 0x228e <command_31_slot+0x70>
    2272:	89 81       	ldd	r24, Y+1	; 0x01
    2274:	8a 33       	cpi	r24, 0x3A	; 58
    2276:	58 f4       	brcc	.+22     	; 0x228e <command_31_slot+0x70>
		{
			result = result*10+char_to_int(ch_tmp);
    2278:	0a 81       	ldd	r16, Y+2	; 0x02
    227a:	89 81       	ldd	r24, Y+1	; 0x01
    227c:	0e 94 ee 0e 	call	0x1ddc	; 0x1ddc <char_to_int>
    2280:	0c 9d       	mul	r16, r12
    2282:	80 01       	movw	r16, r0
    2284:	11 24       	eor	r1, r1
    2286:	80 0f       	add	r24, r16
    2288:	8a 83       	std	Y+2, r24	; 0x02
    228a:	2d 2d       	mov	r18, r13
    228c:	05 c0       	rjmp	.+10     	; 0x2298 <command_31_slot+0x7a>
			param_not_empty = true;
		}		
		else 
		{
			USART_SendStr("ERROR\n\r");
    228e:	82 ea       	ldi	r24, 0xA2	; 162
    2290:	90 e0       	ldi	r25, 0x00	; 0
    2292:	0e 94 54 27 	call	0x4ea8	; 0x4ea8 <USART_SendStr>
    2296:	40 c0       	rjmp	.+128    	; 0x2318 <command_31_slot+0xfa>

void command_31_slot(void){//"play_sound"
bool param_not_empty = false;
volatile char ch_tmp;
volatile uint8_t result = 0;
while(usartRxBuf[rxBufHead] !='\r')
    2298:	80 91 f4 02 	lds	r24, 0x02F4
    229c:	f7 01       	movw	r30, r14
    229e:	e8 0f       	add	r30, r24
    22a0:	f1 1d       	adc	r31, r1
    22a2:	80 81       	ld	r24, Z
    22a4:	8d 30       	cpi	r24, 0x0D	; 13
    22a6:	a9 f6       	brne	.-86     	; 0x2252 <command_31_slot+0x34>
			USART_SendStr("ERROR\n\r");
			return;
		}
	}

if (!param_not_empty) 
    22a8:	22 23       	and	r18, r18
    22aa:	29 f4       	brne	.+10     	; 0x22b6 <command_31_slot+0x98>
{
	USART_SendStrP(parameter_empty_error);
    22ac:	8f e0       	ldi	r24, 0x0F	; 15
    22ae:	94 e0       	ldi	r25, 0x04	; 4
    22b0:	0e 94 64 27 	call	0x4ec8	; 0x4ec8 <USART_SendStrP>
    22b4:	31 c0       	rjmp	.+98     	; 0x2318 <command_31_slot+0xfa>
	return;
}
if ((result > 6)||(result==0))
    22b6:	8a 81       	ldd	r24, Y+2	; 0x02
    22b8:	87 30       	cpi	r24, 0x07	; 7
    22ba:	18 f4       	brcc	.+6      	; 0x22c2 <command_31_slot+0xa4>
    22bc:	8a 81       	ldd	r24, Y+2	; 0x02
    22be:	88 23       	and	r24, r24
    22c0:	29 f4       	brne	.+10     	; 0x22cc <command_31_slot+0xae>
{
	USART_SendStrP(parameter_out_of_range_error);
    22c2:	82 e3       	ldi	r24, 0x32	; 50
    22c4:	94 e0       	ldi	r25, 0x04	; 4
    22c6:	0e 94 64 27 	call	0x4ec8	; 0x4ec8 <USART_SendStrP>
    22ca:	26 c0       	rjmp	.+76     	; 0x2318 <command_31_slot+0xfa>
	return;
}
//lcd_gotoxy(7, 0);
//lcd_puts(int_to_str(result,0));
switch (result)
    22cc:	8a 81       	ldd	r24, Y+2	; 0x02
    22ce:	83 30       	cpi	r24, 0x03	; 3
    22d0:	a1 f0       	breq	.+40     	; 0x22fa <command_31_slot+0xdc>
    22d2:	84 30       	cpi	r24, 0x04	; 4
    22d4:	28 f4       	brcc	.+10     	; 0x22e0 <command_31_slot+0xc2>
    22d6:	81 30       	cpi	r24, 0x01	; 1
    22d8:	51 f0       	breq	.+20     	; 0x22ee <command_31_slot+0xd0>
    22da:	82 30       	cpi	r24, 0x02	; 2
    22dc:	c9 f4       	brne	.+50     	; 0x2310 <command_31_slot+0xf2>
    22de:	0a c0       	rjmp	.+20     	; 0x22f4 <command_31_slot+0xd6>
    22e0:	85 30       	cpi	r24, 0x05	; 5
    22e2:	89 f0       	breq	.+34     	; 0x2306 <command_31_slot+0xe8>
    22e4:	85 30       	cpi	r24, 0x05	; 5
    22e6:	60 f0       	brcs	.+24     	; 0x2300 <command_31_slot+0xe2>
    22e8:	86 30       	cpi	r24, 0x06	; 6
    22ea:	91 f4       	brne	.+36     	; 0x2310 <command_31_slot+0xf2>
    22ec:	0f c0       	rjmp	.+30     	; 0x230c <command_31_slot+0xee>
	{
		case 1:
		{
			play_sound_1();
    22ee:	0e 94 32 10 	call	0x2064	; 0x2064 <play_sound_1>
    22f2:	0e c0       	rjmp	.+28     	; 0x2310 <command_31_slot+0xf2>
		}
		break;
		case 2:
		{
			play_sound_2();
    22f4:	0e 94 0d 10 	call	0x201a	; 0x201a <play_sound_2>
    22f8:	0b c0       	rjmp	.+22     	; 0x2310 <command_31_slot+0xf2>
		}
		break;
		case 3:
		{
			play_sound_3();
    22fa:	0e 94 f8 0f 	call	0x1ff0	; 0x1ff0 <play_sound_3>
    22fe:	08 c0       	rjmp	.+16     	; 0x2310 <command_31_slot+0xf2>
		}
		break;
		case 4:
		{
			play_sound_4();
    2300:	0e 94 e3 0f 	call	0x1fc6	; 0x1fc6 <play_sound_4>
    2304:	05 c0       	rjmp	.+10     	; 0x2310 <command_31_slot+0xf2>
		}
		break;
		case 5:
		{
			play_sound_5();
    2306:	0e 94 d1 0f 	call	0x1fa2	; 0x1fa2 <play_sound_5>
    230a:	02 c0       	rjmp	.+4      	; 0x2310 <command_31_slot+0xf2>
		}
		break;
		case 6:
		{
			play_sound_6();
    230c:	0e 94 bf 0f 	call	0x1f7e	; 0x1f7e <play_sound_6>
	}



	
USART_SendStr("OK\r\n");
    2310:	8d e9       	ldi	r24, 0x9D	; 157
    2312:	90 e0       	ldi	r25, 0x00	; 0
    2314:	0e 94 54 27 	call	0x4ea8	; 0x4ea8 <USART_SendStr>
}
    2318:	0f 90       	pop	r0
    231a:	0f 90       	pop	r0
    231c:	cf 91       	pop	r28
    231e:	df 91       	pop	r29
    2320:	1f 91       	pop	r17
    2322:	0f 91       	pop	r16
    2324:	ff 90       	pop	r15
    2326:	ef 90       	pop	r14
    2328:	df 90       	pop	r13
    232a:	cf 90       	pop	r12
    232c:	08 95       	ret

0000232e <apply_sound_get_command>:
{
	
}

void apply_sound_get_command(uint16_t* var_adress) {
USART_SendStr(long_int_to_str(eeprom_read_word(var_adress),0));
    232e:	0e 94 63 28 	call	0x50c6	; 0x50c6 <__eerd_word_m32>
    2332:	60 e0       	ldi	r22, 0x00	; 0
    2334:	0e 94 7d 0d 	call	0x1afa	; 0x1afa <long_int_to_str>
    2338:	0e 94 54 27 	call	0x4ea8	; 0x4ea8 <USART_SendStr>
USART_SendStr("\r\nOK\r\n");
    233c:	8a ea       	ldi	r24, 0xAA	; 170
    233e:	90 e0       	ldi	r25, 0x00	; 0
    2340:	0e 94 54 27 	call	0x4ea8	; 0x4ea8 <USART_SendStr>
}
    2344:	08 95       	ret

00002346 <command_30_slot>:
void command_29_slot(void){//"sound_6_size="
apply_sound_set_command(&sound_6_size);
}

void command_30_slot(void){//"sound_6_size?"
apply_sound_get_command(&sound_6_size);
    2346:	88 e2       	ldi	r24, 0x28	; 40
    2348:	90 e0       	ldi	r25, 0x00	; 0
    234a:	0e 94 97 11 	call	0x232e	; 0x232e <apply_sound_get_command>
}
    234e:	08 95       	ret

00002350 <command_28_slot>:
void command_27_slot(void){//"sound_6_adress="
apply_sound_set_command(&sound_6_adress);
}

void command_28_slot(void){//"sound_6_adress?"
apply_sound_get_command(&sound_6_adress);
    2350:	86 e2       	ldi	r24, 0x26	; 38
    2352:	90 e0       	ldi	r25, 0x00	; 0
    2354:	0e 94 97 11 	call	0x232e	; 0x232e <apply_sound_get_command>
}
    2358:	08 95       	ret

0000235a <command_26_slot>:
void command_25_slot(void){//"sound_5_size="
apply_sound_set_command(&sound_5_size);
}

void command_26_slot(void){//"sound_5_size?"
apply_sound_get_command(&sound_5_size);
    235a:	84 e2       	ldi	r24, 0x24	; 36
    235c:	90 e0       	ldi	r25, 0x00	; 0
    235e:	0e 94 97 11 	call	0x232e	; 0x232e <apply_sound_get_command>
}
    2362:	08 95       	ret

00002364 <command_24_slot>:
void command_23_slot(void){//"sound_5_adress="
apply_sound_set_command(&sound_5_adress);
}

void command_24_slot(void){//"sound_5_adress?"
apply_sound_get_command(&sound_5_adress);
    2364:	82 e2       	ldi	r24, 0x22	; 34
    2366:	90 e0       	ldi	r25, 0x00	; 0
    2368:	0e 94 97 11 	call	0x232e	; 0x232e <apply_sound_get_command>
}
    236c:	08 95       	ret

0000236e <command_22_slot>:
void command_21_slot(void){//"sound_4_size=";
apply_sound_set_command(&sound_4_size);
}

void command_22_slot(void){//"sound_4_size?"
apply_sound_get_command(&sound_4_size);
    236e:	80 e2       	ldi	r24, 0x20	; 32
    2370:	90 e0       	ldi	r25, 0x00	; 0
    2372:	0e 94 97 11 	call	0x232e	; 0x232e <apply_sound_get_command>
}
    2376:	08 95       	ret

00002378 <command_20_slot>:
void command_19_slot(void){//"sound_4_adress="
apply_sound_set_command(&sound_4_adress);
}

void command_20_slot(void){//"sound_4_adress?"
apply_sound_get_command(&sound_4_adress);
    2378:	8e e1       	ldi	r24, 0x1E	; 30
    237a:	90 e0       	ldi	r25, 0x00	; 0
    237c:	0e 94 97 11 	call	0x232e	; 0x232e <apply_sound_get_command>
}
    2380:	08 95       	ret

00002382 <command_18_slot>:


}

void command_18_slot(void){//"sound_3_size?"
apply_sound_get_command(&sound_3_size);
    2382:	8c e1       	ldi	r24, 0x1C	; 28
    2384:	90 e0       	ldi	r25, 0x00	; 0
    2386:	0e 94 97 11 	call	0x232e	; 0x232e <apply_sound_get_command>
}
    238a:	08 95       	ret

0000238c <command_16_slot>:
void command_15_slot(void){//"sound_3_adress="
apply_sound_set_command(&sound_3_adress);
}

void command_16_slot(void){//"sound_3_adress?"
apply_sound_get_command(&sound_3_adress);
    238c:	8a e1       	ldi	r24, 0x1A	; 26
    238e:	90 e0       	ldi	r25, 0x00	; 0
    2390:	0e 94 97 11 	call	0x232e	; 0x232e <apply_sound_get_command>
}
    2394:	08 95       	ret

00002396 <command_14_slot>:


}

void command_14_slot(void){//"sound_2_size?";
apply_sound_get_command(&sound_2_size);
    2396:	88 e1       	ldi	r24, 0x18	; 24
    2398:	90 e0       	ldi	r25, 0x00	; 0
    239a:	0e 94 97 11 	call	0x232e	; 0x232e <apply_sound_get_command>
}
    239e:	08 95       	ret

000023a0 <command_12_slot>:
void command_11_slot(void){//"sound_2_adress="
apply_sound_set_command(&sound_2_adress);
}

void command_12_slot(void){//"sound_2_adress?"
apply_sound_get_command(&sound_2_adress);
    23a0:	86 e1       	ldi	r24, 0x16	; 22
    23a2:	90 e0       	ldi	r25, 0x00	; 0
    23a4:	0e 94 97 11 	call	0x232e	; 0x232e <apply_sound_get_command>
}
    23a8:	08 95       	ret

000023aa <command_10_slot>:
}



void command_10_slot(void){//"sound_1_size?"
apply_sound_get_command(&sound_1_size);
    23aa:	84 e1       	ldi	r24, 0x14	; 20
    23ac:	90 e0       	ldi	r25, 0x00	; 0
    23ae:	0e 94 97 11 	call	0x232e	; 0x232e <apply_sound_get_command>
}
    23b2:	08 95       	ret

000023b4 <command_8_slot>:
apply_sound_set_command(&sound_1_adress);
}


void command_8_slot(void){//"sound_1_adress?";
apply_sound_get_command(&sound_1_adress);
    23b4:	82 e1       	ldi	r24, 0x12	; 18
    23b6:	90 e0       	ldi	r25, 0x00	; 0
    23b8:	0e 94 97 11 	call	0x232e	; 0x232e <apply_sound_get_command>
}
    23bc:	08 95       	ret

000023be <command_5_slot>:
USART_SendStr(int_to_str(eeprom_read_byte(&eeprom_clips),0));
USART_SendStr("\r\nOK\r\n");
}


void command_5_slot(void){
    23be:	df 92       	push	r13
    23c0:	ef 92       	push	r14
    23c2:	ff 92       	push	r15
    23c4:	0f 93       	push	r16
    23c6:	1f 93       	push	r17
    23c8:	df 93       	push	r29
    23ca:	cf 93       	push	r28
    23cc:	00 d0       	rcall	.+0      	; 0x23ce <command_5_slot+0x10>
    23ce:	0f 92       	push	r0
    23d0:	cd b7       	in	r28, 0x3d	; 61
    23d2:	de b7       	in	r29, 0x3e	; 62
bool param_not_empty = false;
volatile char ch_tmp;
volatile uint16_t result = 0;
    23d4:	1b 82       	std	Y+3, r1	; 0x03
    23d6:	1a 82       	std	Y+2, r1	; 0x02
    23d8:	20 e0       	ldi	r18, 0x00	; 0
while(usartRxBuf[rxBufHead] !='\r')
    23da:	0f 2e       	mov	r0, r31
    23dc:	f9 e8       	ldi	r31, 0x89	; 137
    23de:	ef 2e       	mov	r14, r31
    23e0:	f4 e0       	ldi	r31, 0x04	; 4
    23e2:	ff 2e       	mov	r15, r31
    23e4:	f0 2d       	mov	r31, r0

		ch_tmp = usartRxBuf[rxBufHead++];
		if (ch_tmp==' ') continue; //игнорируем пробелы
		if ((ch_tmp >= '0')&&(ch_tmp<= '9'))
		{
			result = result*10+char_to_int(ch_tmp);
    23e6:	dd 24       	eor	r13, r13
    23e8:	d3 94       	inc	r13
    23ea:	2e c0       	rjmp	.+92     	; 0x2448 <command_5_slot+0x8a>
volatile uint16_t result = 0;
while(usartRxBuf[rxBufHead] !='\r')

	{

		ch_tmp = usartRxBuf[rxBufHead++];
    23ec:	80 91 f4 02 	lds	r24, 0x02F4
    23f0:	f7 01       	movw	r30, r14
    23f2:	e8 0f       	add	r30, r24
    23f4:	f1 1d       	adc	r31, r1
    23f6:	90 81       	ld	r25, Z
    23f8:	99 83       	std	Y+1, r25	; 0x01
    23fa:	8f 5f       	subi	r24, 0xFF	; 255
    23fc:	80 93 f4 02 	sts	0x02F4, r24
		if (ch_tmp==' ') continue; //игнорируем пробелы
    2400:	89 81       	ldd	r24, Y+1	; 0x01
    2402:	80 32       	cpi	r24, 0x20	; 32
    2404:	09 f1       	breq	.+66     	; 0x2448 <command_5_slot+0x8a>
		if ((ch_tmp >= '0')&&(ch_tmp<= '9'))
    2406:	89 81       	ldd	r24, Y+1	; 0x01
    2408:	80 33       	cpi	r24, 0x30	; 48
    240a:	c8 f0       	brcs	.+50     	; 0x243e <command_5_slot+0x80>
    240c:	89 81       	ldd	r24, Y+1	; 0x01
    240e:	8a 33       	cpi	r24, 0x3A	; 58
    2410:	b0 f4       	brcc	.+44     	; 0x243e <command_5_slot+0x80>
		{
			result = result*10+char_to_int(ch_tmp);
    2412:	0a 81       	ldd	r16, Y+2	; 0x02
    2414:	1b 81       	ldd	r17, Y+3	; 0x03
    2416:	89 81       	ldd	r24, Y+1	; 0x01
    2418:	0e 94 ee 0e 	call	0x1ddc	; 0x1ddc <char_to_int>
    241c:	98 01       	movw	r18, r16
    241e:	22 0f       	add	r18, r18
    2420:	33 1f       	adc	r19, r19
    2422:	00 0f       	add	r16, r16
    2424:	11 1f       	adc	r17, r17
    2426:	00 0f       	add	r16, r16
    2428:	11 1f       	adc	r17, r17
    242a:	00 0f       	add	r16, r16
    242c:	11 1f       	adc	r17, r17
    242e:	20 0f       	add	r18, r16
    2430:	31 1f       	adc	r19, r17
    2432:	28 0f       	add	r18, r24
    2434:	31 1d       	adc	r19, r1
    2436:	3b 83       	std	Y+3, r19	; 0x03
    2438:	2a 83       	std	Y+2, r18	; 0x02
    243a:	2d 2d       	mov	r18, r13
    243c:	05 c0       	rjmp	.+10     	; 0x2448 <command_5_slot+0x8a>
			param_not_empty = true;
		}		
		else 
		{
			USART_SendStr("ERROR\n\r");
    243e:	82 ea       	ldi	r24, 0xA2	; 162
    2440:	90 e0       	ldi	r25, 0x00	; 0
    2442:	0e 94 54 27 	call	0x4ea8	; 0x4ea8 <USART_SendStr>
    2446:	4f c0       	rjmp	.+158    	; 0x24e6 <command_5_slot+0x128>

void command_5_slot(void){
bool param_not_empty = false;
volatile char ch_tmp;
volatile uint16_t result = 0;
while(usartRxBuf[rxBufHead] !='\r')
    2448:	80 91 f4 02 	lds	r24, 0x02F4
    244c:	f7 01       	movw	r30, r14
    244e:	e8 0f       	add	r30, r24
    2450:	f1 1d       	adc	r31, r1
    2452:	80 81       	ld	r24, Z
    2454:	8d 30       	cpi	r24, 0x0D	; 13
    2456:	51 f6       	brne	.-108    	; 0x23ec <command_5_slot+0x2e>
			USART_SendStr("ERROR\n\r");
			return;
		}
	}

if (!param_not_empty) 
    2458:	22 23       	and	r18, r18
    245a:	29 f4       	brne	.+10     	; 0x2466 <command_5_slot+0xa8>
{
	USART_SendStrP(parameter_empty_error);
    245c:	8f e0       	ldi	r24, 0x0F	; 15
    245e:	94 e0       	ldi	r25, 0x04	; 4
    2460:	0e 94 64 27 	call	0x4ec8	; 0x4ec8 <USART_SendStrP>
    2464:	40 c0       	rjmp	.+128    	; 0x24e6 <command_5_slot+0x128>
	return;
}
if (result>512) 
    2466:	8a 81       	ldd	r24, Y+2	; 0x02
    2468:	9b 81       	ldd	r25, Y+3	; 0x03
    246a:	81 50       	subi	r24, 0x01	; 1
    246c:	92 40       	sbci	r25, 0x02	; 2
    246e:	28 f0       	brcs	.+10     	; 0x247a <command_5_slot+0xbc>
{
	USART_SendStrP(parameter_out_of_range_error);
    2470:	82 e3       	ldi	r24, 0x32	; 50
    2472:	94 e0       	ldi	r25, 0x04	; 4
    2474:	0e 94 64 27 	call	0x4ec8	; 0x4ec8 <USART_SendStrP>
    2478:	36 c0       	rjmp	.+108    	; 0x24e6 <command_5_slot+0x128>
	return;
}
USART_FlushRxBuf();
    247a:	0e 94 a1 27 	call	0x4f42	; 0x4f42 <USART_FlushRxBuf>
//uart_timer = 0;
//while (uart_timer < 40);
USART_SendStr("OK\r\n");
    247e:	8d e9       	ldi	r24, 0x9D	; 157
    2480:	90 e0       	ldi	r25, 0x00	; 0
    2482:	0e 94 54 27 	call	0x4ea8	; 0x4ea8 <USART_SendStr>

uart_timer = 0;
    2486:	10 92 7b 03 	sts	0x037B, r1
    248a:	10 92 7a 03 	sts	0x037A, r1
while ((uart_timer < 650)&&(rxCount<128)); //ждем приема 128 байт
    248e:	80 91 7a 03 	lds	r24, 0x037A
    2492:	90 91 7b 03 	lds	r25, 0x037B
    2496:	8a 58       	subi	r24, 0x8A	; 138
    2498:	92 40       	sbci	r25, 0x02	; 2
    249a:	20 f4       	brcc	.+8      	; 0x24a4 <command_5_slot+0xe6>
    249c:	80 91 f5 02 	lds	r24, 0x02F5
    24a0:	88 23       	and	r24, r24
    24a2:	ac f7       	brge	.-22     	; 0x248e <command_5_slot+0xd0>
if (rxCount>=128)
    24a4:	80 91 f5 02 	lds	r24, 0x02F5
    24a8:	88 23       	and	r24, r24
    24aa:	cc f4       	brge	.+50     	; 0x24de <command_5_slot+0x120>
	{
		if(eeWriteBytes(&usartRxBuf[0], result*128, 128)) 
    24ac:	6a 81       	ldd	r22, Y+2	; 0x02
    24ae:	7b 81       	ldd	r23, Y+3	; 0x03
    24b0:	76 95       	lsr	r23
    24b2:	76 2f       	mov	r23, r22
    24b4:	66 27       	eor	r22, r22
    24b6:	77 95       	ror	r23
    24b8:	67 95       	ror	r22
    24ba:	89 e8       	ldi	r24, 0x89	; 137
    24bc:	94 e0       	ldi	r25, 0x04	; 4
    24be:	40 e8       	ldi	r20, 0x80	; 128
    24c0:	50 e0       	ldi	r21, 0x00	; 0
    24c2:	0e 94 c6 07 	call	0xf8c	; 0xf8c <eeWriteBytes>
    24c6:	88 23       	and	r24, r24
    24c8:	29 f0       	breq	.+10     	; 0x24d4 <command_5_slot+0x116>
		{
//			uart_timer = 0;
//			while (uart_timer < 40);
			USART_SendStr("OK\r\n");
    24ca:	8d e9       	ldi	r24, 0x9D	; 157
    24cc:	90 e0       	ldi	r25, 0x00	; 0
    24ce:	0e 94 54 27 	call	0x4ea8	; 0x4ea8 <USART_SendStr>
    24d2:	09 c0       	rjmp	.+18     	; 0x24e6 <command_5_slot+0x128>
		}
		else 
		{
			USART_SendStr("ERROR:eeprom write error\r\n");
    24d4:	81 eb       	ldi	r24, 0xB1	; 177
    24d6:	90 e0       	ldi	r25, 0x00	; 0
    24d8:	0e 94 54 27 	call	0x4ea8	; 0x4ea8 <USART_SendStr>
    24dc:	04 c0       	rjmp	.+8      	; 0x24e6 <command_5_slot+0x128>
		}
	} 
else 
	{
		USART_SendStr("ERROR\r\n");
    24de:	8c ec       	ldi	r24, 0xCC	; 204
    24e0:	90 e0       	ldi	r25, 0x00	; 0
    24e2:	0e 94 54 27 	call	0x4ea8	; 0x4ea8 <USART_SendStr>
	}




}
    24e6:	0f 90       	pop	r0
    24e8:	0f 90       	pop	r0
    24ea:	0f 90       	pop	r0
    24ec:	cf 91       	pop	r28
    24ee:	df 91       	pop	r29
    24f0:	1f 91       	pop	r17
    24f2:	0f 91       	pop	r16
    24f4:	ff 90       	pop	r15
    24f6:	ef 90       	pop	r14
    24f8:	df 90       	pop	r13
    24fa:	08 95       	ret

000024fc <command_42_slot>:
get_int_argument_value(&eeprom_team_id, 0, 3);

}

void command_42_slot(void){//team_id?
USART_SendStr(int_to_str(eeprom_read_byte(&eeprom_team_id),0));
    24fc:	80 e0       	ldi	r24, 0x00	; 0
    24fe:	90 e0       	ldi	r25, 0x00	; 0
    2500:	0e 94 5b 28 	call	0x50b6	; 0x50b6 <__eerd_byte_m32>
    2504:	60 e0       	ldi	r22, 0x00	; 0
    2506:	0e 94 e3 0c 	call	0x19c6	; 0x19c6 <int_to_str>
    250a:	0e 94 54 27 	call	0x4ea8	; 0x4ea8 <USART_SendStr>
USART_SendStrP(ok_string);
    250e:	8b e6       	ldi	r24, 0x6B	; 107
    2510:	94 e0       	ldi	r25, 0x04	; 4
    2512:	0e 94 64 27 	call	0x4ec8	; 0x4ec8 <USART_SendStrP>
}
    2516:	08 95       	ret

00002518 <command_40_slot>:
void command_39_slot(void){//friendly_fire=
get_int_argument_value(&friendly_fire_enable, 0, 1);
}

void command_40_slot(void){//friendly_fire?
USART_SendStr(int_to_str(eeprom_read_byte(&friendly_fire_enable),0));
    2518:	8a e2       	ldi	r24, 0x2A	; 42
    251a:	90 e0       	ldi	r25, 0x00	; 0
    251c:	0e 94 5b 28 	call	0x50b6	; 0x50b6 <__eerd_byte_m32>
    2520:	60 e0       	ldi	r22, 0x00	; 0
    2522:	0e 94 e3 0c 	call	0x19c6	; 0x19c6 <int_to_str>
    2526:	0e 94 54 27 	call	0x4ea8	; 0x4ea8 <USART_SendStr>
USART_SendStrP(ok_string);
    252a:	8b e6       	ldi	r24, 0x6B	; 107
    252c:	94 e0       	ldi	r25, 0x04	; 4
    252e:	0e 94 64 27 	call	0x4ec8	; 0x4ec8 <USART_SendStrP>
}
    2532:	08 95       	ret

00002534 <command_38_slot>:
}


void command_38_slot(void){//ir_power?

switch (eeprom_read_byte(&eeprom_curr_ir_pin))
    2534:	8a e0       	ldi	r24, 0x0A	; 10
    2536:	90 e0       	ldi	r25, 0x00	; 0
    2538:	0e 94 5b 28 	call	0x50b6	; 0x50b6 <__eerd_byte_m32>
    253c:	80 34       	cpi	r24, 0x40	; 64
    253e:	39 f0       	breq	.+14     	; 0x254e <command_38_slot+0x1a>
    2540:	80 38       	cpi	r24, 0x80	; 128
    2542:	49 f4       	brne	.+18     	; 0x2556 <command_38_slot+0x22>
	{
		case IR_LED_LOW_POWER_PIN: USART_SendStr("0");
    2544:	84 ed       	ldi	r24, 0xD4	; 212
    2546:	90 e0       	ldi	r25, 0x00	; 0
    2548:	0e 94 54 27 	call	0x4ea8	; 0x4ea8 <USART_SendStr>
    254c:	04 c0       	rjmp	.+8      	; 0x2556 <command_38_slot+0x22>
		break;
		case IR_LED_HIGH_POWER_PIN: USART_SendStr("1");
    254e:	86 ed       	ldi	r24, 0xD6	; 214
    2550:	90 e0       	ldi	r25, 0x00	; 0
    2552:	0e 94 54 27 	call	0x4ea8	; 0x4ea8 <USART_SendStr>
	} 

USART_SendStrP(ok_string);
    2556:	8b e6       	ldi	r24, 0x6B	; 107
    2558:	94 e0       	ldi	r25, 0x04	; 4
    255a:	0e 94 64 27 	call	0x4ec8	; 0x4ec8 <USART_SendStrP>

}
    255e:	08 95       	ret

00002560 <command_36_slot>:

}


void command_36_slot(void){//damage?
USART_SendStr(int_to_str(eeprom_read_byte(&eeprom_damage),0));
    2560:	82 e0       	ldi	r24, 0x02	; 2
    2562:	90 e0       	ldi	r25, 0x00	; 0
    2564:	0e 94 5b 28 	call	0x50b6	; 0x50b6 <__eerd_byte_m32>
    2568:	60 e0       	ldi	r22, 0x00	; 0
    256a:	0e 94 e3 0c 	call	0x19c6	; 0x19c6 <int_to_str>
    256e:	0e 94 54 27 	call	0x4ea8	; 0x4ea8 <USART_SendStr>
USART_SendStr("\r\nOK\r\n");
    2572:	8a ea       	ldi	r24, 0xAA	; 170
    2574:	90 e0       	ldi	r25, 0x00	; 0
    2576:	0e 94 54 27 	call	0x4ea8	; 0x4ea8 <USART_SendStr>

}
    257a:	08 95       	ret

0000257c <command_34_slot>:

}


void command_34_slot(void){//player_id?
USART_SendStr(int_to_str(eeprom_read_byte(&eeprom_player_id),0));
    257c:	81 e0       	ldi	r24, 0x01	; 1
    257e:	90 e0       	ldi	r25, 0x00	; 0
    2580:	0e 94 5b 28 	call	0x50b6	; 0x50b6 <__eerd_byte_m32>
    2584:	60 e0       	ldi	r22, 0x00	; 0
    2586:	0e 94 e3 0c 	call	0x19c6	; 0x19c6 <int_to_str>
    258a:	0e 94 54 27 	call	0x4ea8	; 0x4ea8 <USART_SendStr>
USART_SendStr("\r\nOK\r\n");
    258e:	8a ea       	ldi	r24, 0xAA	; 170
    2590:	90 e0       	ldi	r25, 0x00	; 0
    2592:	0e 94 54 27 	call	0x4ea8	; 0x4ea8 <USART_SendStr>

}
    2596:	08 95       	ret

00002598 <command_4_slot>:
eeprom_write_byte(&eeprom_clips, result);	
USART_SendStr("OK\r\n");
}

void command_4_slot(void){
USART_SendStr(int_to_str(eeprom_read_byte(&eeprom_clips),0));
    2598:	84 e0       	ldi	r24, 0x04	; 4
    259a:	90 e0       	ldi	r25, 0x00	; 0
    259c:	0e 94 5b 28 	call	0x50b6	; 0x50b6 <__eerd_byte_m32>
    25a0:	60 e0       	ldi	r22, 0x00	; 0
    25a2:	0e 94 e3 0c 	call	0x19c6	; 0x19c6 <int_to_str>
    25a6:	0e 94 54 27 	call	0x4ea8	; 0x4ea8 <USART_SendStr>
USART_SendStr("\r\nOK\r\n");
    25aa:	8a ea       	ldi	r24, 0xAA	; 170
    25ac:	90 e0       	ldi	r25, 0x00	; 0
    25ae:	0e 94 54 27 	call	0x4ea8	; 0x4ea8 <USART_SendStr>
}
    25b2:	08 95       	ret

000025b4 <command_1_slot>:




void command_1_slot(void){
USART_SendStr(int_to_str(eeprom_read_byte(&eeprom_bullets_in_clip),0));
    25b4:	83 e0       	ldi	r24, 0x03	; 3
    25b6:	90 e0       	ldi	r25, 0x00	; 0
    25b8:	0e 94 5b 28 	call	0x50b6	; 0x50b6 <__eerd_byte_m32>
    25bc:	60 e0       	ldi	r22, 0x00	; 0
    25be:	0e 94 e3 0c 	call	0x19c6	; 0x19c6 <int_to_str>
    25c2:	0e 94 54 27 	call	0x4ea8	; 0x4ea8 <USART_SendStr>
USART_SendStr("\r\nOK\r\n");
    25c6:	8a ea       	ldi	r24, 0xAA	; 170
    25c8:	90 e0       	ldi	r25, 0x00	; 0
    25ca:	0e 94 54 27 	call	0x4ea8	; 0x4ea8 <USART_SendStr>





}
    25ce:	08 95       	ret

000025d0 <gun_damage>:

	}

return result;
*/
return eeprom_read_byte(&eeprom_damage);
    25d0:	82 e0       	ldi	r24, 0x02	; 2
    25d2:	90 e0       	ldi	r25, 0x00	; 0
    25d4:	0e 94 5b 28 	call	0x50b6	; 0x50b6 <__eerd_byte_m32>
}
    25d8:	08 95       	ret

000025da <team_id>:
		}
		default: result = Red;

	}
*/
result = eeprom_read_byte(&eeprom_team_id);
    25da:	80 e0       	ldi	r24, 0x00	; 0
    25dc:	90 e0       	ldi	r25, 0x00	; 0
    25de:	0e 94 5b 28 	call	0x50b6	; 0x50b6 <__eerd_byte_m32>
return result;
}
    25e2:	08 95       	ret

000025e4 <tm_verification>:
* сравниваем считанный сериный номер ключа 
* с номером, записанным в eeprom
*******************************************/

uint8_t tm_verification(void)
{
    25e4:	ef 92       	push	r14
    25e6:	ff 92       	push	r15
    25e8:	0f 93       	push	r16
    25ea:	1f 93       	push	r17
    25ec:	cf 93       	push	r28
    25ee:	df 93       	push	r29
if (eeprom_read_byte(&eeprom_tm_serial_num.device_code)!=device_code) return 0;
    25f0:	8b e0       	ldi	r24, 0x0B	; 11
    25f2:	90 e0       	ldi	r25, 0x00	; 0
    25f4:	0e 94 5b 28 	call	0x50b6	; 0x50b6 <__eerd_byte_m32>
    25f8:	90 91 00 03 	lds	r25, 0x0300
    25fc:	89 17       	cp	r24, r25
    25fe:	e1 f4       	brne	.+56     	; 0x2638 <tm_verification+0x54>
    2600:	c0 e0       	ldi	r28, 0x00	; 0
    2602:	d0 e0       	ldi	r29, 0x00	; 0
for (int i = 0; i<6; i++ )
						{
							if (eeprom_read_byte(&eeprom_tm_serial_num.serial[i])!=tm_code[i])  return 0;
    2604:	0f 2e       	mov	r0, r31
    2606:	fb e0       	ldi	r31, 0x0B	; 11
    2608:	ef 2e       	mov	r14, r31
    260a:	f0 e0       	ldi	r31, 0x00	; 0
    260c:	ff 2e       	mov	r15, r31
    260e:	f0 2d       	mov	r31, r0
    2610:	07 ef       	ldi	r16, 0xF7	; 247
    2612:	12 e0       	ldi	r17, 0x02	; 2
    2614:	ce 01       	movw	r24, r28
    2616:	01 96       	adiw	r24, 0x01	; 1
    2618:	8e 0d       	add	r24, r14
    261a:	9f 1d       	adc	r25, r15
    261c:	0e 94 5b 28 	call	0x50b6	; 0x50b6 <__eerd_byte_m32>
    2620:	f8 01       	movw	r30, r16
    2622:	ec 0f       	add	r30, r28
    2624:	fd 1f       	adc	r31, r29
    2626:	90 81       	ld	r25, Z
    2628:	89 17       	cp	r24, r25
    262a:	31 f4       	brne	.+12     	; 0x2638 <tm_verification+0x54>
*******************************************/

uint8_t tm_verification(void)
{
if (eeprom_read_byte(&eeprom_tm_serial_num.device_code)!=device_code) return 0;
for (int i = 0; i<6; i++ )
    262c:	21 96       	adiw	r28, 0x01	; 1
    262e:	c6 30       	cpi	r28, 0x06	; 6
    2630:	d1 05       	cpc	r29, r1
    2632:	81 f7       	brne	.-32     	; 0x2614 <tm_verification+0x30>
    2634:	81 e0       	ldi	r24, 0x01	; 1
    2636:	01 c0       	rjmp	.+2      	; 0x263a <tm_verification+0x56>
    2638:	80 e0       	ldi	r24, 0x00	; 0
						{
							if (eeprom_read_byte(&eeprom_tm_serial_num.serial[i])!=tm_code[i])  return 0;

						}
return 1;
}
    263a:	df 91       	pop	r29
    263c:	cf 91       	pop	r28
    263e:	1f 91       	pop	r17
    2640:	0f 91       	pop	r16
    2642:	ff 90       	pop	r15
    2644:	ef 90       	pop	r14
    2646:	08 95       	ret

00002648 <command_37_slot>:
USART_SendStr(int_to_str(eeprom_read_byte(&eeprom_damage),0));
USART_SendStr("\r\nOK\r\n");

}

void command_37_slot(void){//ir_power=
    2648:	cf 92       	push	r12
    264a:	df 92       	push	r13
    264c:	ef 92       	push	r14
    264e:	ff 92       	push	r15
    2650:	0f 93       	push	r16
    2652:	1f 93       	push	r17
    2654:	df 93       	push	r29
    2656:	cf 93       	push	r28
    2658:	00 d0       	rcall	.+0      	; 0x265a <command_37_slot+0x12>
    265a:	cd b7       	in	r28, 0x3d	; 61
    265c:	de b7       	in	r29, 0x3e	; 62
//get_int_argument_value(&eeprom_damage, 0, 15);
bool param_not_empty = false;
volatile char ch_tmp;
volatile uint8_t result = 0;
    265e:	1a 82       	std	Y+2, r1	; 0x02
    2660:	20 e0       	ldi	r18, 0x00	; 0

while(usartRxBuf[rxBufHead] !='\r')
    2662:	0f 2e       	mov	r0, r31
    2664:	f9 e8       	ldi	r31, 0x89	; 137
    2666:	ef 2e       	mov	r14, r31
    2668:	f4 e0       	ldi	r31, 0x04	; 4
    266a:	ff 2e       	mov	r15, r31
    266c:	f0 2d       	mov	r31, r0

		ch_tmp = usartRxBuf[rxBufHead++];
		if (ch_tmp==' ') continue; //игнорируем пробелы
		if ((ch_tmp >= '0')&&(ch_tmp<= '9'))
		{
			result = result*10+char_to_int(ch_tmp);
    266e:	0f 2e       	mov	r0, r31
    2670:	fa e0       	ldi	r31, 0x0A	; 10
    2672:	cf 2e       	mov	r12, r31
    2674:	f0 2d       	mov	r31, r0
    2676:	dd 24       	eor	r13, r13
    2678:	d3 94       	inc	r13
    267a:	23 c0       	rjmp	.+70     	; 0x26c2 <command_37_slot+0x7a>

while(usartRxBuf[rxBufHead] !='\r')

	{

		ch_tmp = usartRxBuf[rxBufHead++];
    267c:	80 91 f4 02 	lds	r24, 0x02F4
    2680:	f7 01       	movw	r30, r14
    2682:	e8 0f       	add	r30, r24
    2684:	f1 1d       	adc	r31, r1
    2686:	90 81       	ld	r25, Z
    2688:	99 83       	std	Y+1, r25	; 0x01
    268a:	8f 5f       	subi	r24, 0xFF	; 255
    268c:	80 93 f4 02 	sts	0x02F4, r24
		if (ch_tmp==' ') continue; //игнорируем пробелы
    2690:	89 81       	ldd	r24, Y+1	; 0x01
    2692:	80 32       	cpi	r24, 0x20	; 32
    2694:	b1 f0       	breq	.+44     	; 0x26c2 <command_37_slot+0x7a>
		if ((ch_tmp >= '0')&&(ch_tmp<= '9'))
    2696:	89 81       	ldd	r24, Y+1	; 0x01
    2698:	80 33       	cpi	r24, 0x30	; 48
    269a:	70 f0       	brcs	.+28     	; 0x26b8 <command_37_slot+0x70>
    269c:	89 81       	ldd	r24, Y+1	; 0x01
    269e:	8a 33       	cpi	r24, 0x3A	; 58
    26a0:	58 f4       	brcc	.+22     	; 0x26b8 <command_37_slot+0x70>
		{
			result = result*10+char_to_int(ch_tmp);
    26a2:	0a 81       	ldd	r16, Y+2	; 0x02
    26a4:	89 81       	ldd	r24, Y+1	; 0x01
    26a6:	0e 94 ee 0e 	call	0x1ddc	; 0x1ddc <char_to_int>
    26aa:	0c 9d       	mul	r16, r12
    26ac:	80 01       	movw	r16, r0
    26ae:	11 24       	eor	r1, r1
    26b0:	80 0f       	add	r24, r16
    26b2:	8a 83       	std	Y+2, r24	; 0x02
    26b4:	2d 2d       	mov	r18, r13
    26b6:	05 c0       	rjmp	.+10     	; 0x26c2 <command_37_slot+0x7a>
			param_not_empty = true;
		}		
		else 
		{
			USART_SendStrP(parameter_invalid_error);
    26b8:	81 e5       	ldi	r24, 0x51	; 81
    26ba:	94 e0       	ldi	r25, 0x04	; 4
    26bc:	0e 94 64 27 	call	0x4ec8	; 0x4ec8 <USART_SendStrP>
    26c0:	2d c0       	rjmp	.+90     	; 0x271c <command_37_slot+0xd4>
//get_int_argument_value(&eeprom_damage, 0, 15);
bool param_not_empty = false;
volatile char ch_tmp;
volatile uint8_t result = 0;

while(usartRxBuf[rxBufHead] !='\r')
    26c2:	80 91 f4 02 	lds	r24, 0x02F4
    26c6:	f7 01       	movw	r30, r14
    26c8:	e8 0f       	add	r30, r24
    26ca:	f1 1d       	adc	r31, r1
    26cc:	80 81       	ld	r24, Z
    26ce:	8d 30       	cpi	r24, 0x0D	; 13
    26d0:	a9 f6       	brne	.-86     	; 0x267c <command_37_slot+0x34>
			//USART_SendStr("ERROR\n\r");
			//return invalid;//недопустимый аргумент

		}
	}
if (!param_not_empty) 
    26d2:	22 23       	and	r18, r18
    26d4:	29 f4       	brne	.+10     	; 0x26e0 <command_37_slot+0x98>
	{
		USART_SendStrP(parameter_empty_error);
    26d6:	8f e0       	ldi	r24, 0x0F	; 15
    26d8:	94 e0       	ldi	r25, 0x04	; 4
    26da:	0e 94 64 27 	call	0x4ec8	; 0x4ec8 <USART_SendStrP>
    26de:	1e c0       	rjmp	.+60     	; 0x271c <command_37_slot+0xd4>
		return;//пустой аргумент
	}

if ((result>1)||(result<0))
    26e0:	8a 81       	ldd	r24, Y+2	; 0x02
    26e2:	82 30       	cpi	r24, 0x02	; 2
    26e4:	38 f4       	brcc	.+14     	; 0x26f4 <command_37_slot+0xac>
    26e6:	8a 81       	ldd	r24, Y+2	; 0x02
	{
		USART_SendStrP(parameter_out_of_range_error);
		return;//аргумент больше максимально допустимого значения
	} 

switch (result)
    26e8:	8a 81       	ldd	r24, Y+2	; 0x02
    26ea:	88 23       	and	r24, r24
    26ec:	41 f0       	breq	.+16     	; 0x26fe <command_37_slot+0xb6>
    26ee:	81 30       	cpi	r24, 0x01	; 1
    26f0:	89 f4       	brne	.+34     	; 0x2714 <command_37_slot+0xcc>
    26f2:	0b c0       	rjmp	.+22     	; 0x270a <command_37_slot+0xc2>
		return;//пустой аргумент
	}

if ((result>1)||(result<0))
	{
		USART_SendStrP(parameter_out_of_range_error);
    26f4:	82 e3       	ldi	r24, 0x32	; 50
    26f6:	94 e0       	ldi	r25, 0x04	; 4
    26f8:	0e 94 64 27 	call	0x4ec8	; 0x4ec8 <USART_SendStrP>
    26fc:	0f c0       	rjmp	.+30     	; 0x271c <command_37_slot+0xd4>
		return;//аргумент больше максимально допустимого значения
	} 

switch (result)
	{
		case 0: eeprom_write_byte(&eeprom_curr_ir_pin, IR_LED_LOW_POWER_PIN);	
    26fe:	8a e0       	ldi	r24, 0x0A	; 10
    2700:	90 e0       	ldi	r25, 0x00	; 0
    2702:	60 e8       	ldi	r22, 0x80	; 128
    2704:	0e 94 69 28 	call	0x50d2	; 0x50d2 <__eewr_byte_m32>
    2708:	05 c0       	rjmp	.+10     	; 0x2714 <command_37_slot+0xcc>
		break;
		case 1:  eeprom_write_byte(&eeprom_curr_ir_pin, IR_LED_HIGH_POWER_PIN);
    270a:	8a e0       	ldi	r24, 0x0A	; 10
    270c:	90 e0       	ldi	r25, 0x00	; 0
    270e:	60 e4       	ldi	r22, 0x40	; 64
    2710:	0e 94 69 28 	call	0x50d2	; 0x50d2 <__eewr_byte_m32>
		break;
	}
		

USART_SendStrP(ok_string);
    2714:	8b e6       	ldi	r24, 0x6B	; 107
    2716:	94 e0       	ldi	r25, 0x04	; 4
    2718:	0e 94 64 27 	call	0x4ec8	; 0x4ec8 <USART_SendStrP>


}
    271c:	0f 90       	pop	r0
    271e:	0f 90       	pop	r0
    2720:	cf 91       	pop	r28
    2722:	df 91       	pop	r29
    2724:	1f 91       	pop	r17
    2726:	0f 91       	pop	r16
    2728:	ff 90       	pop	r15
    272a:	ef 90       	pop	r14
    272c:	df 90       	pop	r13
    272e:	cf 90       	pop	r12
    2730:	08 95       	ret

00002732 <command_3_slot>:
         
       }
     }


void command_3_slot(void){
    2732:	cf 92       	push	r12
    2734:	df 92       	push	r13
    2736:	ef 92       	push	r14
    2738:	ff 92       	push	r15
    273a:	0f 93       	push	r16
    273c:	1f 93       	push	r17
    273e:	df 93       	push	r29
    2740:	cf 93       	push	r28
    2742:	00 d0       	rcall	.+0      	; 0x2744 <command_3_slot+0x12>
    2744:	cd b7       	in	r28, 0x3d	; 61
    2746:	de b7       	in	r29, 0x3e	; 62
bool param_not_empty = false;
volatile char ch_tmp;
volatile uint8_t result = 0;
    2748:	1a 82       	std	Y+2, r1	; 0x02
    274a:	20 e0       	ldi	r18, 0x00	; 0
while(usartRxBuf[rxBufHead] !='\r')
    274c:	0f 2e       	mov	r0, r31
    274e:	f9 e8       	ldi	r31, 0x89	; 137
    2750:	ef 2e       	mov	r14, r31
    2752:	f4 e0       	ldi	r31, 0x04	; 4
    2754:	ff 2e       	mov	r15, r31
    2756:	f0 2d       	mov	r31, r0

		ch_tmp = usartRxBuf[rxBufHead++];
		if (ch_tmp==' ') continue; //игнорируем пробелы
		if ((ch_tmp >= '0')&&(ch_tmp<= '9'))
		{
			result = result*10+char_to_int(ch_tmp);
    2758:	0f 2e       	mov	r0, r31
    275a:	fa e0       	ldi	r31, 0x0A	; 10
    275c:	cf 2e       	mov	r12, r31
    275e:	f0 2d       	mov	r31, r0
    2760:	dd 24       	eor	r13, r13
    2762:	d3 94       	inc	r13
    2764:	23 c0       	rjmp	.+70     	; 0x27ac <command_3_slot+0x7a>
volatile uint8_t result = 0;
while(usartRxBuf[rxBufHead] !='\r')

	{

		ch_tmp = usartRxBuf[rxBufHead++];
    2766:	80 91 f4 02 	lds	r24, 0x02F4
    276a:	f7 01       	movw	r30, r14
    276c:	e8 0f       	add	r30, r24
    276e:	f1 1d       	adc	r31, r1
    2770:	90 81       	ld	r25, Z
    2772:	99 83       	std	Y+1, r25	; 0x01
    2774:	8f 5f       	subi	r24, 0xFF	; 255
    2776:	80 93 f4 02 	sts	0x02F4, r24
		if (ch_tmp==' ') continue; //игнорируем пробелы
    277a:	89 81       	ldd	r24, Y+1	; 0x01
    277c:	80 32       	cpi	r24, 0x20	; 32
    277e:	b1 f0       	breq	.+44     	; 0x27ac <command_3_slot+0x7a>
		if ((ch_tmp >= '0')&&(ch_tmp<= '9'))
    2780:	89 81       	ldd	r24, Y+1	; 0x01
    2782:	80 33       	cpi	r24, 0x30	; 48
    2784:	70 f0       	brcs	.+28     	; 0x27a2 <command_3_slot+0x70>
    2786:	89 81       	ldd	r24, Y+1	; 0x01
    2788:	8a 33       	cpi	r24, 0x3A	; 58
    278a:	58 f4       	brcc	.+22     	; 0x27a2 <command_3_slot+0x70>
		{
			result = result*10+char_to_int(ch_tmp);
    278c:	0a 81       	ldd	r16, Y+2	; 0x02
    278e:	89 81       	ldd	r24, Y+1	; 0x01
    2790:	0e 94 ee 0e 	call	0x1ddc	; 0x1ddc <char_to_int>
    2794:	0c 9d       	mul	r16, r12
    2796:	80 01       	movw	r16, r0
    2798:	11 24       	eor	r1, r1
    279a:	80 0f       	add	r24, r16
    279c:	8a 83       	std	Y+2, r24	; 0x02
    279e:	2d 2d       	mov	r18, r13
    27a0:	05 c0       	rjmp	.+10     	; 0x27ac <command_3_slot+0x7a>
			param_not_empty = true;
		}		
		else 
		{
			USART_SendStr("ERROR\n\r");
    27a2:	82 ea       	ldi	r24, 0xA2	; 162
    27a4:	90 e0       	ldi	r25, 0x00	; 0
    27a6:	0e 94 54 27 	call	0x4ea8	; 0x4ea8 <USART_SendStr>
    27aa:	18 c0       	rjmp	.+48     	; 0x27dc <command_3_slot+0xaa>

void command_3_slot(void){
bool param_not_empty = false;
volatile char ch_tmp;
volatile uint8_t result = 0;
while(usartRxBuf[rxBufHead] !='\r')
    27ac:	80 91 f4 02 	lds	r24, 0x02F4
    27b0:	f7 01       	movw	r30, r14
    27b2:	e8 0f       	add	r30, r24
    27b4:	f1 1d       	adc	r31, r1
    27b6:	80 81       	ld	r24, Z
    27b8:	8d 30       	cpi	r24, 0x0D	; 13
    27ba:	a9 f6       	brne	.-86     	; 0x2766 <command_3_slot+0x34>
			USART_SendStr("ERROR\n\r");
			return;
		}
	}

if (!param_not_empty) 
    27bc:	22 23       	and	r18, r18
    27be:	29 f4       	brne	.+10     	; 0x27ca <command_3_slot+0x98>
{
	USART_SendStrP(parameter_empty_error);
    27c0:	8f e0       	ldi	r24, 0x0F	; 15
    27c2:	94 e0       	ldi	r25, 0x04	; 4
    27c4:	0e 94 64 27 	call	0x4ec8	; 0x4ec8 <USART_SendStrP>
    27c8:	09 c0       	rjmp	.+18     	; 0x27dc <command_3_slot+0xaa>
	return;
}
//lcd_gotoxy(7, 0);
//lcd_puts(int_to_str(result,0));
eeprom_write_byte(&eeprom_clips, result);	
    27ca:	6a 81       	ldd	r22, Y+2	; 0x02
    27cc:	84 e0       	ldi	r24, 0x04	; 4
    27ce:	90 e0       	ldi	r25, 0x00	; 0
    27d0:	0e 94 69 28 	call	0x50d2	; 0x50d2 <__eewr_byte_m32>
USART_SendStr("OK\r\n");
    27d4:	8d e9       	ldi	r24, 0x9D	; 157
    27d6:	90 e0       	ldi	r25, 0x00	; 0
    27d8:	0e 94 54 27 	call	0x4ea8	; 0x4ea8 <USART_SendStr>
}
    27dc:	0f 90       	pop	r0
    27de:	0f 90       	pop	r0
    27e0:	cf 91       	pop	r28
    27e2:	df 91       	pop	r29
    27e4:	1f 91       	pop	r17
    27e6:	0f 91       	pop	r16
    27e8:	ff 90       	pop	r15
    27ea:	ef 90       	pop	r14
    27ec:	df 90       	pop	r13
    27ee:	cf 90       	pop	r12
    27f0:	08 95       	ret

000027f2 <get_int_argument_value>:




void get_int_argument_value(uint8_t* var_adress, uint8_t min_val, uint8_t max_val)
{
    27f2:	8f 92       	push	r8
    27f4:	9f 92       	push	r9
    27f6:	af 92       	push	r10
    27f8:	bf 92       	push	r11
    27fa:	cf 92       	push	r12
    27fc:	df 92       	push	r13
    27fe:	ef 92       	push	r14
    2800:	ff 92       	push	r15
    2802:	0f 93       	push	r16
    2804:	1f 93       	push	r17
    2806:	df 93       	push	r29
    2808:	cf 93       	push	r28
    280a:	00 d0       	rcall	.+0      	; 0x280c <get_int_argument_value+0x1a>
    280c:	cd b7       	in	r28, 0x3d	; 61
    280e:	de b7       	in	r29, 0x3e	; 62
    2810:	5c 01       	movw	r10, r24
    2812:	86 2e       	mov	r8, r22
    2814:	94 2e       	mov	r9, r20

bool param_not_empty = false;
volatile char ch_tmp;
volatile uint8_t result = 0;
    2816:	1a 82       	std	Y+2, r1	; 0x02
    2818:	20 e0       	ldi	r18, 0x00	; 0

while(usartRxBuf[rxBufHead] !='\r')
    281a:	0f 2e       	mov	r0, r31
    281c:	f9 e8       	ldi	r31, 0x89	; 137
    281e:	ef 2e       	mov	r14, r31
    2820:	f4 e0       	ldi	r31, 0x04	; 4
    2822:	ff 2e       	mov	r15, r31
    2824:	f0 2d       	mov	r31, r0

		ch_tmp = usartRxBuf[rxBufHead++];
		if (ch_tmp==' ') continue; //игнорируем пробелы
		if ((ch_tmp >= '0')&&(ch_tmp<= '9'))
		{
			result = result*10+char_to_int(ch_tmp);
    2826:	0f 2e       	mov	r0, r31
    2828:	fa e0       	ldi	r31, 0x0A	; 10
    282a:	cf 2e       	mov	r12, r31
    282c:	f0 2d       	mov	r31, r0
    282e:	dd 24       	eor	r13, r13
    2830:	d3 94       	inc	r13
    2832:	23 c0       	rjmp	.+70     	; 0x287a <get_int_argument_value+0x88>

while(usartRxBuf[rxBufHead] !='\r')

	{

		ch_tmp = usartRxBuf[rxBufHead++];
    2834:	80 91 f4 02 	lds	r24, 0x02F4
    2838:	f7 01       	movw	r30, r14
    283a:	e8 0f       	add	r30, r24
    283c:	f1 1d       	adc	r31, r1
    283e:	90 81       	ld	r25, Z
    2840:	99 83       	std	Y+1, r25	; 0x01
    2842:	8f 5f       	subi	r24, 0xFF	; 255
    2844:	80 93 f4 02 	sts	0x02F4, r24
		if (ch_tmp==' ') continue; //игнорируем пробелы
    2848:	89 81       	ldd	r24, Y+1	; 0x01
    284a:	80 32       	cpi	r24, 0x20	; 32
    284c:	b1 f0       	breq	.+44     	; 0x287a <get_int_argument_value+0x88>
		if ((ch_tmp >= '0')&&(ch_tmp<= '9'))
    284e:	89 81       	ldd	r24, Y+1	; 0x01
    2850:	80 33       	cpi	r24, 0x30	; 48
    2852:	70 f0       	brcs	.+28     	; 0x2870 <get_int_argument_value+0x7e>
    2854:	89 81       	ldd	r24, Y+1	; 0x01
    2856:	8a 33       	cpi	r24, 0x3A	; 58
    2858:	58 f4       	brcc	.+22     	; 0x2870 <get_int_argument_value+0x7e>
		{
			result = result*10+char_to_int(ch_tmp);
    285a:	0a 81       	ldd	r16, Y+2	; 0x02
    285c:	89 81       	ldd	r24, Y+1	; 0x01
    285e:	0e 94 ee 0e 	call	0x1ddc	; 0x1ddc <char_to_int>
    2862:	0c 9d       	mul	r16, r12
    2864:	80 01       	movw	r16, r0
    2866:	11 24       	eor	r1, r1
    2868:	80 0f       	add	r24, r16
    286a:	8a 83       	std	Y+2, r24	; 0x02
    286c:	2d 2d       	mov	r18, r13
    286e:	05 c0       	rjmp	.+10     	; 0x287a <get_int_argument_value+0x88>
			param_not_empty = true;
		}		
		else 
		{
			USART_SendStrP(parameter_invalid_error);
    2870:	81 e5       	ldi	r24, 0x51	; 81
    2872:	94 e0       	ldi	r25, 0x04	; 4
    2874:	0e 94 64 27 	call	0x4ec8	; 0x4ec8 <USART_SendStrP>
    2878:	22 c0       	rjmp	.+68     	; 0x28be <get_int_argument_value+0xcc>

bool param_not_empty = false;
volatile char ch_tmp;
volatile uint8_t result = 0;

while(usartRxBuf[rxBufHead] !='\r')
    287a:	80 91 f4 02 	lds	r24, 0x02F4
    287e:	f7 01       	movw	r30, r14
    2880:	e8 0f       	add	r30, r24
    2882:	f1 1d       	adc	r31, r1
    2884:	80 81       	ld	r24, Z
    2886:	8d 30       	cpi	r24, 0x0D	; 13
    2888:	a9 f6       	brne	.-86     	; 0x2834 <get_int_argument_value+0x42>
			//USART_SendStr("ERROR\n\r");
			//return invalid;//недопустимый аргумент

		}
	}
if (!param_not_empty) 
    288a:	22 23       	and	r18, r18
    288c:	29 f4       	brne	.+10     	; 0x2898 <get_int_argument_value+0xa6>
	{
		USART_SendStrP(parameter_empty_error);
    288e:	8f e0       	ldi	r24, 0x0F	; 15
    2890:	94 e0       	ldi	r25, 0x04	; 4
    2892:	0e 94 64 27 	call	0x4ec8	; 0x4ec8 <USART_SendStrP>
    2896:	13 c0       	rjmp	.+38     	; 0x28be <get_int_argument_value+0xcc>
		return;//пустой аргумент
	}

if ((result>max_val)||(result<min_val))
    2898:	8a 81       	ldd	r24, Y+2	; 0x02
    289a:	98 16       	cp	r9, r24
    289c:	18 f0       	brcs	.+6      	; 0x28a4 <get_int_argument_value+0xb2>
    289e:	8a 81       	ldd	r24, Y+2	; 0x02
    28a0:	88 15       	cp	r24, r8
    28a2:	28 f4       	brcc	.+10     	; 0x28ae <get_int_argument_value+0xbc>
	{
		USART_SendStrP(parameter_out_of_range_error);
    28a4:	82 e3       	ldi	r24, 0x32	; 50
    28a6:	94 e0       	ldi	r25, 0x04	; 4
    28a8:	0e 94 64 27 	call	0x4ec8	; 0x4ec8 <USART_SendStrP>
    28ac:	08 c0       	rjmp	.+16     	; 0x28be <get_int_argument_value+0xcc>
		return;//аргумент больше максимально допустимого значения
	} 

eeprom_write_byte(var_adress, result);	
    28ae:	6a 81       	ldd	r22, Y+2	; 0x02
    28b0:	c5 01       	movw	r24, r10
    28b2:	0e 94 69 28 	call	0x50d2	; 0x50d2 <__eewr_byte_m32>
USART_SendStr("OK\r\n");
    28b6:	8d e9       	ldi	r24, 0x9D	; 157
    28b8:	90 e0       	ldi	r25, 0x00	; 0
    28ba:	0e 94 54 27 	call	0x4ea8	; 0x4ea8 <USART_SendStr>


}
    28be:	0f 90       	pop	r0
    28c0:	0f 90       	pop	r0
    28c2:	cf 91       	pop	r28
    28c4:	df 91       	pop	r29
    28c6:	1f 91       	pop	r17
    28c8:	0f 91       	pop	r16
    28ca:	ff 90       	pop	r15
    28cc:	ef 90       	pop	r14
    28ce:	df 90       	pop	r13
    28d0:	cf 90       	pop	r12
    28d2:	bf 90       	pop	r11
    28d4:	af 90       	pop	r10
    28d6:	9f 90       	pop	r9
    28d8:	8f 90       	pop	r8
    28da:	08 95       	ret

000028dc <command_41_slot>:
USART_SendStrP(ok_string);
}


void command_41_slot(void){//team_id=
get_int_argument_value(&eeprom_team_id, 0, 3);
    28dc:	80 e0       	ldi	r24, 0x00	; 0
    28de:	90 e0       	ldi	r25, 0x00	; 0
    28e0:	60 e0       	ldi	r22, 0x00	; 0
    28e2:	43 e0       	ldi	r20, 0x03	; 3
    28e4:	0e 94 f9 13 	call	0x27f2	; 0x27f2 <get_int_argument_value>

}
    28e8:	08 95       	ret

000028ea <command_39_slot>:
}



void command_39_slot(void){//friendly_fire=
get_int_argument_value(&friendly_fire_enable, 0, 1);
    28ea:	8a e2       	ldi	r24, 0x2A	; 42
    28ec:	90 e0       	ldi	r25, 0x00	; 0
    28ee:	60 e0       	ldi	r22, 0x00	; 0
    28f0:	41 e0       	ldi	r20, 0x01	; 1
    28f2:	0e 94 f9 13 	call	0x27f2	; 0x27f2 <get_int_argument_value>
}
    28f6:	08 95       	ret

000028f8 <command_35_slot>:
USART_SendStr("\r\nOK\r\n");

}

void command_35_slot(void){//damage=
get_int_argument_value(&eeprom_damage, 0, 15);
    28f8:	82 e0       	ldi	r24, 0x02	; 2
    28fa:	90 e0       	ldi	r25, 0x00	; 0
    28fc:	60 e0       	ldi	r22, 0x00	; 0
    28fe:	4f e0       	ldi	r20, 0x0F	; 15
    2900:	0e 94 f9 13 	call	0x27f2	; 0x27f2 <get_int_argument_value>


}
    2904:	08 95       	ret

00002906 <command_33_slot>:
USART_SendStr("OK\r\n");
}


void command_33_slot(void){//player_id=
get_int_argument_value(&eeprom_player_id, 0, 127);
    2906:	81 e0       	ldi	r24, 0x01	; 1
    2908:	90 e0       	ldi	r25, 0x00	; 0
    290a:	60 e0       	ldi	r22, 0x00	; 0
    290c:	4f e7       	ldi	r20, 0x7F	; 127
    290e:	0e 94 f9 13 	call	0x27f2	; 0x27f2 <get_int_argument_value>


}
    2912:	08 95       	ret

00002914 <command_0_slot>:




void command_0_slot(void){//bullets_in_clip=
get_int_argument_value(&eeprom_bullets_in_clip, 0, MAX_BULL_IN_CLIP);
    2914:	83 e0       	ldi	r24, 0x03	; 3
    2916:	90 e0       	ldi	r25, 0x00	; 0
    2918:	60 e0       	ldi	r22, 0x00	; 0
    291a:	4a e5       	ldi	r20, 0x5A	; 90
    291c:	0e 94 f9 13 	call	0x27f2	; 0x27f2 <get_int_argument_value>
//lcd_gotoxy(7, 0);
//lcd_puts(int_to_str(result,0));
eeprom_write_byte(&eeprom_bullets_in_clip, result);	
USART_SendStr("OK\r\n");
*/
}
    2920:	08 95       	ret

00002922 <get_friendly_fire_settings>:




void get_friendly_fire_settings(void)//включение/отключение "дружественного" огня
{
    2922:	ef 92       	push	r14
    2924:	ff 92       	push	r15
    2926:	1f 93       	push	r17
    2928:	cf 93       	push	r28
    292a:	df 93       	push	r29
uint8_t result;
uint8_t value;
joystick_event=no_pressing;
    292c:	10 92 0b 03 	sts	0x030B, r1
result = eeprom_read_byte(&friendly_fire_enable);
    2930:	8a e2       	ldi	r24, 0x2A	; 42
    2932:	90 e0       	ldi	r25, 0x00	; 0
    2934:	0e 94 5b 28 	call	0x50b6	; 0x50b6 <__eerd_byte_m32>
    2938:	18 2f       	mov	r17, r24
lcd_clrscr();
    293a:	0e 94 a0 04 	call	0x940	; 0x940 <lcd_clrscr>
lcd_puts("Дружеств. огонь:");
    293e:	88 ed       	ldi	r24, 0xD8	; 216
    2940:	90 e0       	ldi	r25, 0x00	; 0
    2942:	0e 94 df 04 	call	0x9be	; 0x9be <lcd_puts>
lcd_gotoxy(0, 1);
    2946:	80 e0       	ldi	r24, 0x00	; 0
    2948:	61 e0       	ldi	r22, 0x01	; 1
    294a:	0e 94 ef 04 	call	0x9de	; 0x9de <lcd_gotoxy>
if (result) lcd_puts("Да ");
    294e:	11 23       	and	r17, r17
    2950:	29 f0       	breq	.+10     	; 0x295c <get_friendly_fire_settings+0x3a>
    2952:	89 ee       	ldi	r24, 0xE9	; 233
    2954:	90 e0       	ldi	r25, 0x00	; 0
    2956:	0e 94 df 04 	call	0x9be	; 0x9be <lcd_puts>
    295a:	04 c0       	rjmp	.+8      	; 0x2964 <get_friendly_fire_settings+0x42>
else lcd_puts("Нет");
    295c:	8d ee       	ldi	r24, 0xED	; 237
    295e:	90 e0       	ldi	r25, 0x00	; 0
    2960:	0e 94 df 04 	call	0x9be	; 0x9be <lcd_puts>

lcd_puts(" цен.кн.-OK");
    2964:	81 ef       	ldi	r24, 0xF1	; 241
    2966:	90 e0       	ldi	r25, 0x00	; 0
    2968:	0e 94 df 04 	call	0x9be	; 0x9be <lcd_puts>
			
			if (result) 
			{
				result=false;
				lcd_gotoxy(0, 1);
				lcd_puts("Нет");
    296c:	cd ee       	ldi	r28, 0xED	; 237
    296e:	d0 e0       	ldi	r29, 0x00	; 0
		//	if ((result)<max_value) result++;
			if (result==false)
			{
				result=true;
				lcd_gotoxy(0, 1);
				lcd_puts("Да ");
    2970:	0f 2e       	mov	r0, r31
    2972:	f9 ee       	ldi	r31, 0xE9	; 233
    2974:	ef 2e       	mov	r14, r31
    2976:	f0 e0       	ldi	r31, 0x00	; 0
    2978:	ff 2e       	mov	r15, r31
    297a:	f0 2d       	mov	r31, r0
    297c:	36 c0       	rjmp	.+108    	; 0x29ea <get_friendly_fire_settings+0xc8>

lcd_puts(" цен.кн.-OK");

while  (joystick_event!=key_central_pressing)
{
	while  (joystick_event==no_pressing){};
    297e:	80 91 0b 03 	lds	r24, 0x030B
    2982:	88 23       	and	r24, r24
    2984:	e1 f3       	breq	.-8      	; 0x297e <get_friendly_fire_settings+0x5c>
	switch(joystick_event){
    2986:	80 91 0b 03 	lds	r24, 0x030B
    298a:	83 30       	cpi	r24, 0x03	; 3
    298c:	e1 f0       	breq	.+56     	; 0x29c6 <get_friendly_fire_settings+0xa4>
    298e:	84 30       	cpi	r24, 0x04	; 4
    2990:	28 f4       	brcc	.+10     	; 0x299c <get_friendly_fire_settings+0x7a>
    2992:	81 30       	cpi	r24, 0x01	; 1
    2994:	41 f0       	breq	.+16     	; 0x29a6 <get_friendly_fire_settings+0x84>
    2996:	82 30       	cpi	r24, 0x02	; 2
    2998:	31 f5       	brne	.+76     	; 0x29e6 <get_friendly_fire_settings+0xc4>
    299a:	08 c0       	rjmp	.+16     	; 0x29ac <get_friendly_fire_settings+0x8a>
    299c:	84 30       	cpi	r24, 0x04	; 4
    299e:	b1 f0       	breq	.+44     	; 0x29cc <get_friendly_fire_settings+0xaa>
    29a0:	85 30       	cpi	r24, 0x05	; 5
    29a2:	09 f5       	brne	.+66     	; 0x29e6 <get_friendly_fire_settings+0xc4>
    29a4:	22 c0       	rjmp	.+68     	; 0x29ea <get_friendly_fire_settings+0xc8>
	//		lcd_gotoxy(0, 0);
	
	//		if ((result+10)<=max_value) result=result+10;
	//		lcd_gotoxy(0, 1);
	//		lcd_puts(int_to_str(result,3));
			joystick_event = no_pressing;
    29a6:	10 92 0b 03 	sts	0x030B, r1
    29aa:	1f c0       	rjmp	.+62     	; 0x29ea <get_friendly_fire_settings+0xc8>
		{
			//lcd_clrscr();
			//lcd_home();
		
		//	if ((result)<max_value) result++;
			if (result==false)
    29ac:	11 23       	and	r17, r17
    29ae:	41 f4       	brne	.+16     	; 0x29c0 <get_friendly_fire_settings+0x9e>
			{
				result=true;
				lcd_gotoxy(0, 1);
    29b0:	80 e0       	ldi	r24, 0x00	; 0
    29b2:	61 e0       	ldi	r22, 0x01	; 1
    29b4:	0e 94 ef 04 	call	0x9de	; 0x9de <lcd_gotoxy>
				lcd_puts("Да ");
    29b8:	c7 01       	movw	r24, r14
    29ba:	0e 94 df 04 	call	0x9be	; 0x9be <lcd_puts>
    29be:	11 e0       	ldi	r17, 0x01	; 1
			}
			
			joystick_event = no_pressing;
    29c0:	10 92 0b 03 	sts	0x030B, r1
    29c4:	12 c0       	rjmp	.+36     	; 0x29ea <get_friendly_fire_settings+0xc8>
	//		lcd_clrscr();
	//		lcd_gotoxy(0, 0);
	//		if((result-9)>0) result=result-10;
	//		lcd_gotoxy(0, 1);
	//		lcd_puts(int_to_str(result,3));
			joystick_event = no_pressing;
    29c6:	10 92 0b 03 	sts	0x030B, r1
    29ca:	0f c0       	rjmp	.+30     	; 0x29ea <get_friendly_fire_settings+0xc8>
		case key_left_pressing: 
		{
			//lcd_clrscr();
			//lcd_gotoxy(0, 0);
			
			if (result) 
    29cc:	11 23       	and	r17, r17
    29ce:	41 f0       	breq	.+16     	; 0x29e0 <get_friendly_fire_settings+0xbe>
			{
				result=false;
				lcd_gotoxy(0, 1);
    29d0:	80 e0       	ldi	r24, 0x00	; 0
    29d2:	61 e0       	ldi	r22, 0x01	; 1
    29d4:	0e 94 ef 04 	call	0x9de	; 0x9de <lcd_gotoxy>
				lcd_puts("Нет");
    29d8:	ce 01       	movw	r24, r28
    29da:	0e 94 df 04 	call	0x9be	; 0x9be <lcd_puts>
    29de:	10 e0       	ldi	r17, 0x00	; 0
			}
			
			joystick_event = no_pressing;
    29e0:	10 92 0b 03 	sts	0x030B, r1
    29e4:	02 c0       	rjmp	.+4      	; 0x29ea <get_friendly_fire_settings+0xc8>
		case key_central_pressing: 
		{
			
		}
		break;
		default: joystick_event = no_pressing;
    29e6:	10 92 0b 03 	sts	0x030B, r1
if (result) lcd_puts("Да ");
else lcd_puts("Нет");

lcd_puts(" цен.кн.-OK");

while  (joystick_event!=key_central_pressing)
    29ea:	80 91 0b 03 	lds	r24, 0x030B
    29ee:	85 30       	cpi	r24, 0x05	; 5
    29f0:	31 f6       	brne	.-116    	; 0x297e <get_friendly_fire_settings+0x5c>
	
	
	}
}

if (result != eeprom_read_byte(&friendly_fire_enable))
    29f2:	8a e2       	ldi	r24, 0x2A	; 42
    29f4:	90 e0       	ldi	r25, 0x00	; 0
    29f6:	0e 94 5b 28 	call	0x50b6	; 0x50b6 <__eerd_byte_m32>
    29fa:	18 17       	cp	r17, r24
    29fc:	59 f0       	breq	.+22     	; 0x2a14 <get_friendly_fire_settings+0xf2>
	{
	
	lcd_clrscr();
    29fe:	0e 94 a0 04 	call	0x940	; 0x940 <lcd_clrscr>
	lcd_puts("Сохранение...");
    2a02:	8d ef       	ldi	r24, 0xFD	; 253
    2a04:	90 e0       	ldi	r25, 0x00	; 0
    2a06:	0e 94 df 04 	call	0x9be	; 0x9be <lcd_puts>
	eeprom_write_byte(&friendly_fire_enable, result);	
    2a0a:	8a e2       	ldi	r24, 0x2A	; 42
    2a0c:	90 e0       	ldi	r25, 0x00	; 0
    2a0e:	61 2f       	mov	r22, r17
    2a10:	0e 94 69 28 	call	0x50d2	; 0x50d2 <__eewr_byte_m32>
	}

}
    2a14:	df 91       	pop	r29
    2a16:	cf 91       	pop	r28
    2a18:	1f 91       	pop	r17
    2a1a:	ff 90       	pop	r15
    2a1c:	ef 90       	pop	r14
    2a1e:	08 95       	ret

00002a20 <get_ir_power_settings>:




void get_ir_power_settings(void)
{
    2a20:	df 92       	push	r13
    2a22:	ef 92       	push	r14
    2a24:	ff 92       	push	r15
    2a26:	0f 93       	push	r16
    2a28:	1f 93       	push	r17
    2a2a:	cf 93       	push	r28
    2a2c:	df 93       	push	r29
uint8_t result;
uint8_t value;
joystick_event=no_pressing;
    2a2e:	10 92 0b 03 	sts	0x030B, r1
result = eeprom_read_byte(&eeprom_curr_ir_pin);
    2a32:	8a e0       	ldi	r24, 0x0A	; 10
    2a34:	90 e0       	ldi	r25, 0x00	; 0
    2a36:	0e 94 5b 28 	call	0x50b6	; 0x50b6 <__eerd_byte_m32>
    2a3a:	18 2f       	mov	r17, r24
lcd_clrscr();
    2a3c:	0e 94 a0 04 	call	0x940	; 0x940 <lcd_clrscr>
lcd_puts("Мощность ИК для");
    2a40:	8b e0       	ldi	r24, 0x0B	; 11
    2a42:	91 e0       	ldi	r25, 0x01	; 1
    2a44:	0e 94 df 04 	call	0x9be	; 0x9be <lcd_puts>
lcd_gotoxy(0, 1);
    2a48:	80 e0       	ldi	r24, 0x00	; 0
    2a4a:	61 e0       	ldi	r22, 0x01	; 1
    2a4c:	0e 94 ef 04 	call	0x9de	; 0x9de <lcd_gotoxy>
if (result==IR_LED_HIGH_POWER_PIN) lcd_puts("улицы");
    2a50:	10 34       	cpi	r17, 0x40	; 64
    2a52:	29 f4       	brne	.+10     	; 0x2a5e <get_ir_power_settings+0x3e>
    2a54:	8b e1       	ldi	r24, 0x1B	; 27
    2a56:	91 e0       	ldi	r25, 0x01	; 1
    2a58:	0e 94 df 04 	call	0x9be	; 0x9be <lcd_puts>
    2a5c:	06 c0       	rjmp	.+12     	; 0x2a6a <get_ir_power_settings+0x4a>
if (result==IR_LED_LOW_POWER_PIN) lcd_puts("помещ");
    2a5e:	10 38       	cpi	r17, 0x80	; 128
    2a60:	21 f4       	brne	.+8      	; 0x2a6a <get_ir_power_settings+0x4a>
    2a62:	81 e2       	ldi	r24, 0x21	; 33
    2a64:	91 e0       	ldi	r25, 0x01	; 1
    2a66:	0e 94 df 04 	call	0x9be	; 0x9be <lcd_puts>

lcd_puts(" цен.кн.-OK");
    2a6a:	81 ef       	ldi	r24, 0xF1	; 241
    2a6c:	90 e0       	ldi	r25, 0x00	; 0
    2a6e:	0e 94 df 04 	call	0x9be	; 0x9be <lcd_puts>
			
			if (result==IR_LED_HIGH_POWER_PIN) 
			{
				result=IR_LED_LOW_POWER_PIN;
				lcd_gotoxy(0, 1);
				lcd_puts("помещ");
    2a72:	0f 2e       	mov	r0, r31
    2a74:	f1 e2       	ldi	r31, 0x21	; 33
    2a76:	ef 2e       	mov	r14, r31
    2a78:	f1 e0       	ldi	r31, 0x01	; 1
    2a7a:	ff 2e       	mov	r15, r31
    2a7c:	f0 2d       	mov	r31, r0
    2a7e:	00 e8       	ldi	r16, 0x80	; 128
		//	if ((result)<max_value) result++;
			if (result==IR_LED_LOW_POWER_PIN)
			{
				result=IR_LED_HIGH_POWER_PIN;
				lcd_gotoxy(0, 1);
				lcd_puts("улицы");
    2a80:	cb e1       	ldi	r28, 0x1B	; 27
    2a82:	d1 e0       	ldi	r29, 0x01	; 1
    2a84:	dd 24       	eor	r13, r13
    2a86:	68 94       	set
    2a88:	d6 f8       	bld	r13, 6
    2a8a:	36 c0       	rjmp	.+108    	; 0x2af8 <get_ir_power_settings+0xd8>

lcd_puts(" цен.кн.-OK");

while  (joystick_event!=key_central_pressing)
{
	while  (joystick_event==no_pressing){};
    2a8c:	80 91 0b 03 	lds	r24, 0x030B
    2a90:	88 23       	and	r24, r24
    2a92:	e1 f3       	breq	.-8      	; 0x2a8c <get_ir_power_settings+0x6c>
	switch(joystick_event){
    2a94:	80 91 0b 03 	lds	r24, 0x030B
    2a98:	83 30       	cpi	r24, 0x03	; 3
    2a9a:	e1 f0       	breq	.+56     	; 0x2ad4 <get_ir_power_settings+0xb4>
    2a9c:	84 30       	cpi	r24, 0x04	; 4
    2a9e:	28 f4       	brcc	.+10     	; 0x2aaa <get_ir_power_settings+0x8a>
    2aa0:	81 30       	cpi	r24, 0x01	; 1
    2aa2:	41 f0       	breq	.+16     	; 0x2ab4 <get_ir_power_settings+0x94>
    2aa4:	82 30       	cpi	r24, 0x02	; 2
    2aa6:	31 f5       	brne	.+76     	; 0x2af4 <get_ir_power_settings+0xd4>
    2aa8:	08 c0       	rjmp	.+16     	; 0x2aba <get_ir_power_settings+0x9a>
    2aaa:	84 30       	cpi	r24, 0x04	; 4
    2aac:	b1 f0       	breq	.+44     	; 0x2ada <get_ir_power_settings+0xba>
    2aae:	85 30       	cpi	r24, 0x05	; 5
    2ab0:	09 f5       	brne	.+66     	; 0x2af4 <get_ir_power_settings+0xd4>
    2ab2:	22 c0       	rjmp	.+68     	; 0x2af8 <get_ir_power_settings+0xd8>
	//		lcd_gotoxy(0, 0);
	
	//		if ((result+10)<=max_value) result=result+10;
	//		lcd_gotoxy(0, 1);
	//		lcd_puts(int_to_str(result,3));
			joystick_event = no_pressing;
    2ab4:	10 92 0b 03 	sts	0x030B, r1
    2ab8:	1f c0       	rjmp	.+62     	; 0x2af8 <get_ir_power_settings+0xd8>
		{
			//lcd_clrscr();
			//lcd_home();
		
		//	if ((result)<max_value) result++;
			if (result==IR_LED_LOW_POWER_PIN)
    2aba:	10 38       	cpi	r17, 0x80	; 128
    2abc:	41 f4       	brne	.+16     	; 0x2ace <get_ir_power_settings+0xae>
			{
				result=IR_LED_HIGH_POWER_PIN;
				lcd_gotoxy(0, 1);
    2abe:	80 e0       	ldi	r24, 0x00	; 0
    2ac0:	61 e0       	ldi	r22, 0x01	; 1
    2ac2:	0e 94 ef 04 	call	0x9de	; 0x9de <lcd_gotoxy>
				lcd_puts("улицы");
    2ac6:	ce 01       	movw	r24, r28
    2ac8:	0e 94 df 04 	call	0x9be	; 0x9be <lcd_puts>
    2acc:	1d 2d       	mov	r17, r13
			}
			
			joystick_event = no_pressing;
    2ace:	10 92 0b 03 	sts	0x030B, r1
    2ad2:	12 c0       	rjmp	.+36     	; 0x2af8 <get_ir_power_settings+0xd8>
	//		lcd_clrscr();
	//		lcd_gotoxy(0, 0);
	//		if((result-9)>0) result=result-10;
	//		lcd_gotoxy(0, 1);
	//		lcd_puts(int_to_str(result,3));
			joystick_event = no_pressing;
    2ad4:	10 92 0b 03 	sts	0x030B, r1
    2ad8:	0f c0       	rjmp	.+30     	; 0x2af8 <get_ir_power_settings+0xd8>
		case key_left_pressing: 
		{
			//lcd_clrscr();
			//lcd_gotoxy(0, 0);
			
			if (result==IR_LED_HIGH_POWER_PIN) 
    2ada:	10 34       	cpi	r17, 0x40	; 64
    2adc:	41 f4       	brne	.+16     	; 0x2aee <get_ir_power_settings+0xce>
			{
				result=IR_LED_LOW_POWER_PIN;
				lcd_gotoxy(0, 1);
    2ade:	80 e0       	ldi	r24, 0x00	; 0
    2ae0:	61 e0       	ldi	r22, 0x01	; 1
    2ae2:	0e 94 ef 04 	call	0x9de	; 0x9de <lcd_gotoxy>
				lcd_puts("помещ");
    2ae6:	c7 01       	movw	r24, r14
    2ae8:	0e 94 df 04 	call	0x9be	; 0x9be <lcd_puts>
    2aec:	10 2f       	mov	r17, r16
			}
			
			joystick_event = no_pressing;
    2aee:	10 92 0b 03 	sts	0x030B, r1
    2af2:	02 c0       	rjmp	.+4      	; 0x2af8 <get_ir_power_settings+0xd8>
		case key_central_pressing: 
		{
			
		}
		break;
		default: joystick_event = no_pressing;
    2af4:	10 92 0b 03 	sts	0x030B, r1
if (result==IR_LED_HIGH_POWER_PIN) lcd_puts("улицы");
if (result==IR_LED_LOW_POWER_PIN) lcd_puts("помещ");

lcd_puts(" цен.кн.-OK");

while  (joystick_event!=key_central_pressing)
    2af8:	80 91 0b 03 	lds	r24, 0x030B
    2afc:	85 30       	cpi	r24, 0x05	; 5
    2afe:	31 f6       	brne	.-116    	; 0x2a8c <get_ir_power_settings+0x6c>
	
	
	}
}

if (result != eeprom_read_byte(&eeprom_curr_ir_pin))
    2b00:	8a e0       	ldi	r24, 0x0A	; 10
    2b02:	90 e0       	ldi	r25, 0x00	; 0
    2b04:	0e 94 5b 28 	call	0x50b6	; 0x50b6 <__eerd_byte_m32>
    2b08:	18 17       	cp	r17, r24
    2b0a:	59 f0       	breq	.+22     	; 0x2b22 <get_ir_power_settings+0x102>
	{
	
	lcd_clrscr();
    2b0c:	0e 94 a0 04 	call	0x940	; 0x940 <lcd_clrscr>
	lcd_puts("Сохранение...");
    2b10:	8d ef       	ldi	r24, 0xFD	; 253
    2b12:	90 e0       	ldi	r25, 0x00	; 0
    2b14:	0e 94 df 04 	call	0x9be	; 0x9be <lcd_puts>
	eeprom_write_byte(&eeprom_curr_ir_pin, result);	
    2b18:	8a e0       	ldi	r24, 0x0A	; 10
    2b1a:	90 e0       	ldi	r25, 0x00	; 0
    2b1c:	61 2f       	mov	r22, r17
    2b1e:	0e 94 69 28 	call	0x50d2	; 0x50d2 <__eewr_byte_m32>
	}

}
    2b22:	df 91       	pop	r29
    2b24:	cf 91       	pop	r28
    2b26:	1f 91       	pop	r17
    2b28:	0f 91       	pop	r16
    2b2a:	ff 90       	pop	r15
    2b2c:	ef 90       	pop	r14
    2b2e:	df 90       	pop	r13
    2b30:	08 95       	ret

00002b32 <get_enum_settings>:




volatile void get_enum_settings(char* text, uint8_t* var_adress, uint8_t* arr_adress, uint8_t max_value)
{
    2b32:	bf 92       	push	r11
    2b34:	cf 92       	push	r12
    2b36:	df 92       	push	r13
    2b38:	ef 92       	push	r14
    2b3a:	ff 92       	push	r15
    2b3c:	0f 93       	push	r16
    2b3e:	1f 93       	push	r17
    2b40:	cf 93       	push	r28
    2b42:	df 93       	push	r29
    2b44:	8c 01       	movw	r16, r24
    2b46:	6b 01       	movw	r12, r22
    2b48:	ea 01       	movw	r28, r20
    2b4a:	b2 2e       	mov	r11, r18
uint8_t result;
uint8_t value;
joystick_event=no_pressing;
    2b4c:	10 92 0b 03 	sts	0x030B, r1
result = eeprom_read_byte(var_adress);
    2b50:	cb 01       	movw	r24, r22
    2b52:	0e 94 5b 28 	call	0x50b6	; 0x50b6 <__eerd_byte_m32>
    2b56:	f8 2e       	mov	r15, r24
value = pgm_read_byte(arr_adress+result);
    2b58:	fe 01       	movw	r30, r28
    2b5a:	e8 0f       	add	r30, r24
    2b5c:	f1 1d       	adc	r31, r1
    2b5e:	e4 90       	lpm	r14, Z+

lcd_clrscr();
    2b60:	0e 94 a0 04 	call	0x940	; 0x940 <lcd_clrscr>
lcd_puts(text);
    2b64:	c8 01       	movw	r24, r16
    2b66:	0e 94 df 04 	call	0x9be	; 0x9be <lcd_puts>
lcd_gotoxy(0, 1);
    2b6a:	80 e0       	ldi	r24, 0x00	; 0
    2b6c:	61 e0       	ldi	r22, 0x01	; 1
    2b6e:	0e 94 ef 04 	call	0x9de	; 0x9de <lcd_gotoxy>
lcd_puts(int_to_str(value,3));
    2b72:	8e 2d       	mov	r24, r14
    2b74:	63 e0       	ldi	r22, 0x03	; 3
    2b76:	0e 94 e3 0c 	call	0x19c6	; 0x19c6 <int_to_str>
    2b7a:	0e 94 df 04 	call	0x9be	; 0x9be <lcd_puts>
lcd_puts(" центр.кн.-OK");
    2b7e:	87 e2       	ldi	r24, 0x27	; 39
    2b80:	91 e0       	ldi	r25, 0x01	; 1
    2b82:	0e 94 df 04 	call	0x9be	; 0x9be <lcd_puts>
    2b86:	43 c0       	rjmp	.+134    	; 0x2c0e <get_enum_settings+0xdc>

while  (joystick_event!=key_central_pressing)
{
	while  (joystick_event==no_pressing){};
    2b88:	80 91 0b 03 	lds	r24, 0x030B
    2b8c:	88 23       	and	r24, r24
    2b8e:	e1 f3       	breq	.-8      	; 0x2b88 <get_enum_settings+0x56>
	switch(joystick_event){
    2b90:	80 91 0b 03 	lds	r24, 0x030B
    2b94:	83 30       	cpi	r24, 0x03	; 3
    2b96:	19 f1       	breq	.+70     	; 0x2bde <get_enum_settings+0xac>
    2b98:	84 30       	cpi	r24, 0x04	; 4
    2b9a:	28 f4       	brcc	.+10     	; 0x2ba6 <get_enum_settings+0x74>
    2b9c:	81 30       	cpi	r24, 0x01	; 1
    2b9e:	41 f0       	breq	.+16     	; 0x2bb0 <get_enum_settings+0x7e>
    2ba0:	82 30       	cpi	r24, 0x02	; 2
    2ba2:	99 f5       	brne	.+102    	; 0x2c0a <get_enum_settings+0xd8>
    2ba4:	08 c0       	rjmp	.+16     	; 0x2bb6 <get_enum_settings+0x84>
    2ba6:	84 30       	cpi	r24, 0x04	; 4
    2ba8:	e9 f0       	breq	.+58     	; 0x2be4 <get_enum_settings+0xb2>
    2baa:	85 30       	cpi	r24, 0x05	; 5
    2bac:	71 f5       	brne	.+92     	; 0x2c0a <get_enum_settings+0xd8>
    2bae:	2f c0       	rjmp	.+94     	; 0x2c0e <get_enum_settings+0xdc>
	//		lcd_gotoxy(0, 0);
	
	//		if ((result+10)<=max_value) result=result+10;
	//		lcd_gotoxy(0, 1);
	//		lcd_puts(int_to_str(result,3));
			joystick_event = no_pressing;
    2bb0:	10 92 0b 03 	sts	0x030B, r1
    2bb4:	2c c0       	rjmp	.+88     	; 0x2c0e <get_enum_settings+0xdc>
		break;
		case key_right_pressing: 
		{
			//lcd_clrscr();
			//lcd_home();
			if ((result)<max_value) result++;
    2bb6:	fb 14       	cp	r15, r11
    2bb8:	08 f4       	brcc	.+2      	; 0x2bbc <get_enum_settings+0x8a>
    2bba:	f3 94       	inc	r15
			lcd_gotoxy(0, 1);
    2bbc:	80 e0       	ldi	r24, 0x00	; 0
    2bbe:	61 e0       	ldi	r22, 0x01	; 1
    2bc0:	0e 94 ef 04 	call	0x9de	; 0x9de <lcd_gotoxy>
			lcd_puts(int_to_str(pgm_read_byte(arr_adress+result),3));
    2bc4:	fe 01       	movw	r30, r28
    2bc6:	ef 0d       	add	r30, r15
    2bc8:	f1 1d       	adc	r31, r1
    2bca:	e4 91       	lpm	r30, Z+
    2bcc:	8e 2f       	mov	r24, r30
    2bce:	63 e0       	ldi	r22, 0x03	; 3
    2bd0:	0e 94 e3 0c 	call	0x19c6	; 0x19c6 <int_to_str>
    2bd4:	0e 94 df 04 	call	0x9be	; 0x9be <lcd_puts>
			//lcd_puts("Нажата кнопка \n");
			//lcd_puts("Вправо");
			joystick_event = no_pressing;
    2bd8:	10 92 0b 03 	sts	0x030B, r1
    2bdc:	18 c0       	rjmp	.+48     	; 0x2c0e <get_enum_settings+0xdc>
	//		lcd_clrscr();
	//		lcd_gotoxy(0, 0);
	//		if((result-9)>0) result=result-10;
	//		lcd_gotoxy(0, 1);
	//		lcd_puts(int_to_str(result,3));
			joystick_event = no_pressing;
    2bde:	10 92 0b 03 	sts	0x030B, r1
    2be2:	15 c0       	rjmp	.+42     	; 0x2c0e <get_enum_settings+0xdc>
		break;
		case key_left_pressing: 
		{
			//lcd_clrscr();
			//lcd_gotoxy(0, 0);
			if ((result)>0) result--;
    2be4:	f1 10       	cpse	r15, r1
    2be6:	fa 94       	dec	r15
			//lcd_puts("Нажата кнопка \n");
			//lcd_puts("Влево");
			lcd_gotoxy(0, 1);
    2be8:	80 e0       	ldi	r24, 0x00	; 0
    2bea:	61 e0       	ldi	r22, 0x01	; 1
    2bec:	0e 94 ef 04 	call	0x9de	; 0x9de <lcd_gotoxy>
			lcd_puts(int_to_str(pgm_read_byte(arr_adress+result),3));
    2bf0:	fe 01       	movw	r30, r28
    2bf2:	ef 0d       	add	r30, r15
    2bf4:	f1 1d       	adc	r31, r1
    2bf6:	e4 91       	lpm	r30, Z+
    2bf8:	8e 2f       	mov	r24, r30
    2bfa:	63 e0       	ldi	r22, 0x03	; 3
    2bfc:	0e 94 e3 0c 	call	0x19c6	; 0x19c6 <int_to_str>
    2c00:	0e 94 df 04 	call	0x9be	; 0x9be <lcd_puts>
			joystick_event = no_pressing;
    2c04:	10 92 0b 03 	sts	0x030B, r1
    2c08:	02 c0       	rjmp	.+4      	; 0x2c0e <get_enum_settings+0xdc>
		case key_central_pressing: 
		{
			
		}
		break;
		default: joystick_event = no_pressing;
    2c0a:	10 92 0b 03 	sts	0x030B, r1
lcd_puts(text);
lcd_gotoxy(0, 1);
lcd_puts(int_to_str(value,3));
lcd_puts(" центр.кн.-OK");

while  (joystick_event!=key_central_pressing)
    2c0e:	80 91 0b 03 	lds	r24, 0x030B
    2c12:	85 30       	cpi	r24, 0x05	; 5
    2c14:	09 f0       	breq	.+2      	; 0x2c18 <get_enum_settings+0xe6>
    2c16:	b8 cf       	rjmp	.-144    	; 0x2b88 <get_enum_settings+0x56>
	
	
	}
}

if (result != eeprom_read_byte(var_adress))
    2c18:	c6 01       	movw	r24, r12
    2c1a:	0e 94 5b 28 	call	0x50b6	; 0x50b6 <__eerd_byte_m32>
    2c1e:	f8 16       	cp	r15, r24
    2c20:	51 f0       	breq	.+20     	; 0x2c36 <get_enum_settings+0x104>
	{
	
	lcd_clrscr();
    2c22:	0e 94 a0 04 	call	0x940	; 0x940 <lcd_clrscr>
	lcd_puts("Сохранение...");
    2c26:	8d ef       	ldi	r24, 0xFD	; 253
    2c28:	90 e0       	ldi	r25, 0x00	; 0
    2c2a:	0e 94 df 04 	call	0x9be	; 0x9be <lcd_puts>
	eeprom_write_byte(var_adress, result);	
    2c2e:	c6 01       	movw	r24, r12
    2c30:	6f 2d       	mov	r22, r15
    2c32:	0e 94 69 28 	call	0x50d2	; 0x50d2 <__eewr_byte_m32>
	}

}
    2c36:	df 91       	pop	r29
    2c38:	cf 91       	pop	r28
    2c3a:	1f 91       	pop	r17
    2c3c:	0f 91       	pop	r16
    2c3e:	ff 90       	pop	r15
    2c40:	ef 90       	pop	r14
    2c42:	df 90       	pop	r13
    2c44:	cf 90       	pop	r12
    2c46:	bf 90       	pop	r11
    2c48:	08 95       	ret

00002c4a <get_int_settings>:





volatile void get_int_settings(char* text, uint8_t* var_adress, uint8_t max_value){//Получаем значения настроек с помощью джойстика и ЖКИ
    2c4a:	ef 92       	push	r14
    2c4c:	ff 92       	push	r15
    2c4e:	0f 93       	push	r16
    2c50:	1f 93       	push	r17
    2c52:	cf 93       	push	r28
    2c54:	df 93       	push	r29
    2c56:	ec 01       	movw	r28, r24
    2c58:	7b 01       	movw	r14, r22
    2c5a:	04 2f       	mov	r16, r20
uint8_t result;
joystick_event=no_pressing;
    2c5c:	10 92 0b 03 	sts	0x030B, r1
result = eeprom_read_byte(var_adress);
    2c60:	cb 01       	movw	r24, r22
    2c62:	0e 94 5b 28 	call	0x50b6	; 0x50b6 <__eerd_byte_m32>
    2c66:	10 2f       	mov	r17, r16
    2c68:	80 17       	cp	r24, r16
    2c6a:	08 f4       	brcc	.+2      	; 0x2c6e <get_int_settings+0x24>
    2c6c:	18 2f       	mov	r17, r24
if (result>max_value) result = max_value;

lcd_clrscr();
    2c6e:	0e 94 a0 04 	call	0x940	; 0x940 <lcd_clrscr>
lcd_puts(text);
    2c72:	ce 01       	movw	r24, r28
    2c74:	0e 94 df 04 	call	0x9be	; 0x9be <lcd_puts>
lcd_gotoxy(0, 1);
    2c78:	80 e0       	ldi	r24, 0x00	; 0
    2c7a:	61 e0       	ldi	r22, 0x01	; 1
    2c7c:	0e 94 ef 04 	call	0x9de	; 0x9de <lcd_gotoxy>
lcd_puts(int_to_str(result,3));
    2c80:	81 2f       	mov	r24, r17
    2c82:	63 e0       	ldi	r22, 0x03	; 3
    2c84:	0e 94 e3 0c 	call	0x19c6	; 0x19c6 <int_to_str>
    2c88:	0e 94 df 04 	call	0x9be	; 0x9be <lcd_puts>
lcd_puts(" центр.кн.-OK");
    2c8c:	87 e2       	ldi	r24, 0x27	; 39
    2c8e:	91 e0       	ldi	r25, 0x01	; 1
    2c90:	0e 94 df 04 	call	0x9be	; 0x9be <lcd_puts>
	case key_up_pressing: 
		{
		//	lcd_clrscr();
	//		lcd_gotoxy(0, 0);
	
			if ((result+10)<=max_value) result=result+10;
    2c94:	c0 2f       	mov	r28, r16
    2c96:	d0 e0       	ldi	r29, 0x00	; 0
    2c98:	5f c0       	rjmp	.+190    	; 0x2d58 <get_int_settings+0x10e>
lcd_puts(int_to_str(result,3));
lcd_puts(" центр.кн.-OK");

while  (joystick_event!=key_central_pressing)
{
	while  (joystick_event==no_pressing){};
    2c9a:	80 91 0b 03 	lds	r24, 0x030B
    2c9e:	88 23       	and	r24, r24
    2ca0:	e1 f3       	breq	.-8      	; 0x2c9a <get_int_settings+0x50>
	switch(joystick_event){
    2ca2:	80 91 0b 03 	lds	r24, 0x030B
    2ca6:	83 30       	cpi	r24, 0x03	; 3
    2ca8:	91 f1       	breq	.+100    	; 0x2d0e <get_int_settings+0xc4>
    2caa:	84 30       	cpi	r24, 0x04	; 4
    2cac:	30 f4       	brcc	.+12     	; 0x2cba <get_int_settings+0x70>
    2cae:	81 30       	cpi	r24, 0x01	; 1
    2cb0:	51 f0       	breq	.+20     	; 0x2cc6 <get_int_settings+0x7c>
    2cb2:	82 30       	cpi	r24, 0x02	; 2
    2cb4:	09 f0       	breq	.+2      	; 0x2cb8 <get_int_settings+0x6e>
    2cb6:	4e c0       	rjmp	.+156    	; 0x2d54 <get_int_settings+0x10a>
    2cb8:	1a c0       	rjmp	.+52     	; 0x2cee <get_int_settings+0xa4>
    2cba:	84 30       	cpi	r24, 0x04	; 4
    2cbc:	e1 f1       	breq	.+120    	; 0x2d36 <get_int_settings+0xec>
    2cbe:	85 30       	cpi	r24, 0x05	; 5
    2cc0:	09 f0       	breq	.+2      	; 0x2cc4 <get_int_settings+0x7a>
    2cc2:	48 c0       	rjmp	.+144    	; 0x2d54 <get_int_settings+0x10a>
    2cc4:	49 c0       	rjmp	.+146    	; 0x2d58 <get_int_settings+0x10e>
	case key_up_pressing: 
		{
		//	lcd_clrscr();
	//		lcd_gotoxy(0, 0);
	
			if ((result+10)<=max_value) result=result+10;
    2cc6:	81 2f       	mov	r24, r17
    2cc8:	90 e0       	ldi	r25, 0x00	; 0
    2cca:	0a 96       	adiw	r24, 0x0a	; 10
    2ccc:	c8 17       	cp	r28, r24
    2cce:	d9 07       	cpc	r29, r25
    2cd0:	0c f0       	brlt	.+2      	; 0x2cd4 <get_int_settings+0x8a>
    2cd2:	16 5f       	subi	r17, 0xF6	; 246
			lcd_gotoxy(0, 1);
    2cd4:	80 e0       	ldi	r24, 0x00	; 0
    2cd6:	61 e0       	ldi	r22, 0x01	; 1
    2cd8:	0e 94 ef 04 	call	0x9de	; 0x9de <lcd_gotoxy>
			lcd_puts(int_to_str(result,3));
    2cdc:	81 2f       	mov	r24, r17
    2cde:	63 e0       	ldi	r22, 0x03	; 3
    2ce0:	0e 94 e3 0c 	call	0x19c6	; 0x19c6 <int_to_str>
    2ce4:	0e 94 df 04 	call	0x9be	; 0x9be <lcd_puts>
			joystick_event = no_pressing;
    2ce8:	10 92 0b 03 	sts	0x030B, r1
    2cec:	35 c0       	rjmp	.+106    	; 0x2d58 <get_int_settings+0x10e>
		break;
		case key_right_pressing: 
		{
			//lcd_clrscr();
			//lcd_home();
			if ((result)<max_value) result++;
    2cee:	10 17       	cp	r17, r16
    2cf0:	08 f4       	brcc	.+2      	; 0x2cf4 <get_int_settings+0xaa>
    2cf2:	1f 5f       	subi	r17, 0xFF	; 255
			lcd_gotoxy(0, 1);
    2cf4:	80 e0       	ldi	r24, 0x00	; 0
    2cf6:	61 e0       	ldi	r22, 0x01	; 1
    2cf8:	0e 94 ef 04 	call	0x9de	; 0x9de <lcd_gotoxy>
			lcd_puts(int_to_str(result,3));
    2cfc:	81 2f       	mov	r24, r17
    2cfe:	63 e0       	ldi	r22, 0x03	; 3
    2d00:	0e 94 e3 0c 	call	0x19c6	; 0x19c6 <int_to_str>
    2d04:	0e 94 df 04 	call	0x9be	; 0x9be <lcd_puts>
			//lcd_puts("Нажата кнопка \n");
			//lcd_puts("Вправо");
			joystick_event = no_pressing;
    2d08:	10 92 0b 03 	sts	0x030B, r1
    2d0c:	25 c0       	rjmp	.+74     	; 0x2d58 <get_int_settings+0x10e>
		break;
		case key_down_pressing: 
		{
	//		lcd_clrscr();
	//		lcd_gotoxy(0, 0);
			if((result-9)>0) result=result-10;
    2d0e:	81 2f       	mov	r24, r17
    2d10:	90 e0       	ldi	r25, 0x00	; 0
    2d12:	09 97       	sbiw	r24, 0x09	; 9
    2d14:	18 16       	cp	r1, r24
    2d16:	19 06       	cpc	r1, r25
    2d18:	0c f4       	brge	.+2      	; 0x2d1c <get_int_settings+0xd2>
    2d1a:	1a 50       	subi	r17, 0x0A	; 10
			lcd_gotoxy(0, 1);
    2d1c:	80 e0       	ldi	r24, 0x00	; 0
    2d1e:	61 e0       	ldi	r22, 0x01	; 1
    2d20:	0e 94 ef 04 	call	0x9de	; 0x9de <lcd_gotoxy>
			lcd_puts(int_to_str(result,3));
    2d24:	81 2f       	mov	r24, r17
    2d26:	63 e0       	ldi	r22, 0x03	; 3
    2d28:	0e 94 e3 0c 	call	0x19c6	; 0x19c6 <int_to_str>
    2d2c:	0e 94 df 04 	call	0x9be	; 0x9be <lcd_puts>
			joystick_event = no_pressing;
    2d30:	10 92 0b 03 	sts	0x030B, r1
    2d34:	11 c0       	rjmp	.+34     	; 0x2d58 <get_int_settings+0x10e>
		break;
		case key_left_pressing: 
		{
			//lcd_clrscr();
			//lcd_gotoxy(0, 0);
			if ((result)>0) result--;
    2d36:	11 11       	cpse	r17, r1
    2d38:	11 50       	subi	r17, 0x01	; 1
			//lcd_puts("Нажата кнопка \n");
			//lcd_puts("Влево");
			lcd_gotoxy(0, 1);
    2d3a:	80 e0       	ldi	r24, 0x00	; 0
    2d3c:	61 e0       	ldi	r22, 0x01	; 1
    2d3e:	0e 94 ef 04 	call	0x9de	; 0x9de <lcd_gotoxy>
			lcd_puts(int_to_str(result,3));
    2d42:	81 2f       	mov	r24, r17
    2d44:	63 e0       	ldi	r22, 0x03	; 3
    2d46:	0e 94 e3 0c 	call	0x19c6	; 0x19c6 <int_to_str>
    2d4a:	0e 94 df 04 	call	0x9be	; 0x9be <lcd_puts>
			joystick_event = no_pressing;
    2d4e:	10 92 0b 03 	sts	0x030B, r1
    2d52:	02 c0       	rjmp	.+4      	; 0x2d58 <get_int_settings+0x10e>
		case key_central_pressing: 
		{
			
		}
		break;
		default: joystick_event = no_pressing;
    2d54:	10 92 0b 03 	sts	0x030B, r1
lcd_puts(text);
lcd_gotoxy(0, 1);
lcd_puts(int_to_str(result,3));
lcd_puts(" центр.кн.-OK");

while  (joystick_event!=key_central_pressing)
    2d58:	80 91 0b 03 	lds	r24, 0x030B
    2d5c:	85 30       	cpi	r24, 0x05	; 5
    2d5e:	09 f0       	breq	.+2      	; 0x2d62 <get_int_settings+0x118>
    2d60:	9c cf       	rjmp	.-200    	; 0x2c9a <get_int_settings+0x50>
	
	}

}

if (result != eeprom_read_byte(var_adress))
    2d62:	c7 01       	movw	r24, r14
    2d64:	0e 94 5b 28 	call	0x50b6	; 0x50b6 <__eerd_byte_m32>
    2d68:	18 17       	cp	r17, r24
    2d6a:	51 f0       	breq	.+20     	; 0x2d80 <get_int_settings+0x136>
	{
	
	lcd_clrscr();
    2d6c:	0e 94 a0 04 	call	0x940	; 0x940 <lcd_clrscr>
	lcd_puts("Сохранение...");
    2d70:	8d ef       	ldi	r24, 0xFD	; 253
    2d72:	90 e0       	ldi	r25, 0x00	; 0
    2d74:	0e 94 df 04 	call	0x9be	; 0x9be <lcd_puts>
	eeprom_write_byte(var_adress, result);	
    2d78:	c7 01       	movw	r24, r14
    2d7a:	61 2f       	mov	r22, r17
    2d7c:	0e 94 69 28 	call	0x50d2	; 0x50d2 <__eewr_byte_m32>
	}
}
    2d80:	df 91       	pop	r29
    2d82:	cf 91       	pop	r28
    2d84:	1f 91       	pop	r17
    2d86:	0f 91       	pop	r16
    2d88:	ff 90       	pop	r15
    2d8a:	ef 90       	pop	r14
    2d8c:	08 95       	ret

00002d8e <get_all_setings>:




void get_all_setings(void)
{
    2d8e:	0f 93       	push	r16
    2d90:	1f 93       	push	r17
	get_int_settings("Идент. игрока:", &eeprom_player_id, 127); //нажата центральная кнопка
    2d92:	01 e0       	ldi	r16, 0x01	; 1
    2d94:	10 e0       	ldi	r17, 0x00	; 0
    2d96:	85 e3       	ldi	r24, 0x35	; 53
    2d98:	91 e0       	ldi	r25, 0x01	; 1
    2d9a:	b8 01       	movw	r22, r16
    2d9c:	4f e7       	ldi	r20, 0x7F	; 127
    2d9e:	0e 94 25 16 	call	0x2c4a	; 0x2c4a <get_int_settings>
	set_player_id(eeprom_read_byte(&eeprom_player_id));	//Устанавливаем идентификатор игрока
    2da2:	c8 01       	movw	r24, r16
    2da4:	0e 94 5b 28 	call	0x50b6	; 0x50b6 <__eerd_byte_m32>
    2da8:	0e 94 fb 09 	call	0x13f6	; 0x13f6 <set_player_id>
	get_int_settings("Идент. команды:", &eeprom_team_id, 3); //нажата центральная кнопка
    2dac:	84 e4       	ldi	r24, 0x44	; 68
    2dae:	91 e0       	ldi	r25, 0x01	; 1
    2db0:	60 e0       	ldi	r22, 0x00	; 0
    2db2:	70 e0       	ldi	r23, 0x00	; 0
    2db4:	43 e0       	ldi	r20, 0x03	; 3
    2db6:	0e 94 25 16 	call	0x2c4a	; 0x2c4a <get_int_settings>
	set_team_color(team_id());	//Устанавливаем идентификатор (цвет) команды
    2dba:	0e 94 ed 12 	call	0x25da	; 0x25da <team_id>
    2dbe:	0e 94 16 0a 	call	0x142c	; 0x142c <set_team_color>
	get_enum_settings("Наносимый урон:", &eeprom_damage, &damage_value, Damage_100);
    2dc2:	84 e5       	ldi	r24, 0x54	; 84
    2dc4:	91 e0       	ldi	r25, 0x01	; 1
    2dc6:	62 e0       	ldi	r22, 0x02	; 2
    2dc8:	70 e0       	ldi	r23, 0x00	; 0
    2dca:	45 e1       	ldi	r20, 0x15	; 21
    2dcc:	57 e0       	ldi	r21, 0x07	; 7
    2dce:	2f e0       	ldi	r18, 0x0F	; 15
    2dd0:	0e 94 99 15 	call	0x2b32	; 0x2b32 <get_enum_settings>
	set_gun_damage(gun_damage());		//Устанавливаем мощьность оружия (урон)
    2dd4:	0e 94 e8 12 	call	0x25d0	; 0x25d0 <gun_damage>
    2dd8:	0e 94 4b 0a 	call	0x1496	; 0x1496 <set_gun_damage>
	get_int_settings("Емкость магазина:", &eeprom_bullets_in_clip, 90); //нажата центральная кнопка 
    2ddc:	84 e6       	ldi	r24, 0x64	; 100
    2dde:	91 e0       	ldi	r25, 0x01	; 1
    2de0:	63 e0       	ldi	r22, 0x03	; 3
    2de2:	70 e0       	ldi	r23, 0x00	; 0
    2de4:	4a e5       	ldi	r20, 0x5A	; 90
    2de6:	0e 94 25 16 	call	0x2c4a	; 0x2c4a <get_int_settings>
	get_int_settings("Магазинов:", &eeprom_clips, 90);
    2dea:	86 e7       	ldi	r24, 0x76	; 118
    2dec:	91 e0       	ldi	r25, 0x01	; 1
    2dee:	64 e0       	ldi	r22, 0x04	; 4
    2df0:	70 e0       	ldi	r23, 0x00	; 0
    2df2:	4a e5       	ldi	r20, 0x5A	; 90
    2df4:	0e 94 25 16 	call	0x2c4a	; 0x2c4a <get_int_settings>
	get_int_settings("Время перезаряда:", &eeprom_reload_duration, 8);
    2df8:	81 e8       	ldi	r24, 0x81	; 129
    2dfa:	91 e0       	ldi	r25, 0x01	; 1
    2dfc:	65 e0       	ldi	r22, 0x05	; 5
    2dfe:	70 e0       	ldi	r23, 0x00	; 0
    2e00:	48 e0       	ldi	r20, 0x08	; 8
    2e02:	0e 94 25 16 	call	0x2c4a	; 0x2c4a <get_int_settings>
	get_ir_power_settings();
    2e06:	0e 94 10 15 	call	0x2a20	; 0x2a20 <get_ir_power_settings>
	curr_ir_pin=eeprom_read_byte(&eeprom_curr_ir_pin);
    2e0a:	8a e0       	ldi	r24, 0x0A	; 10
    2e0c:	90 e0       	ldi	r25, 0x00	; 0
    2e0e:	0e 94 5b 28 	call	0x50b6	; 0x50b6 <__eerd_byte_m32>
    2e12:	80 93 12 03 	sts	0x0312, r24
	get_friendly_fire_settings();
    2e16:	0e 94 91 14 	call	0x2922	; 0x2922 <get_friendly_fire_settings>
}
    2e1a:	1f 91       	pop	r17
    2e1c:	0f 91       	pop	r16
    2e1e:	08 95       	ret

00002e20 <write_team_id_to_eeprom>:
return result;
}



void write_team_id_to_eeprom(tteam_color color){
    2e20:	68 2f       	mov	r22, r24
eeprom_write_byte(&eeprom_team_id, color);
    2e22:	80 e0       	ldi	r24, 0x00	; 0
    2e24:	90 e0       	ldi	r25, 0x00	; 0
    2e26:	0e 94 69 28 	call	0x50d2	; 0x50d2 <__eewr_byte_m32>

}
    2e2a:	08 95       	ret

00002e2c <apply_sound_set_command>:
USART_SendStr("\r\nOK\r\n");
}



void apply_sound_set_command(uint16_t* var_adress) {
    2e2c:	bf 92       	push	r11
    2e2e:	cf 92       	push	r12
    2e30:	df 92       	push	r13
    2e32:	ef 92       	push	r14
    2e34:	ff 92       	push	r15
    2e36:	0f 93       	push	r16
    2e38:	1f 93       	push	r17
    2e3a:	df 93       	push	r29
    2e3c:	cf 93       	push	r28
    2e3e:	00 d0       	rcall	.+0      	; 0x2e40 <apply_sound_set_command+0x14>
    2e40:	0f 92       	push	r0
    2e42:	cd b7       	in	r28, 0x3d	; 61
    2e44:	de b7       	in	r29, 0x3e	; 62
    2e46:	6c 01       	movw	r12, r24
bool param_not_empty = false;
volatile char ch_tmp;
volatile uint16_t result = 0;
    2e48:	1b 82       	std	Y+3, r1	; 0x03
    2e4a:	1a 82       	std	Y+2, r1	; 0x02
    2e4c:	20 e0       	ldi	r18, 0x00	; 0
while(usartRxBuf[rxBufHead] !='\r')
    2e4e:	0f 2e       	mov	r0, r31
    2e50:	f9 e8       	ldi	r31, 0x89	; 137
    2e52:	ef 2e       	mov	r14, r31
    2e54:	f4 e0       	ldi	r31, 0x04	; 4
    2e56:	ff 2e       	mov	r15, r31
    2e58:	f0 2d       	mov	r31, r0

		ch_tmp = usartRxBuf[rxBufHead++];
		if (ch_tmp==' ') continue; //игнорируем пробелы
		if ((ch_tmp >= '0')&&(ch_tmp<= '9'))
		{
			result = result*10+char_to_int(ch_tmp);
    2e5a:	bb 24       	eor	r11, r11
    2e5c:	b3 94       	inc	r11
    2e5e:	2e c0       	rjmp	.+92     	; 0x2ebc <apply_sound_set_command+0x90>
volatile uint16_t result = 0;
while(usartRxBuf[rxBufHead] !='\r')

	{

		ch_tmp = usartRxBuf[rxBufHead++];
    2e60:	80 91 f4 02 	lds	r24, 0x02F4
    2e64:	f7 01       	movw	r30, r14
    2e66:	e8 0f       	add	r30, r24
    2e68:	f1 1d       	adc	r31, r1
    2e6a:	90 81       	ld	r25, Z
    2e6c:	99 83       	std	Y+1, r25	; 0x01
    2e6e:	8f 5f       	subi	r24, 0xFF	; 255
    2e70:	80 93 f4 02 	sts	0x02F4, r24
		if (ch_tmp==' ') continue; //игнорируем пробелы
    2e74:	89 81       	ldd	r24, Y+1	; 0x01
    2e76:	80 32       	cpi	r24, 0x20	; 32
    2e78:	09 f1       	breq	.+66     	; 0x2ebc <apply_sound_set_command+0x90>
		if ((ch_tmp >= '0')&&(ch_tmp<= '9'))
    2e7a:	89 81       	ldd	r24, Y+1	; 0x01
    2e7c:	80 33       	cpi	r24, 0x30	; 48
    2e7e:	c8 f0       	brcs	.+50     	; 0x2eb2 <apply_sound_set_command+0x86>
    2e80:	89 81       	ldd	r24, Y+1	; 0x01
    2e82:	8a 33       	cpi	r24, 0x3A	; 58
    2e84:	b0 f4       	brcc	.+44     	; 0x2eb2 <apply_sound_set_command+0x86>
		{
			result = result*10+char_to_int(ch_tmp);
    2e86:	0a 81       	ldd	r16, Y+2	; 0x02
    2e88:	1b 81       	ldd	r17, Y+3	; 0x03
    2e8a:	89 81       	ldd	r24, Y+1	; 0x01
    2e8c:	0e 94 ee 0e 	call	0x1ddc	; 0x1ddc <char_to_int>
    2e90:	98 01       	movw	r18, r16
    2e92:	22 0f       	add	r18, r18
    2e94:	33 1f       	adc	r19, r19
    2e96:	00 0f       	add	r16, r16
    2e98:	11 1f       	adc	r17, r17
    2e9a:	00 0f       	add	r16, r16
    2e9c:	11 1f       	adc	r17, r17
    2e9e:	00 0f       	add	r16, r16
    2ea0:	11 1f       	adc	r17, r17
    2ea2:	20 0f       	add	r18, r16
    2ea4:	31 1f       	adc	r19, r17
    2ea6:	28 0f       	add	r18, r24
    2ea8:	31 1d       	adc	r19, r1
    2eaa:	3b 83       	std	Y+3, r19	; 0x03
    2eac:	2a 83       	std	Y+2, r18	; 0x02
    2eae:	2b 2d       	mov	r18, r11
    2eb0:	05 c0       	rjmp	.+10     	; 0x2ebc <apply_sound_set_command+0x90>
			param_not_empty = true;
		}		
		else 
		{
			USART_SendStr("ERROR\n\r");
    2eb2:	82 ea       	ldi	r24, 0xA2	; 162
    2eb4:	90 e0       	ldi	r25, 0x00	; 0
    2eb6:	0e 94 54 27 	call	0x4ea8	; 0x4ea8 <USART_SendStr>
    2eba:	18 c0       	rjmp	.+48     	; 0x2eec <apply_sound_set_command+0xc0>

void apply_sound_set_command(uint16_t* var_adress) {
bool param_not_empty = false;
volatile char ch_tmp;
volatile uint16_t result = 0;
while(usartRxBuf[rxBufHead] !='\r')
    2ebc:	80 91 f4 02 	lds	r24, 0x02F4
    2ec0:	f7 01       	movw	r30, r14
    2ec2:	e8 0f       	add	r30, r24
    2ec4:	f1 1d       	adc	r31, r1
    2ec6:	80 81       	ld	r24, Z
    2ec8:	8d 30       	cpi	r24, 0x0D	; 13
    2eca:	51 f6       	brne	.-108    	; 0x2e60 <apply_sound_set_command+0x34>
			USART_SendStr("ERROR\n\r");
			return;
		}
	}

if (!param_not_empty) 
    2ecc:	22 23       	and	r18, r18
    2ece:	29 f4       	brne	.+10     	; 0x2eda <apply_sound_set_command+0xae>
{
	USART_SendStrP(parameter_empty_error);
    2ed0:	8f e0       	ldi	r24, 0x0F	; 15
    2ed2:	94 e0       	ldi	r25, 0x04	; 4
    2ed4:	0e 94 64 27 	call	0x4ec8	; 0x4ec8 <USART_SendStrP>
    2ed8:	09 c0       	rjmp	.+18     	; 0x2eec <apply_sound_set_command+0xc0>
	return;
}
//lcd_gotoxy(7, 0);
//lcd_puts(int_to_str(result,0));
eeprom_write_word(var_adress, result);	
    2eda:	6a 81       	ldd	r22, Y+2	; 0x02
    2edc:	7b 81       	ldd	r23, Y+3	; 0x03
    2ede:	c6 01       	movw	r24, r12
    2ee0:	0e 94 76 28 	call	0x50ec	; 0x50ec <__eewr_word_m32>
USART_SendStr("OK\r\n");
    2ee4:	8d e9       	ldi	r24, 0x9D	; 157
    2ee6:	90 e0       	ldi	r25, 0x00	; 0
    2ee8:	0e 94 54 27 	call	0x4ea8	; 0x4ea8 <USART_SendStr>
}
    2eec:	0f 90       	pop	r0
    2eee:	0f 90       	pop	r0
    2ef0:	0f 90       	pop	r0
    2ef2:	cf 91       	pop	r28
    2ef4:	df 91       	pop	r29
    2ef6:	1f 91       	pop	r17
    2ef8:	0f 91       	pop	r16
    2efa:	ff 90       	pop	r15
    2efc:	ef 90       	pop	r14
    2efe:	df 90       	pop	r13
    2f00:	cf 90       	pop	r12
    2f02:	bf 90       	pop	r11
    2f04:	08 95       	ret

00002f06 <command_29_slot>:
apply_sound_get_command(&sound_6_adress);
}


void command_29_slot(void){//"sound_6_size="
apply_sound_set_command(&sound_6_size);
    2f06:	88 e2       	ldi	r24, 0x28	; 40
    2f08:	90 e0       	ldi	r25, 0x00	; 0
    2f0a:	0e 94 16 17 	call	0x2e2c	; 0x2e2c <apply_sound_set_command>
}
    2f0e:	08 95       	ret

00002f10 <command_27_slot>:
apply_sound_get_command(&sound_5_size);
}


void command_27_slot(void){//"sound_6_adress="
apply_sound_set_command(&sound_6_adress);
    2f10:	86 e2       	ldi	r24, 0x26	; 38
    2f12:	90 e0       	ldi	r25, 0x00	; 0
    2f14:	0e 94 16 17 	call	0x2e2c	; 0x2e2c <apply_sound_set_command>
}
    2f18:	08 95       	ret

00002f1a <command_25_slot>:
apply_sound_get_command(&sound_5_adress);
}


void command_25_slot(void){//"sound_5_size="
apply_sound_set_command(&sound_5_size);
    2f1a:	84 e2       	ldi	r24, 0x24	; 36
    2f1c:	90 e0       	ldi	r25, 0x00	; 0
    2f1e:	0e 94 16 17 	call	0x2e2c	; 0x2e2c <apply_sound_set_command>
}
    2f22:	08 95       	ret

00002f24 <command_23_slot>:
void command_22_slot(void){//"sound_4_size?"
apply_sound_get_command(&sound_4_size);
}

void command_23_slot(void){//"sound_5_adress="
apply_sound_set_command(&sound_5_adress);
    2f24:	82 e2       	ldi	r24, 0x22	; 34
    2f26:	90 e0       	ldi	r25, 0x00	; 0
    2f28:	0e 94 16 17 	call	0x2e2c	; 0x2e2c <apply_sound_set_command>
}
    2f2c:	08 95       	ret

00002f2e <command_21_slot>:
apply_sound_get_command(&sound_4_adress);
}


void command_21_slot(void){//"sound_4_size=";
apply_sound_set_command(&sound_4_size);
    2f2e:	80 e2       	ldi	r24, 0x20	; 32
    2f30:	90 e0       	ldi	r25, 0x00	; 0
    2f32:	0e 94 16 17 	call	0x2e2c	; 0x2e2c <apply_sound_set_command>
}
    2f36:	08 95       	ret

00002f38 <command_19_slot>:
void command_18_slot(void){//"sound_3_size?"
apply_sound_get_command(&sound_3_size);
}

void command_19_slot(void){//"sound_4_adress="
apply_sound_set_command(&sound_4_adress);
    2f38:	8e e1       	ldi	r24, 0x1E	; 30
    2f3a:	90 e0       	ldi	r25, 0x00	; 0
    2f3c:	0e 94 16 17 	call	0x2e2c	; 0x2e2c <apply_sound_set_command>
}
    2f40:	08 95       	ret

00002f42 <command_17_slot>:
apply_sound_get_command(&sound_3_adress);
}


void command_17_slot(void){//"sound_3_size="
apply_sound_set_command(&sound_3_size);
    2f42:	8c e1       	ldi	r24, 0x1C	; 28
    2f44:	90 e0       	ldi	r25, 0x00	; 0
    2f46:	0e 94 16 17 	call	0x2e2c	; 0x2e2c <apply_sound_set_command>


}
    2f4a:	08 95       	ret

00002f4c <command_15_slot>:
apply_sound_get_command(&sound_2_size);
}


void command_15_slot(void){//"sound_3_adress="
apply_sound_set_command(&sound_3_adress);
    2f4c:	8a e1       	ldi	r24, 0x1A	; 26
    2f4e:	90 e0       	ldi	r25, 0x00	; 0
    2f50:	0e 94 16 17 	call	0x2e2c	; 0x2e2c <apply_sound_set_command>
}
    2f54:	08 95       	ret

00002f56 <command_13_slot>:
apply_sound_get_command(&sound_2_adress);
}


void command_13_slot(void){//"sound_2_size="
apply_sound_set_command(&sound_2_size);
    2f56:	88 e1       	ldi	r24, 0x18	; 24
    2f58:	90 e0       	ldi	r25, 0x00	; 0
    2f5a:	0e 94 16 17 	call	0x2e2c	; 0x2e2c <apply_sound_set_command>


}
    2f5e:	08 95       	ret

00002f60 <command_11_slot>:
apply_sound_get_command(&sound_1_size);
}


void command_11_slot(void){//"sound_2_adress="
apply_sound_set_command(&sound_2_adress);
    2f60:	86 e1       	ldi	r24, 0x16	; 22
    2f62:	90 e0       	ldi	r25, 0x00	; 0
    2f64:	0e 94 16 17 	call	0x2e2c	; 0x2e2c <apply_sound_set_command>
}
    2f68:	08 95       	ret

00002f6a <command_9_slot>:
apply_sound_get_command(&sound_1_adress);
}


void command_9_slot(void){//"sound_1_size="
apply_sound_set_command(&sound_1_size);
    2f6a:	84 e1       	ldi	r24, 0x14	; 20
    2f6c:	90 e0       	ldi	r25, 0x00	; 0
    2f6e:	0e 94 16 17 	call	0x2e2c	; 0x2e2c <apply_sound_set_command>
}
    2f72:	08 95       	ret

00002f74 <command_7_slot>:
eeprom_write_word(var_adress, result);	
USART_SendStr("OK\r\n");
}

void command_7_slot(void){//"sound_1_adress=";
apply_sound_set_command(&sound_1_adress);
    2f74:	82 e1       	ldi	r24, 0x12	; 18
    2f76:	90 e0       	ldi	r25, 0x00	; 0
    2f78:	0e 94 16 17 	call	0x2e2c	; 0x2e2c <apply_sound_set_command>
}
    2f7c:	08 95       	ret

00002f7e <get_word_argument_value>:

}


void get_word_argument_value(uint8_t* var_adress, uint16_t min_val, uint16_t max_val)
{
    2f7e:	6f 92       	push	r6
    2f80:	7f 92       	push	r7
    2f82:	9f 92       	push	r9
    2f84:	af 92       	push	r10
    2f86:	bf 92       	push	r11
    2f88:	cf 92       	push	r12
    2f8a:	df 92       	push	r13
    2f8c:	ef 92       	push	r14
    2f8e:	ff 92       	push	r15
    2f90:	0f 93       	push	r16
    2f92:	1f 93       	push	r17
    2f94:	df 93       	push	r29
    2f96:	cf 93       	push	r28
    2f98:	00 d0       	rcall	.+0      	; 0x2f9a <get_word_argument_value+0x1c>
    2f9a:	0f 92       	push	r0
    2f9c:	cd b7       	in	r28, 0x3d	; 61
    2f9e:	de b7       	in	r29, 0x3e	; 62
    2fa0:	3c 01       	movw	r6, r24
    2fa2:	5b 01       	movw	r10, r22
    2fa4:	6a 01       	movw	r12, r20

bool param_not_empty = false;
volatile char ch_tmp;
volatile uint16_t result = 0;
    2fa6:	1b 82       	std	Y+3, r1	; 0x03
    2fa8:	1a 82       	std	Y+2, r1	; 0x02
    2faa:	20 e0       	ldi	r18, 0x00	; 0

while(usartRxBuf[rxBufHead] !='\r')
    2fac:	0f 2e       	mov	r0, r31
    2fae:	f9 e8       	ldi	r31, 0x89	; 137
    2fb0:	ef 2e       	mov	r14, r31
    2fb2:	f4 e0       	ldi	r31, 0x04	; 4
    2fb4:	ff 2e       	mov	r15, r31
    2fb6:	f0 2d       	mov	r31, r0

		ch_tmp = usartRxBuf[rxBufHead++];
		if (ch_tmp==' ') continue; //игнорируем пробелы
		if ((ch_tmp >= '0')&&(ch_tmp<= '9'))
		{
			result = result*10+char_to_int(ch_tmp);
    2fb8:	99 24       	eor	r9, r9
    2fba:	93 94       	inc	r9
    2fbc:	2e c0       	rjmp	.+92     	; 0x301a <get_word_argument_value+0x9c>

while(usartRxBuf[rxBufHead] !='\r')

	{

		ch_tmp = usartRxBuf[rxBufHead++];
    2fbe:	80 91 f4 02 	lds	r24, 0x02F4
    2fc2:	f7 01       	movw	r30, r14
    2fc4:	e8 0f       	add	r30, r24
    2fc6:	f1 1d       	adc	r31, r1
    2fc8:	90 81       	ld	r25, Z
    2fca:	99 83       	std	Y+1, r25	; 0x01
    2fcc:	8f 5f       	subi	r24, 0xFF	; 255
    2fce:	80 93 f4 02 	sts	0x02F4, r24
		if (ch_tmp==' ') continue; //игнорируем пробелы
    2fd2:	89 81       	ldd	r24, Y+1	; 0x01
    2fd4:	80 32       	cpi	r24, 0x20	; 32
    2fd6:	09 f1       	breq	.+66     	; 0x301a <get_word_argument_value+0x9c>
		if ((ch_tmp >= '0')&&(ch_tmp<= '9'))
    2fd8:	89 81       	ldd	r24, Y+1	; 0x01
    2fda:	80 33       	cpi	r24, 0x30	; 48
    2fdc:	c8 f0       	brcs	.+50     	; 0x3010 <get_word_argument_value+0x92>
    2fde:	89 81       	ldd	r24, Y+1	; 0x01
    2fe0:	8a 33       	cpi	r24, 0x3A	; 58
    2fe2:	b0 f4       	brcc	.+44     	; 0x3010 <get_word_argument_value+0x92>
		{
			result = result*10+char_to_int(ch_tmp);
    2fe4:	0a 81       	ldd	r16, Y+2	; 0x02
    2fe6:	1b 81       	ldd	r17, Y+3	; 0x03
    2fe8:	89 81       	ldd	r24, Y+1	; 0x01
    2fea:	0e 94 ee 0e 	call	0x1ddc	; 0x1ddc <char_to_int>
    2fee:	98 01       	movw	r18, r16
    2ff0:	22 0f       	add	r18, r18
    2ff2:	33 1f       	adc	r19, r19
    2ff4:	00 0f       	add	r16, r16
    2ff6:	11 1f       	adc	r17, r17
    2ff8:	00 0f       	add	r16, r16
    2ffa:	11 1f       	adc	r17, r17
    2ffc:	00 0f       	add	r16, r16
    2ffe:	11 1f       	adc	r17, r17
    3000:	20 0f       	add	r18, r16
    3002:	31 1f       	adc	r19, r17
    3004:	28 0f       	add	r18, r24
    3006:	31 1d       	adc	r19, r1
    3008:	3b 83       	std	Y+3, r19	; 0x03
    300a:	2a 83       	std	Y+2, r18	; 0x02
    300c:	29 2d       	mov	r18, r9
    300e:	05 c0       	rjmp	.+10     	; 0x301a <get_word_argument_value+0x9c>
			param_not_empty = true;
		}		
		else 
		{
			USART_SendStrP(parameter_invalid_error);
    3010:	81 e5       	ldi	r24, 0x51	; 81
    3012:	94 e0       	ldi	r25, 0x04	; 4
    3014:	0e 94 64 27 	call	0x4ec8	; 0x4ec8 <USART_SendStrP>
    3018:	27 c0       	rjmp	.+78     	; 0x3068 <get_word_argument_value+0xea>

bool param_not_empty = false;
volatile char ch_tmp;
volatile uint16_t result = 0;

while(usartRxBuf[rxBufHead] !='\r')
    301a:	80 91 f4 02 	lds	r24, 0x02F4
    301e:	f7 01       	movw	r30, r14
    3020:	e8 0f       	add	r30, r24
    3022:	f1 1d       	adc	r31, r1
    3024:	80 81       	ld	r24, Z
    3026:	8d 30       	cpi	r24, 0x0D	; 13
    3028:	51 f6       	brne	.-108    	; 0x2fbe <get_word_argument_value+0x40>
			//USART_SendStr("ERROR\n\r");
			//return invalid;//недопустимый аргумент

		}
	}
if (!param_not_empty) 
    302a:	22 23       	and	r18, r18
    302c:	29 f4       	brne	.+10     	; 0x3038 <get_word_argument_value+0xba>
	{
		USART_SendStrP(parameter_empty_error);
    302e:	8f e0       	ldi	r24, 0x0F	; 15
    3030:	94 e0       	ldi	r25, 0x04	; 4
    3032:	0e 94 64 27 	call	0x4ec8	; 0x4ec8 <USART_SendStrP>
    3036:	18 c0       	rjmp	.+48     	; 0x3068 <get_word_argument_value+0xea>
		return;//пустой аргумент
	}

if ((result>max_val)||(result<min_val))
    3038:	8a 81       	ldd	r24, Y+2	; 0x02
    303a:	9b 81       	ldd	r25, Y+3	; 0x03
    303c:	c8 16       	cp	r12, r24
    303e:	d9 06       	cpc	r13, r25
    3040:	28 f0       	brcs	.+10     	; 0x304c <get_word_argument_value+0xce>
    3042:	8a 81       	ldd	r24, Y+2	; 0x02
    3044:	9b 81       	ldd	r25, Y+3	; 0x03
    3046:	8a 15       	cp	r24, r10
    3048:	9b 05       	cpc	r25, r11
    304a:	28 f4       	brcc	.+10     	; 0x3056 <get_word_argument_value+0xd8>
	{
		USART_SendStrP(parameter_out_of_range_error);
    304c:	82 e3       	ldi	r24, 0x32	; 50
    304e:	94 e0       	ldi	r25, 0x04	; 4
    3050:	0e 94 64 27 	call	0x4ec8	; 0x4ec8 <USART_SendStrP>
    3054:	09 c0       	rjmp	.+18     	; 0x3068 <get_word_argument_value+0xea>
		return;//аргумент больше максимально допустимого значения
	} 

eeprom_write_word(var_adress, result);	
    3056:	6a 81       	ldd	r22, Y+2	; 0x02
    3058:	7b 81       	ldd	r23, Y+3	; 0x03
    305a:	c3 01       	movw	r24, r6
    305c:	0e 94 76 28 	call	0x50ec	; 0x50ec <__eewr_word_m32>
USART_SendStr("OK\r\n");
    3060:	8d e9       	ldi	r24, 0x9D	; 157
    3062:	90 e0       	ldi	r25, 0x00	; 0
    3064:	0e 94 54 27 	call	0x4ea8	; 0x4ea8 <USART_SendStr>


}
    3068:	0f 90       	pop	r0
    306a:	0f 90       	pop	r0
    306c:	0f 90       	pop	r0
    306e:	cf 91       	pop	r28
    3070:	df 91       	pop	r29
    3072:	1f 91       	pop	r17
    3074:	0f 91       	pop	r16
    3076:	ff 90       	pop	r15
    3078:	ef 90       	pop	r14
    307a:	df 90       	pop	r13
    307c:	cf 90       	pop	r12
    307e:	bf 90       	pop	r11
    3080:	af 90       	pop	r10
    3082:	9f 90       	pop	r9
    3084:	7f 90       	pop	r7
    3086:	6f 90       	pop	r6
    3088:	08 95       	ret

0000308a <command_45_slot>:
USART_SendStr(long_int_to_str(eeprom_read_word(&eeprom_batt_full_voltage),0));
USART_SendStrP(ok_string);
}

void command_45_slot(void){//batt_low_voltage=
get_word_argument_value(&eeprom_batt_low_voltage, 4500, 45000);
    308a:	88 e0       	ldi	r24, 0x08	; 8
    308c:	90 e0       	ldi	r25, 0x00	; 0
    308e:	64 e9       	ldi	r22, 0x94	; 148
    3090:	71 e1       	ldi	r23, 0x11	; 17
    3092:	48 ec       	ldi	r20, 0xC8	; 200
    3094:	5f ea       	ldi	r21, 0xAF	; 175
    3096:	0e 94 bf 17 	call	0x2f7e	; 0x2f7e <get_word_argument_value>
}
    309a:	08 95       	ret

0000309c <command_43_slot>:
USART_SendStrP(ok_string);
}


void command_43_slot(void){//batt_full_voltage=
get_word_argument_value(&eeprom_batt_full_voltage, 0, 45000);
    309c:	86 e0       	ldi	r24, 0x06	; 6
    309e:	90 e0       	ldi	r25, 0x00	; 0
    30a0:	60 e0       	ldi	r22, 0x00	; 0
    30a2:	70 e0       	ldi	r23, 0x00	; 0
    30a4:	48 ec       	ldi	r20, 0xC8	; 200
    30a6:	5f ea       	ldi	r21, 0xAF	; 175
    30a8:	0e 94 bf 17 	call	0x2f7e	; 0x2f7e <get_word_argument_value>
}
    30ac:	08 95       	ret

000030ae <check_eeprom>:



void check_eeprom(){

if (eeprom_read_byte(&eeprom_player_id)>127) eeprom_write_byte(&eeprom_player_id,0); 
    30ae:	81 e0       	ldi	r24, 0x01	; 1
    30b0:	90 e0       	ldi	r25, 0x00	; 0
    30b2:	0e 94 5b 28 	call	0x50b6	; 0x50b6 <__eerd_byte_m32>
    30b6:	88 23       	and	r24, r24
    30b8:	2c f4       	brge	.+10     	; 0x30c4 <check_eeprom+0x16>
    30ba:	81 e0       	ldi	r24, 0x01	; 1
    30bc:	90 e0       	ldi	r25, 0x00	; 0
    30be:	60 e0       	ldi	r22, 0x00	; 0
    30c0:	0e 94 69 28 	call	0x50d2	; 0x50d2 <__eewr_byte_m32>
if (eeprom_read_byte(&eeprom_team_id)>3) eeprom_write_byte(&eeprom_team_id,0); 
    30c4:	80 e0       	ldi	r24, 0x00	; 0
    30c6:	90 e0       	ldi	r25, 0x00	; 0
    30c8:	0e 94 5b 28 	call	0x50b6	; 0x50b6 <__eerd_byte_m32>
    30cc:	84 30       	cpi	r24, 0x04	; 4
    30ce:	28 f0       	brcs	.+10     	; 0x30da <check_eeprom+0x2c>
    30d0:	80 e0       	ldi	r24, 0x00	; 0
    30d2:	90 e0       	ldi	r25, 0x00	; 0
    30d4:	60 e0       	ldi	r22, 0x00	; 0
    30d6:	0e 94 69 28 	call	0x50d2	; 0x50d2 <__eewr_byte_m32>
if (eeprom_read_byte(&eeprom_damage)>Damage_100) eeprom_write_byte(&eeprom_damage,Damage_10); 
    30da:	82 e0       	ldi	r24, 0x02	; 2
    30dc:	90 e0       	ldi	r25, 0x00	; 0
    30de:	0e 94 5b 28 	call	0x50b6	; 0x50b6 <__eerd_byte_m32>
    30e2:	80 31       	cpi	r24, 0x10	; 16
    30e4:	28 f0       	brcs	.+10     	; 0x30f0 <check_eeprom+0x42>
    30e6:	82 e0       	ldi	r24, 0x02	; 2
    30e8:	90 e0       	ldi	r25, 0x00	; 0
    30ea:	65 e0       	ldi	r22, 0x05	; 5
    30ec:	0e 94 69 28 	call	0x50d2	; 0x50d2 <__eewr_byte_m32>
if (eeprom_read_byte(&eeprom_bullets_in_clip)>90) eeprom_write_byte(&eeprom_bullets_in_clip,30); 
    30f0:	83 e0       	ldi	r24, 0x03	; 3
    30f2:	90 e0       	ldi	r25, 0x00	; 0
    30f4:	0e 94 5b 28 	call	0x50b6	; 0x50b6 <__eerd_byte_m32>
    30f8:	8b 35       	cpi	r24, 0x5B	; 91
    30fa:	28 f0       	brcs	.+10     	; 0x3106 <check_eeprom+0x58>
    30fc:	83 e0       	ldi	r24, 0x03	; 3
    30fe:	90 e0       	ldi	r25, 0x00	; 0
    3100:	6e e1       	ldi	r22, 0x1E	; 30
    3102:	0e 94 69 28 	call	0x50d2	; 0x50d2 <__eewr_byte_m32>
if (eeprom_read_byte(&eeprom_clips)>90) eeprom_write_byte(&eeprom_clips,15); 
    3106:	84 e0       	ldi	r24, 0x04	; 4
    3108:	90 e0       	ldi	r25, 0x00	; 0
    310a:	0e 94 5b 28 	call	0x50b6	; 0x50b6 <__eerd_byte_m32>
    310e:	8b 35       	cpi	r24, 0x5B	; 91
    3110:	28 f0       	brcs	.+10     	; 0x311c <check_eeprom+0x6e>
    3112:	84 e0       	ldi	r24, 0x04	; 4
    3114:	90 e0       	ldi	r25, 0x00	; 0
    3116:	6f e0       	ldi	r22, 0x0F	; 15
    3118:	0e 94 69 28 	call	0x50d2	; 0x50d2 <__eewr_byte_m32>
if (eeprom_read_byte(&eeprom_reload_duration)>8) eeprom_write_byte(&eeprom_reload_duration,1); 
    311c:	85 e0       	ldi	r24, 0x05	; 5
    311e:	90 e0       	ldi	r25, 0x00	; 0
    3120:	0e 94 5b 28 	call	0x50b6	; 0x50b6 <__eerd_byte_m32>
    3124:	89 30       	cpi	r24, 0x09	; 9
    3126:	28 f0       	brcs	.+10     	; 0x3132 <check_eeprom+0x84>
    3128:	85 e0       	ldi	r24, 0x05	; 5
    312a:	90 e0       	ldi	r25, 0x00	; 0
    312c:	61 e0       	ldi	r22, 0x01	; 1
    312e:	0e 94 69 28 	call	0x50d2	; 0x50d2 <__eewr_byte_m32>
if (eeprom_read_word(&eeprom_batt_full_voltage)==0xFFFF) eeprom_write_word(&eeprom_batt_full_voltage,(DEFAULT_BATT_FULL_VOLTAGE)); 
    3132:	86 e0       	ldi	r24, 0x06	; 6
    3134:	90 e0       	ldi	r25, 0x00	; 0
    3136:	0e 94 63 28 	call	0x50c6	; 0x50c6 <__eerd_word_m32>
    313a:	8f 5f       	subi	r24, 0xFF	; 255
    313c:	9f 4f       	sbci	r25, 0xFF	; 255
    313e:	31 f4       	brne	.+12     	; 0x314c <check_eeprom+0x9e>
    3140:	86 e0       	ldi	r24, 0x06	; 6
    3142:	90 e0       	ldi	r25, 0x00	; 0
    3144:	60 e9       	ldi	r22, 0x90	; 144
    3146:	7a e1       	ldi	r23, 0x1A	; 26
    3148:	0e 94 76 28 	call	0x50ec	; 0x50ec <__eewr_word_m32>
if (eeprom_read_word(&eeprom_batt_low_voltage)==0xFFFF) eeprom_write_word(&eeprom_batt_low_voltage,(DEFAULT_BATT_LOW_VOLTAGE)); 
    314c:	88 e0       	ldi	r24, 0x08	; 8
    314e:	90 e0       	ldi	r25, 0x00	; 0
    3150:	0e 94 63 28 	call	0x50c6	; 0x50c6 <__eerd_word_m32>
    3154:	8f 5f       	subi	r24, 0xFF	; 255
    3156:	9f 4f       	sbci	r25, 0xFF	; 255
    3158:	31 f4       	brne	.+12     	; 0x3166 <check_eeprom+0xb8>
    315a:	88 e0       	ldi	r24, 0x08	; 8
    315c:	90 e0       	ldi	r25, 0x00	; 0
    315e:	6c e7       	ldi	r22, 0x7C	; 124
    3160:	75 e1       	ldi	r23, 0x15	; 21
    3162:	0e 94 76 28 	call	0x50ec	; 0x50ec <__eewr_word_m32>
if ((eeprom_read_byte(&eeprom_curr_ir_pin)!=IR_LED_HIGH_POWER_PIN)&&(eeprom_read_byte(&eeprom_curr_ir_pin)!=IR_LED_LOW_POWER_PIN)) eeprom_write_byte(&eeprom_curr_ir_pin,IR_LED_HIGH_POWER_PIN); 
    3166:	8a e0       	ldi	r24, 0x0A	; 10
    3168:	90 e0       	ldi	r25, 0x00	; 0
    316a:	0e 94 5b 28 	call	0x50b6	; 0x50b6 <__eerd_byte_m32>
    316e:	80 34       	cpi	r24, 0x40	; 64
    3170:	59 f0       	breq	.+22     	; 0x3188 <check_eeprom+0xda>
    3172:	8a e0       	ldi	r24, 0x0A	; 10
    3174:	90 e0       	ldi	r25, 0x00	; 0
    3176:	0e 94 5b 28 	call	0x50b6	; 0x50b6 <__eerd_byte_m32>
    317a:	80 38       	cpi	r24, 0x80	; 128
    317c:	29 f0       	breq	.+10     	; 0x3188 <check_eeprom+0xda>
    317e:	8a e0       	ldi	r24, 0x0A	; 10
    3180:	90 e0       	ldi	r25, 0x00	; 0
    3182:	60 e4       	ldi	r22, 0x40	; 64
    3184:	0e 94 69 28 	call	0x50d2	; 0x50d2 <__eewr_byte_m32>
if (eeprom_read_byte(&friendly_fire_enable)>1) eeprom_write_byte(&friendly_fire_enable,1); 
    3188:	8a e2       	ldi	r24, 0x2A	; 42
    318a:	90 e0       	ldi	r25, 0x00	; 0
    318c:	0e 94 5b 28 	call	0x50b6	; 0x50b6 <__eerd_byte_m32>
    3190:	82 30       	cpi	r24, 0x02	; 2
    3192:	28 f0       	brcs	.+10     	; 0x319e <check_eeprom+0xf0>
    3194:	8a e2       	ldi	r24, 0x2A	; 42
    3196:	90 e0       	ldi	r25, 0x00	; 0
    3198:	61 e0       	ldi	r22, 0x01	; 1
    319a:	0e 94 69 28 	call	0x50d2	; 0x50d2 <__eewr_byte_m32>
    319e:	08 95       	ret

000031a0 <init_var>:




void init_var(void){            //Задаём значения переменным
check_eeprom();
    31a0:	0e 94 57 18 	call	0x30ae	; 0x30ae <check_eeprom>
last_simple = 0xFFFF; //иначе будет звук выстрела при сбросе
    31a4:	8f ef       	ldi	r24, 0xFF	; 255
    31a6:	9f ef       	ldi	r25, 0xFF	; 255
    31a8:	90 93 6f 03 	sts	0x036F, r25
    31ac:	80 93 6e 03 	sts	0x036E, r24
snd_adress.curr_adress = (uint8_t*)0xFFFF; //иначе бубдет попытка воспроизвести звук
    31b0:	90 93 08 03 	sts	0x0308, r25
    31b4:	80 93 07 03 	sts	0x0307, r24
ir_transmitter_on=false; 	//Запретим пока передачу данных (поскольку данные ещё не сформированны)
    31b8:	10 92 0a 03 	sts	0x030A, r1
set_player_id(eeprom_read_byte(&eeprom_player_id));	//Устанавливаем идентификатор игрока
    31bc:	81 e0       	ldi	r24, 0x01	; 1
    31be:	90 e0       	ldi	r25, 0x00	; 0
    31c0:	0e 94 5b 28 	call	0x50b6	; 0x50b6 <__eerd_byte_m32>
    31c4:	0e 94 fb 09 	call	0x13f6	; 0x13f6 <set_player_id>
set_team_color(team_id());	//Устанавливаем идентификатор (цвет) команды
    31c8:	0e 94 ed 12 	call	0x25da	; 0x25da <team_id>
    31cc:	0e 94 16 0a 	call	0x142c	; 0x142c <set_team_color>
set_gun_damage(gun_damage());		//Устанавливаем мощьность оружия (урон)
    31d0:	0e 94 e8 12 	call	0x25d0	; 0x25d0 <gun_damage>
    31d4:	0e 94 4b 0a 	call	0x1496	; 0x1496 <set_gun_damage>

clips=eeprom_read_byte(&eeprom_clips);//Устанавливаем количество обойм
    31d8:	84 e0       	ldi	r24, 0x04	; 4
    31da:	90 e0       	ldi	r25, 0x00	; 0
    31dc:	0e 94 5b 28 	call	0x50b6	; 0x50b6 <__eerd_byte_m32>
    31e0:	80 93 18 03 	sts	0x0318, r24
bullets=0; //eeprom_read_byte(&eeprom_bullets_in_clip);//Устанавливаем количество патронов
    31e4:	10 92 1f 03 	sts	0x031F, r1
    31e8:	10 92 1e 03 	sts	0x031E, r1
data_packet.packet.header = IR_START;		//Устанавливаем  заголовку (старт биту) необходимую длительность
    31ec:	e9 e4       	ldi	r30, 0x49	; 73
    31ee:	f3 e0       	ldi	r31, 0x03	; 3
    31f0:	8c e0       	ldi	r24, 0x0C	; 12
    31f2:	91 e0       	ldi	r25, 0x01	; 1
    31f4:	91 83       	std	Z+1, r25	; 0x01
    31f6:	80 83       	st	Z, r24
data_packet.packet.end_of_data = 0;		//0 - это указание передатчику, что данных для передачи больше нет
    31f8:	7e 96       	adiw	r30, 0x1e	; 30
    31fa:	11 82       	std	Z+1, r1	; 0x01
    31fc:	10 82       	st	Z, r1
cursor_position = 0; //Курсор - на начало блока данных
    31fe:	10 92 85 03 	sts	0x0385, r1
start_bit_received = false;//Старт бит ещё не принят
    3202:	10 92 15 03 	sts	0x0315, r1
bit_in_rx_buff = 0;//Буфер приемника пуст
    3206:	10 92 87 03 	sts	0x0387, r1
    320a:	10 92 86 03 	sts	0x0386, r1
rx_event = NOT_EVENT;//Сбрасываем события приемника
    320e:	10 92 1c 03 	sts	0x031C, r1
//reset_clock(); //обнуляем часы
life = 8;//здоровье -100% выводим на диоды
    3212:	88 e0       	ldi	r24, 0x08	; 8
    3214:	80 93 72 03 	sts	0x0372, r24
life_in_percent = 100;//эту выводим на дисплей
    3218:	84 e6       	ldi	r24, 0x64	; 100
    321a:	90 e0       	ldi	r25, 0x00	; 0
    321c:	90 93 6c 03 	sts	0x036C, r25
    3220:	80 93 6b 03 	sts	0x036B, r24
key_pressing_duration.key_1    =0;//обнуляем счетчики 
    3224:	a8 e3       	ldi	r26, 0x38	; 56
    3226:	b3 e0       	ldi	r27, 0x03	; 3
    3228:	fd 01       	movw	r30, r26
    322a:	11 82       	std	Z+1, r1	; 0x01
    322c:	10 82       	st	Z, r1
    322e:	32 96       	adiw	r30, 0x02	; 2
						  //длительности
						  //непрерывного нажатия кнопок
key_pressing_duration.key_1_inc=1;//разрешаем отсчет длительности
    3230:	80 81       	ld	r24, Z
    3232:	81 60       	ori	r24, 0x01	; 1
    3234:	80 83       	st	Z, r24
key_pressing_duration.key_2    =0;//обнуляем счетчики 
    3236:	fd 01       	movw	r30, r26
    3238:	33 96       	adiw	r30, 0x03	; 3
    323a:	11 82       	std	Z+1, r1	; 0x01
    323c:	10 82       	st	Z, r1
						  //длительности
						  //непрерывного нажатия кнопок
key_pressing_duration.key_2_inc=1;//разрешаем отсчет длительности
    323e:	15 96       	adiw	r26, 0x05	; 5
    3240:	8c 91       	ld	r24, X
    3242:	81 60       	ori	r24, 0x01	; 1
    3244:	8c 93       	st	X, r24
chit_detected_counter=0;
    3246:	10 92 11 03 	sts	0x0311, r1
    324a:	10 92 10 03 	sts	0x0310, r1
chit_detected = false;
    324e:	10 92 09 03 	sts	0x0309, r1
display_bullets_update_now = 0;
    3252:	10 92 69 03 	sts	0x0369, r1
display_batt_mode = icon;
    3256:	10 92 7f 03 	sts	0x037F, r1
curr_ir_pin = eeprom_read_byte(&eeprom_curr_ir_pin);//Устанавливаем мощность ИК излучения
    325a:	8a e0       	ldi	r24, 0x0A	; 10
    325c:	90 e0       	ldi	r25, 0x00	; 0
    325e:	0e 94 5b 28 	call	0x50b6	; 0x50b6 <__eerd_byte_m32>
    3262:	80 93 12 03 	sts	0x0312, r24
cr_received = false; //символ "\r" ещё не получен
    3266:	10 92 48 03 	sts	0x0348, r1
simples_in_queue =0;
    326a:	10 92 14 03 	sts	0x0314, r1
    326e:	10 92 13 03 	sts	0x0313, r1
//update_suond_buffer_now = 0;
eeprom_is_open = false;
    3272:	10 92 7e 03 	sts	0x037E, r1
receiver_on = false;
    3276:	10 92 1d 03 	sts	0x031D, r1
}
    327a:	08 95       	ret

0000327c <command_2_slot>:



}
void command_2_slot(void){
USART_FlushTxBuf();
    327c:	0e 94 45 27 	call	0x4e8a	; 0x4e8a <USART_FlushTxBuf>
USART_SendStrP(protocol);
    3280:	82 e7       	ldi	r24, 0x72	; 114
    3282:	94 e0       	ldi	r25, 0x04	; 4
    3284:	0e 94 64 27 	call	0x4ec8	; 0x4ec8 <USART_SendStrP>
USART_SendStr("OK\r\n");
    3288:	8d e9       	ldi	r24, 0x9D	; 157
    328a:	90 e0       	ldi	r25, 0x00	; 0
    328c:	0e 94 54 27 	call	0x4ea8	; 0x4ea8 <USART_SendStr>

}
    3290:	08 95       	ret

00003292 <command_6_slot>:



}

void command_6_slot(void){
    3292:	df 92       	push	r13
    3294:	ef 92       	push	r14
    3296:	ff 92       	push	r15
    3298:	0f 93       	push	r16
    329a:	1f 93       	push	r17
    329c:	df 93       	push	r29
    329e:	cf 93       	push	r28
    32a0:	00 d0       	rcall	.+0      	; 0x32a2 <command_6_slot+0x10>
    32a2:	0f 92       	push	r0
    32a4:	cd b7       	in	r28, 0x3d	; 61
    32a6:	de b7       	in	r29, 0x3e	; 62
bool param_not_empty = false;
volatile char ch_tmp;
volatile uint16_t result = 0;
    32a8:	1b 82       	std	Y+3, r1	; 0x03
    32aa:	1a 82       	std	Y+2, r1	; 0x02
    32ac:	20 e0       	ldi	r18, 0x00	; 0
while(usartRxBuf[rxBufHead] !='\r')
    32ae:	0f 2e       	mov	r0, r31
    32b0:	f9 e8       	ldi	r31, 0x89	; 137
    32b2:	ef 2e       	mov	r14, r31
    32b4:	f4 e0       	ldi	r31, 0x04	; 4
    32b6:	ff 2e       	mov	r15, r31
    32b8:	f0 2d       	mov	r31, r0

		ch_tmp = usartRxBuf[rxBufHead++];
		if (ch_tmp==' ') continue; //игнорируем пробелы
		if ((ch_tmp >= '0')&&(ch_tmp<= '9'))
		{
			result = result*10+char_to_int(ch_tmp);
    32ba:	dd 24       	eor	r13, r13
    32bc:	d3 94       	inc	r13
    32be:	2e c0       	rjmp	.+92     	; 0x331c <command_6_slot+0x8a>
volatile uint16_t result = 0;
while(usartRxBuf[rxBufHead] !='\r')

	{

		ch_tmp = usartRxBuf[rxBufHead++];
    32c0:	80 91 f4 02 	lds	r24, 0x02F4
    32c4:	f7 01       	movw	r30, r14
    32c6:	e8 0f       	add	r30, r24
    32c8:	f1 1d       	adc	r31, r1
    32ca:	90 81       	ld	r25, Z
    32cc:	99 83       	std	Y+1, r25	; 0x01
    32ce:	8f 5f       	subi	r24, 0xFF	; 255
    32d0:	80 93 f4 02 	sts	0x02F4, r24
		if (ch_tmp==' ') continue; //игнорируем пробелы
    32d4:	89 81       	ldd	r24, Y+1	; 0x01
    32d6:	80 32       	cpi	r24, 0x20	; 32
    32d8:	09 f1       	breq	.+66     	; 0x331c <command_6_slot+0x8a>
		if ((ch_tmp >= '0')&&(ch_tmp<= '9'))
    32da:	89 81       	ldd	r24, Y+1	; 0x01
    32dc:	80 33       	cpi	r24, 0x30	; 48
    32de:	c8 f0       	brcs	.+50     	; 0x3312 <command_6_slot+0x80>
    32e0:	89 81       	ldd	r24, Y+1	; 0x01
    32e2:	8a 33       	cpi	r24, 0x3A	; 58
    32e4:	b0 f4       	brcc	.+44     	; 0x3312 <command_6_slot+0x80>
		{
			result = result*10+char_to_int(ch_tmp);
    32e6:	0a 81       	ldd	r16, Y+2	; 0x02
    32e8:	1b 81       	ldd	r17, Y+3	; 0x03
    32ea:	89 81       	ldd	r24, Y+1	; 0x01
    32ec:	0e 94 ee 0e 	call	0x1ddc	; 0x1ddc <char_to_int>
    32f0:	98 01       	movw	r18, r16
    32f2:	22 0f       	add	r18, r18
    32f4:	33 1f       	adc	r19, r19
    32f6:	00 0f       	add	r16, r16
    32f8:	11 1f       	adc	r17, r17
    32fa:	00 0f       	add	r16, r16
    32fc:	11 1f       	adc	r17, r17
    32fe:	00 0f       	add	r16, r16
    3300:	11 1f       	adc	r17, r17
    3302:	20 0f       	add	r18, r16
    3304:	31 1f       	adc	r19, r17
    3306:	28 0f       	add	r18, r24
    3308:	31 1d       	adc	r19, r1
    330a:	3b 83       	std	Y+3, r19	; 0x03
    330c:	2a 83       	std	Y+2, r18	; 0x02
    330e:	2d 2d       	mov	r18, r13
    3310:	05 c0       	rjmp	.+10     	; 0x331c <command_6_slot+0x8a>
			param_not_empty = true;
		}		
		else 
		{
			USART_SendStr("ERROR\n\r");
    3312:	82 ea       	ldi	r24, 0xA2	; 162
    3314:	90 e0       	ldi	r25, 0x00	; 0
    3316:	0e 94 54 27 	call	0x4ea8	; 0x4ea8 <USART_SendStr>
    331a:	42 c0       	rjmp	.+132    	; 0x33a0 <command_6_slot+0x10e>

void command_6_slot(void){
bool param_not_empty = false;
volatile char ch_tmp;
volatile uint16_t result = 0;
while(usartRxBuf[rxBufHead] !='\r')
    331c:	80 91 f4 02 	lds	r24, 0x02F4
    3320:	f7 01       	movw	r30, r14
    3322:	e8 0f       	add	r30, r24
    3324:	f1 1d       	adc	r31, r1
    3326:	80 81       	ld	r24, Z
    3328:	8d 30       	cpi	r24, 0x0D	; 13
    332a:	51 f6       	brne	.-108    	; 0x32c0 <command_6_slot+0x2e>
			USART_SendStr("ERROR\n\r");
			return;
		}
	}

if (!param_not_empty) 
    332c:	22 23       	and	r18, r18
    332e:	29 f4       	brne	.+10     	; 0x333a <command_6_slot+0xa8>
{
	USART_SendStrP(parameter_empty_error);
    3330:	8f e0       	ldi	r24, 0x0F	; 15
    3332:	94 e0       	ldi	r25, 0x04	; 4
    3334:	0e 94 64 27 	call	0x4ec8	; 0x4ec8 <USART_SendStrP>
    3338:	33 c0       	rjmp	.+102    	; 0x33a0 <command_6_slot+0x10e>
	return;
}
if (result>512) 
    333a:	8a 81       	ldd	r24, Y+2	; 0x02
    333c:	9b 81       	ldd	r25, Y+3	; 0x03
    333e:	81 50       	subi	r24, 0x01	; 1
    3340:	92 40       	sbci	r25, 0x02	; 2
    3342:	28 f0       	brcs	.+10     	; 0x334e <command_6_slot+0xbc>
{
	USART_SendStrP(parameter_out_of_range_error);
    3344:	82 e3       	ldi	r24, 0x32	; 50
    3346:	94 e0       	ldi	r25, 0x04	; 4
    3348:	0e 94 64 27 	call	0x4ec8	; 0x4ec8 <USART_SendStrP>
    334c:	29 c0       	rjmp	.+82     	; 0x33a0 <command_6_slot+0x10e>
	return;
}
USART_FlushTxBuf();
    334e:	0e 94 45 27 	call	0x4e8a	; 0x4e8a <USART_FlushTxBuf>
	if (eeReadBytes(&usartTxBuf[0],result*128,128))
    3352:	6a 81       	ldd	r22, Y+2	; 0x02
    3354:	7b 81       	ldd	r23, Y+3	; 0x03
    3356:	76 95       	lsr	r23
    3358:	76 2f       	mov	r23, r22
    335a:	66 27       	eor	r22, r22
    335c:	77 95       	ror	r23
    335e:	67 95       	ror	r22
    3360:	89 e8       	ldi	r24, 0x89	; 137
    3362:	93 e0       	ldi	r25, 0x03	; 3
    3364:	40 e8       	ldi	r20, 0x80	; 128
    3366:	50 e0       	ldi	r21, 0x00	; 0
    3368:	0e 94 2b 08 	call	0x1056	; 0x1056 <eeReadBytes>
    336c:	88 23       	and	r24, r24
    336e:	a1 f0       	breq	.+40     	; 0x3398 <command_6_slot+0x106>
    3370:	00 e0       	ldi	r16, 0x00	; 0
    3372:	10 e0       	ldi	r17, 0x00	; 0
		{
	
			for (int i = 0; i<128; i++)
			{
				USART_PutChar(usartTxBuf[i]);
    3374:	0f 2e       	mov	r0, r31
    3376:	f9 e8       	ldi	r31, 0x89	; 137
    3378:	ef 2e       	mov	r14, r31
    337a:	f3 e0       	ldi	r31, 0x03	; 3
    337c:	ff 2e       	mov	r15, r31
    337e:	f0 2d       	mov	r31, r0
    3380:	f7 01       	movw	r30, r14
    3382:	e0 0f       	add	r30, r16
    3384:	f1 1f       	adc	r31, r17
    3386:	80 81       	ld	r24, Z
    3388:	0e 94 4c 27 	call	0x4e98	; 0x4e98 <USART_PutChar>
}
USART_FlushTxBuf();
	if (eeReadBytes(&usartTxBuf[0],result*128,128))
		{
	
			for (int i = 0; i<128; i++)
    338c:	0f 5f       	subi	r16, 0xFF	; 255
    338e:	1f 4f       	sbci	r17, 0xFF	; 255
    3390:	00 38       	cpi	r16, 0x80	; 128
    3392:	11 05       	cpc	r17, r1
    3394:	a9 f7       	brne	.-22     	; 0x3380 <command_6_slot+0xee>
    3396:	04 c0       	rjmp	.+8      	; 0x33a0 <command_6_slot+0x10e>

	
		}
	else
		{
				USART_SendStr("ERROR:eeprom read error\r\n");
    3398:	83 e9       	ldi	r24, 0x93	; 147
    339a:	91 e0       	ldi	r25, 0x01	; 1
    339c:	0e 94 54 27 	call	0x4ea8	; 0x4ea8 <USART_SendStr>
		}

}
    33a0:	0f 90       	pop	r0
    33a2:	0f 90       	pop	r0
    33a4:	0f 90       	pop	r0
    33a6:	cf 91       	pop	r28
    33a8:	df 91       	pop	r29
    33aa:	1f 91       	pop	r17
    33ac:	0f 91       	pop	r16
    33ae:	ff 90       	pop	r15
    33b0:	ef 90       	pop	r14
    33b2:	df 90       	pop	r13
    33b4:	08 95       	ret

000033b6 <get_command_index>:




uint8_t get_command_index(void)//проверим, что за команда пришла по UART
{
    33b6:	4f 92       	push	r4
    33b8:	5f 92       	push	r5
    33ba:	6f 92       	push	r6
    33bc:	7f 92       	push	r7
    33be:	8f 92       	push	r8
    33c0:	9f 92       	push	r9
    33c2:	af 92       	push	r10
    33c4:	bf 92       	push	r11
    33c6:	cf 92       	push	r12
    33c8:	df 92       	push	r13
    33ca:	ef 92       	push	r14
    33cc:	ff 92       	push	r15
    33ce:	0f 93       	push	r16
    33d0:	1f 93       	push	r17
    33d2:	df 93       	push	r29
    33d4:	cf 93       	push	r28
    33d6:	cd b7       	in	r28, 0x3d	; 61
    33d8:	de b7       	in	r29, 0x3e	; 62
    33da:	a2 97       	sbiw	r28, 0x22	; 34
    33dc:	0f b6       	in	r0, 0x3f	; 63
    33de:	f8 94       	cli
    33e0:	de bf       	out	0x3e, r29	; 62
    33e2:	0f be       	out	0x3f, r0	; 63
    33e4:	cd bf       	out	0x3d, r28	; 61
    33e6:	ee 24       	eor	r14, r14
    33e8:	ff 24       	eor	r15, r15
    33ea:	20 e0       	ldi	r18, 0x00	; 0
    33ec:	30 e0       	ldi	r19, 0x00	; 0
		unsigned char sym;
		uint8_t sym_index = 0;
		char* psym; //указатель на первый символ команды в памяти программ
//		char* pos;
//		char* pos_buff;
		psym = (char*)(pgm_read_word(&(commandsPointers[index])));
    33ee:	0f 2e       	mov	r0, r31
    33f0:	f1 e9       	ldi	r31, 0x91	; 145
    33f2:	4f 2e       	mov	r4, r31
    33f4:	f3 e0       	ldi	r31, 0x03	; 3
    33f6:	5f 2e       	mov	r5, r31
    33f8:	f0 2d       	mov	r31, r0
		comand_len = 0;
		while((pgm_read_byte(psym)!=0))
    33fa:	00 e0       	ldi	r16, 0x00	; 0
		{
			sym = pgm_read_byte(psym);
			cmd_buff[sym_index++] = sym; //копируем команду в буфер
    33fc:	0f 2e       	mov	r0, r31
    33fe:	f3 e0       	ldi	r31, 0x03	; 3
    3400:	cf 2e       	mov	r12, r31
    3402:	dd 24       	eor	r13, r13
    3404:	f0 2d       	mov	r31, r0
    3406:	cc 0e       	add	r12, r28
    3408:	dd 1e       	adc	r13, r29
    340a:	c6 01       	movw	r24, r12
    340c:	7c 2c       	mov	r7, r12
    340e:	69 2e       	mov	r6, r25
			comand_len++;
			psym++;
		}
		
		cursor_pos = memmem(&(usartRxBuf[rxBufHead]),rxCount,cmd_buff,comand_len);
    3410:	0f 2e       	mov	r0, r31
    3412:	f9 e8       	ldi	r31, 0x89	; 137
    3414:	8f 2e       	mov	r8, r31
    3416:	f4 e0       	ldi	r31, 0x04	; 4
    3418:	9f 2e       	mov	r9, r31
    341a:	f0 2d       	mov	r31, r0
		unsigned char sym;
		uint8_t sym_index = 0;
		char* psym; //указатель на первый символ команды в памяти программ
//		char* pos;
//		char* pos_buff;
		psym = (char*)(pgm_read_word(&(commandsPointers[index])));
    341c:	c9 01       	movw	r24, r18
    341e:	88 0f       	add	r24, r24
    3420:	99 1f       	adc	r25, r25
    3422:	f2 01       	movw	r30, r4
    3424:	e8 0f       	add	r30, r24
    3426:	f9 1f       	adc	r31, r25
    3428:	25 91       	lpm	r18, Z+
    342a:	34 91       	lpm	r19, Z+
		comand_len = 0;
		while((pgm_read_byte(psym)!=0))
    342c:	a9 01       	movw	r20, r18
    342e:	f9 01       	movw	r30, r18
    3430:	84 91       	lpm	r24, Z+
    3432:	88 23       	and	r24, r24
    3434:	11 f4       	brne	.+4      	; 0x343a <get_command_index+0x84>
    3436:	10 2f       	mov	r17, r16
    3438:	0f c0       	rjmp	.+30     	; 0x3458 <get_command_index+0xa2>
    343a:	10 2f       	mov	r17, r16
		{
			sym = pgm_read_byte(psym);
    343c:	fa 01       	movw	r30, r20
    343e:	84 91       	lpm	r24, Z+
			cmd_buff[sym_index++] = sym; //копируем команду в буфер
    3440:	f6 01       	movw	r30, r12
    3442:	e1 0f       	add	r30, r17
    3444:	f1 1d       	adc	r31, r1
    3446:	80 83       	st	Z, r24
			comand_len++;
    3448:	1f 5f       	subi	r17, 0xFF	; 255
			psym++;
    344a:	2f 5f       	subi	r18, 0xFF	; 255
    344c:	3f 4f       	sbci	r19, 0xFF	; 255
    344e:	a9 01       	movw	r20, r18
		char* psym; //указатель на первый символ команды в памяти программ
//		char* pos;
//		char* pos_buff;
		psym = (char*)(pgm_read_word(&(commandsPointers[index])));
		comand_len = 0;
		while((pgm_read_byte(psym)!=0))
    3450:	f9 01       	movw	r30, r18
    3452:	84 91       	lpm	r24, Z+
    3454:	88 23       	and	r24, r24
    3456:	91 f7       	brne	.-28     	; 0x343c <get_command_index+0x86>
			cmd_buff[sym_index++] = sym; //копируем команду в буфер
			comand_len++;
			psym++;
		}
		
		cursor_pos = memmem(&(usartRxBuf[rxBufHead]),rxCount,cmd_buff,comand_len);
    3458:	80 91 f4 02 	lds	r24, 0x02F4
    345c:	60 91 f5 02 	lds	r22, 0x02F5
    3460:	94 01       	movw	r18, r8
    3462:	28 0f       	add	r18, r24
    3464:	31 1d       	adc	r19, r1
    3466:	c9 01       	movw	r24, r18
    3468:	70 2f       	mov	r23, r16
    346a:	47 2d       	mov	r20, r7
    346c:	56 2d       	mov	r21, r6
    346e:	21 2f       	mov	r18, r17
    3470:	30 2f       	mov	r19, r16
    3472:	0e 94 35 28 	call	0x506a	; 0x506a <memmem>
    3476:	5c 01       	movw	r10, r24
		buff_pos = &usartRxBuf[0];
		if (memmem(&(usartRxBuf[rxBufHead]),rxCount,cmd_buff,comand_len)!=NULL) 
    3478:	80 91 f4 02 	lds	r24, 0x02F4
    347c:	60 91 f5 02 	lds	r22, 0x02F5
    3480:	f4 01       	movw	r30, r8
    3482:	e8 0f       	add	r30, r24
    3484:	f1 1d       	adc	r31, r1
    3486:	cf 01       	movw	r24, r30
    3488:	70 2f       	mov	r23, r16
    348a:	47 2d       	mov	r20, r7
    348c:	56 2d       	mov	r21, r6
    348e:	21 2f       	mov	r18, r17
    3490:	30 2f       	mov	r19, r16
    3492:	0e 94 35 28 	call	0x506a	; 0x506a <memmem>
    3496:	89 2b       	or	r24, r25
    3498:	b9 f0       	breq	.+46     	; 0x34c8 <get_command_index+0x112>
		{
			delta = (uint16_t)(cursor_pos) - (uint16_t)(buff_pos);
    349a:	c5 01       	movw	r24, r10
    349c:	89 58       	subi	r24, 0x89	; 137
    349e:	94 40       	sbci	r25, 0x04	; 4
    34a0:	9a 83       	std	Y+2, r25	; 0x02
    34a2:	89 83       	std	Y+1, r24	; 0x01
			
			rxBufHead = rxBufHead+comand_len+(unsigned char)(delta);
    34a4:	20 91 f4 02 	lds	r18, 0x02F4
    34a8:	89 81       	ldd	r24, Y+1	; 0x01
    34aa:	9a 81       	ldd	r25, Y+2	; 0x02
    34ac:	28 0f       	add	r18, r24
    34ae:	21 0f       	add	r18, r17
    34b0:	20 93 f4 02 	sts	0x02F4, r18
			rxCount = rxCount-comand_len-(unsigned char)(delta);
    34b4:	80 91 f5 02 	lds	r24, 0x02F5
    34b8:	29 81       	ldd	r18, Y+1	; 0x01
    34ba:	3a 81       	ldd	r19, Y+2	; 0x02
    34bc:	81 1b       	sub	r24, r17
    34be:	82 1b       	sub	r24, r18
    34c0:	80 93 f5 02 	sts	0x02F5, r24
//			cursor_pos+=comand_len;
			return index;	
    34c4:	8e 2d       	mov	r24, r14
    34c6:	0a c0       	rjmp	.+20     	; 0x34dc <get_command_index+0x126>
uint8_t comand_len;
//char test_str[]="Also firmware";

	

	for (int index=0; index <(sizeof(commandsPointers)/sizeof(char*)); index++)
    34c8:	08 94       	sec
    34ca:	e1 1c       	adc	r14, r1
    34cc:	f1 1c       	adc	r15, r1
    34ce:	97 01       	movw	r18, r14
    34d0:	ff e2       	ldi	r31, 0x2F	; 47
    34d2:	ef 16       	cp	r14, r31
    34d4:	f1 04       	cpc	r15, r1
    34d6:	09 f0       	breq	.+2      	; 0x34da <get_command_index+0x124>
    34d8:	a1 cf       	rjmp	.-190    	; 0x341c <get_command_index+0x66>
    34da:	8f ef       	ldi	r24, 0xFF	; 255

	
	}

	return 255; //не найдена такая команда в списке команд
}
    34dc:	a2 96       	adiw	r28, 0x22	; 34
    34de:	0f b6       	in	r0, 0x3f	; 63
    34e0:	f8 94       	cli
    34e2:	de bf       	out	0x3e, r29	; 62
    34e4:	0f be       	out	0x3f, r0	; 63
    34e6:	cd bf       	out	0x3d, r28	; 61
    34e8:	cf 91       	pop	r28
    34ea:	df 91       	pop	r29
    34ec:	1f 91       	pop	r17
    34ee:	0f 91       	pop	r16
    34f0:	ff 90       	pop	r15
    34f2:	ef 90       	pop	r14
    34f4:	df 90       	pop	r13
    34f6:	cf 90       	pop	r12
    34f8:	bf 90       	pop	r11
    34fa:	af 90       	pop	r10
    34fc:	9f 90       	pop	r9
    34fe:	8f 90       	pop	r8
    3500:	7f 90       	pop	r7
    3502:	6f 90       	pop	r6
    3504:	5f 90       	pop	r5
    3506:	4f 90       	pop	r4
    3508:	08 95       	ret

0000350a <parsing_command>:


void parsing_command(void)
{
uint8_t cmd_index;
					DisableRxInt();
    350a:	ea e2       	ldi	r30, 0x2A	; 42
    350c:	f0 e0       	ldi	r31, 0x00	; 0
    350e:	80 81       	ld	r24, Z
    3510:	8f 77       	andi	r24, 0x7F	; 127
    3512:	80 83       	st	Z, r24
					cmd_index = get_command_index();
    3514:	0e 94 db 19 	call	0x33b6	; 0x33b6 <get_command_index>
					switch(cmd_index)
    3518:	e8 2f       	mov	r30, r24
    351a:	f0 e0       	ldi	r31, 0x00	; 0
    351c:	ef 32       	cpi	r30, 0x2F	; 47
    351e:	f1 05       	cpc	r31, r1
    3520:	08 f0       	brcs	.+2      	; 0x3524 <parsing_command+0x1a>
    3522:	95 c0       	rjmp	.+298    	; 0x364e <parsing_command+0x144>
    3524:	e6 5d       	subi	r30, 0xD6	; 214
    3526:	ff 4f       	sbci	r31, 0xFF	; 255
    3528:	ee 0f       	add	r30, r30
    352a:	ff 1f       	adc	r31, r31
    352c:	05 90       	lpm	r0, Z+
    352e:	f4 91       	lpm	r31, Z+
    3530:	e0 2d       	mov	r30, r0
    3532:	09 94       	ijmp
					{
						case 0: command_0_slot();
    3534:	0e 94 8a 14 	call	0x2914	; 0x2914 <command_0_slot>
    3538:	8e c0       	rjmp	.+284    	; 0x3656 <parsing_command+0x14c>
						break;
						case 1: command_1_slot();
    353a:	0e 94 da 12 	call	0x25b4	; 0x25b4 <command_1_slot>
    353e:	8b c0       	rjmp	.+278    	; 0x3656 <parsing_command+0x14c>
						break;
						case 2: command_2_slot();
    3540:	0e 94 3e 19 	call	0x327c	; 0x327c <command_2_slot>
    3544:	88 c0       	rjmp	.+272    	; 0x3656 <parsing_command+0x14c>
						break;
						case 3: command_3_slot();
    3546:	0e 94 99 13 	call	0x2732	; 0x2732 <command_3_slot>
    354a:	85 c0       	rjmp	.+266    	; 0x3656 <parsing_command+0x14c>
						break;
						case 4: command_4_slot();
    354c:	0e 94 cc 12 	call	0x2598	; 0x2598 <command_4_slot>
    3550:	82 c0       	rjmp	.+260    	; 0x3656 <parsing_command+0x14c>
						break;
						case 5: command_5_slot();
    3552:	0e 94 df 11 	call	0x23be	; 0x23be <command_5_slot>
    3556:	7f c0       	rjmp	.+254    	; 0x3656 <parsing_command+0x14c>
						break;
						case 6: command_6_slot();
    3558:	0e 94 49 19 	call	0x3292	; 0x3292 <command_6_slot>
    355c:	7c c0       	rjmp	.+248    	; 0x3656 <parsing_command+0x14c>
						break;
						case 7: command_7_slot();
    355e:	0e 94 ba 17 	call	0x2f74	; 0x2f74 <command_7_slot>
    3562:	79 c0       	rjmp	.+242    	; 0x3656 <parsing_command+0x14c>
						break;
						case 8: command_8_slot();
    3564:	0e 94 da 11 	call	0x23b4	; 0x23b4 <command_8_slot>
    3568:	76 c0       	rjmp	.+236    	; 0x3656 <parsing_command+0x14c>
						break;
						case 9: command_9_slot();
    356a:	0e 94 b5 17 	call	0x2f6a	; 0x2f6a <command_9_slot>
    356e:	73 c0       	rjmp	.+230    	; 0x3656 <parsing_command+0x14c>
						break;
						case 10: command_10_slot();
    3570:	0e 94 d5 11 	call	0x23aa	; 0x23aa <command_10_slot>
    3574:	70 c0       	rjmp	.+224    	; 0x3656 <parsing_command+0x14c>
						break;
						case 11: command_11_slot();
    3576:	0e 94 b0 17 	call	0x2f60	; 0x2f60 <command_11_slot>
    357a:	6d c0       	rjmp	.+218    	; 0x3656 <parsing_command+0x14c>
						break;
						case 12: command_12_slot();
    357c:	0e 94 d0 11 	call	0x23a0	; 0x23a0 <command_12_slot>
    3580:	6a c0       	rjmp	.+212    	; 0x3656 <parsing_command+0x14c>
						break;
						case 13: command_13_slot();
    3582:	0e 94 ab 17 	call	0x2f56	; 0x2f56 <command_13_slot>
    3586:	67 c0       	rjmp	.+206    	; 0x3656 <parsing_command+0x14c>
						break;
						case 14: command_14_slot();
    3588:	0e 94 cb 11 	call	0x2396	; 0x2396 <command_14_slot>
    358c:	64 c0       	rjmp	.+200    	; 0x3656 <parsing_command+0x14c>
						break;
						case 15: command_15_slot();
    358e:	0e 94 a6 17 	call	0x2f4c	; 0x2f4c <command_15_slot>
    3592:	61 c0       	rjmp	.+194    	; 0x3656 <parsing_command+0x14c>
						break;
						case 16: command_16_slot();
    3594:	0e 94 c6 11 	call	0x238c	; 0x238c <command_16_slot>
    3598:	5e c0       	rjmp	.+188    	; 0x3656 <parsing_command+0x14c>
						break;
						case 17: command_17_slot();
    359a:	0e 94 a1 17 	call	0x2f42	; 0x2f42 <command_17_slot>
    359e:	5b c0       	rjmp	.+182    	; 0x3656 <parsing_command+0x14c>
						break;
						case 18: command_18_slot();
    35a0:	0e 94 c1 11 	call	0x2382	; 0x2382 <command_18_slot>
    35a4:	58 c0       	rjmp	.+176    	; 0x3656 <parsing_command+0x14c>
						break;
						case 19: command_19_slot();
    35a6:	0e 94 9c 17 	call	0x2f38	; 0x2f38 <command_19_slot>
    35aa:	55 c0       	rjmp	.+170    	; 0x3656 <parsing_command+0x14c>
						break;
						case 20: command_20_slot();
    35ac:	0e 94 bc 11 	call	0x2378	; 0x2378 <command_20_slot>
    35b0:	52 c0       	rjmp	.+164    	; 0x3656 <parsing_command+0x14c>
						break;
						case 21: command_21_slot();
    35b2:	0e 94 97 17 	call	0x2f2e	; 0x2f2e <command_21_slot>
    35b6:	4f c0       	rjmp	.+158    	; 0x3656 <parsing_command+0x14c>
						break;
						case 22: command_22_slot();
    35b8:	0e 94 b7 11 	call	0x236e	; 0x236e <command_22_slot>
    35bc:	4c c0       	rjmp	.+152    	; 0x3656 <parsing_command+0x14c>
						break;
						case 23: command_23_slot();
    35be:	0e 94 92 17 	call	0x2f24	; 0x2f24 <command_23_slot>
    35c2:	49 c0       	rjmp	.+146    	; 0x3656 <parsing_command+0x14c>
						break;
						case 24: command_24_slot();
    35c4:	0e 94 b2 11 	call	0x2364	; 0x2364 <command_24_slot>
    35c8:	46 c0       	rjmp	.+140    	; 0x3656 <parsing_command+0x14c>
						break;
						case 25: command_25_slot();
    35ca:	0e 94 8d 17 	call	0x2f1a	; 0x2f1a <command_25_slot>
    35ce:	43 c0       	rjmp	.+134    	; 0x3656 <parsing_command+0x14c>
						break;
						case 26: command_26_slot();
    35d0:	0e 94 ad 11 	call	0x235a	; 0x235a <command_26_slot>
    35d4:	40 c0       	rjmp	.+128    	; 0x3656 <parsing_command+0x14c>
						break;
						case 27: command_27_slot();
    35d6:	0e 94 88 17 	call	0x2f10	; 0x2f10 <command_27_slot>
    35da:	3d c0       	rjmp	.+122    	; 0x3656 <parsing_command+0x14c>
						break;
						case 28: command_28_slot();
    35dc:	0e 94 a8 11 	call	0x2350	; 0x2350 <command_28_slot>
    35e0:	3a c0       	rjmp	.+116    	; 0x3656 <parsing_command+0x14c>
						break;
						case 29: command_29_slot();
    35e2:	0e 94 83 17 	call	0x2f06	; 0x2f06 <command_29_slot>
    35e6:	37 c0       	rjmp	.+110    	; 0x3656 <parsing_command+0x14c>
						break;
						case 30: command_30_slot();
    35e8:	0e 94 a3 11 	call	0x2346	; 0x2346 <command_30_slot>
    35ec:	34 c0       	rjmp	.+104    	; 0x3656 <parsing_command+0x14c>
						break;
						case 31: command_31_slot();
    35ee:	0e 94 0f 11 	call	0x221e	; 0x221e <command_31_slot>
    35f2:	31 c0       	rjmp	.+98     	; 0x3656 <parsing_command+0x14c>
						break;		
						case 32: command_32_slot();
    35f4:	0e 94 08 11 	call	0x2210	; 0x2210 <command_32_slot>
    35f8:	2e c0       	rjmp	.+92     	; 0x3656 <parsing_command+0x14c>
						break;		
						case 33: command_33_slot();
    35fa:	0e 94 83 14 	call	0x2906	; 0x2906 <command_33_slot>
    35fe:	2b c0       	rjmp	.+86     	; 0x3656 <parsing_command+0x14c>
						break;
						case 34: command_34_slot();
    3600:	0e 94 be 12 	call	0x257c	; 0x257c <command_34_slot>
    3604:	28 c0       	rjmp	.+80     	; 0x3656 <parsing_command+0x14c>
						break;
						case 35: command_35_slot();
    3606:	0e 94 7c 14 	call	0x28f8	; 0x28f8 <command_35_slot>
    360a:	25 c0       	rjmp	.+74     	; 0x3656 <parsing_command+0x14c>
						break;
						case 36: command_36_slot();
    360c:	0e 94 b0 12 	call	0x2560	; 0x2560 <command_36_slot>
    3610:	22 c0       	rjmp	.+68     	; 0x3656 <parsing_command+0x14c>
						break;
						case 37: command_37_slot();
    3612:	0e 94 24 13 	call	0x2648	; 0x2648 <command_37_slot>
    3616:	1f c0       	rjmp	.+62     	; 0x3656 <parsing_command+0x14c>
						break;
						case 38: command_38_slot();
    3618:	0e 94 9a 12 	call	0x2534	; 0x2534 <command_38_slot>
    361c:	1c c0       	rjmp	.+56     	; 0x3656 <parsing_command+0x14c>
						break;
						case 39: command_39_slot();
    361e:	0e 94 75 14 	call	0x28ea	; 0x28ea <command_39_slot>
    3622:	19 c0       	rjmp	.+50     	; 0x3656 <parsing_command+0x14c>
						break;
						case 40: command_40_slot();
    3624:	0e 94 8c 12 	call	0x2518	; 0x2518 <command_40_slot>
    3628:	16 c0       	rjmp	.+44     	; 0x3656 <parsing_command+0x14c>
						break;
						case 41: command_41_slot();
    362a:	0e 94 6e 14 	call	0x28dc	; 0x28dc <command_41_slot>
    362e:	13 c0       	rjmp	.+38     	; 0x3656 <parsing_command+0x14c>
						break;
						case 42: command_42_slot();
    3630:	0e 94 7e 12 	call	0x24fc	; 0x24fc <command_42_slot>
    3634:	10 c0       	rjmp	.+32     	; 0x3656 <parsing_command+0x14c>
						break;
						case 43: command_43_slot();
    3636:	0e 94 4e 18 	call	0x309c	; 0x309c <command_43_slot>
    363a:	0d c0       	rjmp	.+26     	; 0x3656 <parsing_command+0x14c>
						break;
						case 44: command_44_slot();
    363c:	0e 94 fa 10 	call	0x21f4	; 0x21f4 <command_44_slot>
    3640:	0a c0       	rjmp	.+20     	; 0x3656 <parsing_command+0x14c>
						break;	
						case 45: command_45_slot();
    3642:	0e 94 45 18 	call	0x308a	; 0x308a <command_45_slot>
    3646:	07 c0       	rjmp	.+14     	; 0x3656 <parsing_command+0x14c>
						break;
						case 46: command_46_slot();
    3648:	0e 94 ec 10 	call	0x21d8	; 0x21d8 <command_46_slot>
    364c:	04 c0       	rjmp	.+8      	; 0x3656 <parsing_command+0x14c>
						
						
														
						default:
						{
							USART_SendStrP(unknown_command_error);
    364e:	8f ee       	ldi	r24, 0xEF	; 239
    3650:	93 e0       	ldi	r25, 0x03	; 3
    3652:	0e 94 64 27 	call	0x4ec8	; 0x4ec8 <USART_SendStrP>
						}

					}
				
					cr_received = false;
    3656:	10 92 48 03 	sts	0x0348, r1
					USART_FlushRxBuf();
    365a:	0e 94 a1 27 	call	0x4f42	; 0x4f42 <USART_FlushRxBuf>


}
    365e:	08 95       	ret

00003660 <invite>:
}




void invite(){ //приглашение  в меню настроек
    3660:	2f 92       	push	r2
    3662:	3f 92       	push	r3
    3664:	4f 92       	push	r4
    3666:	5f 92       	push	r5
    3668:	6f 92       	push	r6
    366a:	7f 92       	push	r7
    366c:	8f 92       	push	r8
    366e:	9f 92       	push	r9
    3670:	af 92       	push	r10
    3672:	bf 92       	push	r11
    3674:	cf 92       	push	r12
    3676:	df 92       	push	r13
    3678:	ef 92       	push	r14
    367a:	ff 92       	push	r15
    367c:	0f 93       	push	r16
    367e:	1f 93       	push	r17
    3680:	df 93       	push	r29
    3682:	cf 93       	push	r28
    3684:	00 d0       	rcall	.+0      	; 0x3686 <invite+0x26>
    3686:	cd b7       	in	r28, 0x3d	; 61
    3688:	de b7       	in	r29, 0x3e	; 62

volatile uint8_t countdown = 5; //счётчик обратного отсчёта
    368a:	85 e0       	ldi	r24, 0x05	; 5
    368c:	89 83       	std	Y+1, r24	; 0x01

lcd_clrscr();
    368e:	0e 94 a0 04 	call	0x940	; 0x940 <lcd_clrscr>
lcd_home();
    3692:	0e 94 02 05 	call	0xa04	; 0xa04 <lcd_home>
if ((eeprom_read_byte(&eeprom_tm_serial_num.device_code)==0)||(eeprom_read_byte(&eeprom_tm_serial_num.device_code)==0xFF))
    3696:	8b e0       	ldi	r24, 0x0B	; 11
    3698:	90 e0       	ldi	r25, 0x00	; 0
    369a:	0e 94 5b 28 	call	0x50b6	; 0x50b6 <__eerd_byte_m32>
    369e:	88 23       	and	r24, r24
    36a0:	39 f0       	breq	.+14     	; 0x36b0 <invite+0x50>
    36a2:	8b e0       	ldi	r24, 0x0B	; 11
    36a4:	90 e0       	ldi	r25, 0x00	; 0
    36a6:	0e 94 5b 28 	call	0x50b6	; 0x50b6 <__eerd_byte_m32>
    36aa:	8f 3f       	cpi	r24, 0xFF	; 255
    36ac:	09 f0       	breq	.+2      	; 0x36b0 <invite+0x50>
    36ae:	0d c1       	rjmp	.+538    	; 0x38ca <invite+0x26a>
	/* если ключ ещё не записан*/
	{//[if]
		joystick_event = no_pressing;
    36b0:	10 92 0b 03 	sts	0x030B, r1
		lcd_puts("Запись ключа ТМ");
    36b4:	8d ea       	ldi	r24, 0xAD	; 173
    36b6:	91 e0       	ldi	r25, 0x01	; 1
    36b8:	0e 94 df 04 	call	0x9be	; 0x9be <lcd_puts>
		lcd_gotoxy(0, 1);
    36bc:	80 e0       	ldi	r24, 0x00	; 0
    36be:	61 e0       	ldi	r22, 0x01	; 1
    36c0:	0e 94 ef 04 	call	0x9de	; 0x9de <lcd_gotoxy>
		lcd_puts("Центр.кн.-отмена");
    36c4:	8d eb       	ldi	r24, 0xBD	; 189
    36c6:	91 e0       	ldi	r25, 0x01	; 1
    36c8:	0e 94 df 04 	call	0x9be	; 0x9be <lcd_puts>
		//timer1 = 0;
		while ((joystick_event!=key_central_pressing)&&(eeprom_read_byte(&eeprom_tm_serial_num.device_code)==0)||(eeprom_read_byte(&eeprom_tm_serial_num.device_code)==0xFF)) //пока не нажата центральная кнопка или не записан ключ
    36cc:	0f 2e       	mov	r0, r31
    36ce:	fb e0       	ldi	r31, 0x0B	; 11
    36d0:	ef 2e       	mov	r14, r31
    36d2:	f0 e0       	ldi	r31, 0x00	; 0
    36d4:	ff 2e       	mov	r15, r31
    36d6:	f0 2d       	mov	r31, r0

					case tm_crc_ok: 
					{
					
						
						eeprom_write_byte(&eeprom_tm_serial_num.device_code,device_code);
    36d8:	cc 24       	eor	r12, r12
    36da:	dd 24       	eor	r13, r13
						for (int i = 0; i<6; i++ )
						{
							eeprom_write_byte(&eeprom_tm_serial_num.serial[i],tm_code[i]);
    36dc:	0f 2e       	mov	r0, r31
    36de:	f7 ef       	ldi	r31, 0xF7	; 247
    36e0:	af 2e       	mov	r10, r31
    36e2:	f2 e0       	ldi	r31, 0x02	; 2
    36e4:	bf 2e       	mov	r11, r31
    36e6:	f0 2d       	mov	r31, r0
						}
						lcd_clrscr();
						lcd_home();
						lcd_puts("Ключ ТМ записан!");
    36e8:	0f 2e       	mov	r0, r31
    36ea:	f9 ed       	ldi	r31, 0xD9	; 217
    36ec:	6f 2e       	mov	r6, r31
    36ee:	f1 e0       	ldi	r31, 0x01	; 1
    36f0:	7f 2e       	mov	r7, r31
    36f2:	f0 2d       	mov	r31, r0
					
					case tm_crc_error: 
					{
						lcd_clrscr();
						lcd_home();
						lcd_puts("Ошибка CRC");
    36f4:	0f 2e       	mov	r0, r31
    36f6:	fe ec       	ldi	r31, 0xCE	; 206
    36f8:	4f 2e       	mov	r4, r31
    36fa:	f1 e0       	ldi	r31, 0x01	; 1
    36fc:	5f 2e       	mov	r5, r31
    36fe:	f0 2d       	mov	r31, r0
						timer2 = 0;
						while (timer2 < 6000){};
						lcd_clrscr();
						lcd_home();
						lcd_puts("Запись ключа ТМ");
    3700:	0f 2e       	mov	r0, r31
    3702:	fd ea       	ldi	r31, 0xAD	; 173
    3704:	2f 2e       	mov	r2, r31
    3706:	f1 e0       	ldi	r31, 0x01	; 1
    3708:	3f 2e       	mov	r3, r31
    370a:	f0 2d       	mov	r31, r0
						lcd_gotoxy(0, 1);
						lcd_puts("Центр.кн.-отмена");
    370c:	0f 2e       	mov	r0, r31
    370e:	fd eb       	ldi	r31, 0xBD	; 189
    3710:	8f 2e       	mov	r8, r31
    3712:	f1 e0       	ldi	r31, 0x01	; 1
    3714:	9f 2e       	mov	r9, r31
    3716:	f0 2d       	mov	r31, r0
    3718:	70 c0       	rjmp	.+224    	; 0x37fa <invite+0x19a>
		lcd_puts("Центр.кн.-отмена");
		//timer1 = 0;
		while ((joystick_event!=key_central_pressing)&&(eeprom_read_byte(&eeprom_tm_serial_num.device_code)==0)||(eeprom_read_byte(&eeprom_tm_serial_num.device_code)==0xFF)) //пока не нажата центральная кнопка или не записан ключ
		{//[while]
				
				while ((cr_received==false)&&(joystick_event==no_pressing)&&(tm_event == no_tm_event)){};
    371a:	80 91 48 03 	lds	r24, 0x0348
    371e:	88 23       	and	r24, r24
    3720:	41 f4       	brne	.+16     	; 0x3732 <invite+0xd2>
    3722:	80 91 0b 03 	lds	r24, 0x030B
    3726:	88 23       	and	r24, r24
    3728:	21 f4       	brne	.+8      	; 0x3732 <invite+0xd2>
    372a:	80 91 ff 02 	lds	r24, 0x02FF
    372e:	88 23       	and	r24, r24
    3730:	a1 f3       	breq	.-24     	; 0x371a <invite+0xba>
				if (cr_received)
    3732:	80 91 48 03 	lds	r24, 0x0348
    3736:	88 23       	and	r24, r24
    3738:	11 f0       	breq	.+4      	; 0x373e <invite+0xde>
				{	
					parsing_command();
    373a:	0e 94 85 1a 	call	0x350a	; 0x350a <parsing_command>
					

				}	
				switch(tm_event)
    373e:	80 91 ff 02 	lds	r24, 0x02FF
    3742:	81 30       	cpi	r24, 0x01	; 1
    3744:	31 f1       	breq	.+76     	; 0x3792 <invite+0x132>
    3746:	82 30       	cpi	r24, 0x02	; 2
    3748:	09 f0       	breq	.+2      	; 0x374c <invite+0xec>
    374a:	4d c0       	rjmp	.+154    	; 0x37e6 <invite+0x186>
					}
					break;
					
					case tm_crc_error: 
					{
						lcd_clrscr();
    374c:	0e 94 a0 04 	call	0x940	; 0x940 <lcd_clrscr>
						lcd_home();
    3750:	0e 94 02 05 	call	0xa04	; 0xa04 <lcd_home>
						lcd_puts("Ошибка CRC");
    3754:	c2 01       	movw	r24, r4
    3756:	0e 94 df 04 	call	0x9be	; 0x9be <lcd_puts>
						timer2 = 0;
    375a:	d0 92 17 03 	sts	0x0317, r13
    375e:	c0 92 16 03 	sts	0x0316, r12
						while (timer2 < 6000){};
    3762:	80 91 16 03 	lds	r24, 0x0316
    3766:	90 91 17 03 	lds	r25, 0x0317
    376a:	80 57       	subi	r24, 0x70	; 112
    376c:	97 41       	sbci	r25, 0x17	; 23
    376e:	c8 f3       	brcs	.-14     	; 0x3762 <invite+0x102>
						lcd_clrscr();
    3770:	0e 94 a0 04 	call	0x940	; 0x940 <lcd_clrscr>
						lcd_home();
    3774:	0e 94 02 05 	call	0xa04	; 0xa04 <lcd_home>
						lcd_puts("Запись ключа ТМ");
    3778:	c1 01       	movw	r24, r2
    377a:	0e 94 df 04 	call	0x9be	; 0x9be <lcd_puts>
						lcd_gotoxy(0, 1);
    377e:	80 e0       	ldi	r24, 0x00	; 0
    3780:	61 e0       	ldi	r22, 0x01	; 1
    3782:	0e 94 ef 04 	call	0x9de	; 0x9de <lcd_gotoxy>
						lcd_puts("Центр.кн.-отмена");
    3786:	c4 01       	movw	r24, r8
    3788:	0e 94 df 04 	call	0x9be	; 0x9be <lcd_puts>
						tm_event=no_tm_event;
    378c:	10 92 ff 02 	sts	0x02FF, r1
    3790:	2a c0       	rjmp	.+84     	; 0x37e6 <invite+0x186>

					case tm_crc_ok: 
					{
					
						
						eeprom_write_byte(&eeprom_tm_serial_num.device_code,device_code);
    3792:	60 91 00 03 	lds	r22, 0x0300
    3796:	c7 01       	movw	r24, r14
    3798:	0e 94 69 28 	call	0x50d2	; 0x50d2 <__eewr_byte_m32>
    379c:	c6 01       	movw	r24, r12
						for (int i = 0; i<6; i++ )
						{
							eeprom_write_byte(&eeprom_tm_serial_num.serial[i],tm_code[i]);
    379e:	f5 01       	movw	r30, r10
    37a0:	e8 0f       	add	r30, r24
    37a2:	f9 1f       	adc	r31, r25
    37a4:	60 81       	ld	r22, Z
    37a6:	8c 01       	movw	r16, r24
    37a8:	0f 5f       	subi	r16, 0xFF	; 255
    37aa:	1f 4f       	sbci	r17, 0xFF	; 255
    37ac:	c7 01       	movw	r24, r14
    37ae:	80 0f       	add	r24, r16
    37b0:	91 1f       	adc	r25, r17
    37b2:	0e 94 69 28 	call	0x50d2	; 0x50d2 <__eewr_byte_m32>
					case tm_crc_ok: 
					{
					
						
						eeprom_write_byte(&eeprom_tm_serial_num.device_code,device_code);
						for (int i = 0; i<6; i++ )
    37b6:	c8 01       	movw	r24, r16
    37b8:	06 30       	cpi	r16, 0x06	; 6
    37ba:	11 05       	cpc	r17, r1
    37bc:	81 f7       	brne	.-32     	; 0x379e <invite+0x13e>
						{
							eeprom_write_byte(&eeprom_tm_serial_num.serial[i],tm_code[i]);
						}
						lcd_clrscr();
    37be:	0e 94 a0 04 	call	0x940	; 0x940 <lcd_clrscr>
						lcd_home();
    37c2:	0e 94 02 05 	call	0xa04	; 0xa04 <lcd_home>
						lcd_puts("Ключ ТМ записан!");
    37c6:	c3 01       	movw	r24, r6
    37c8:	0e 94 df 04 	call	0x9be	; 0x9be <lcd_puts>
						timer2 = 0;
    37cc:	d0 92 17 03 	sts	0x0317, r13
    37d0:	c0 92 16 03 	sts	0x0316, r12
						while (timer2 < 6000){};
    37d4:	80 91 16 03 	lds	r24, 0x0316
    37d8:	90 91 17 03 	lds	r25, 0x0317
    37dc:	80 57       	subi	r24, 0x70	; 112
    37de:	97 41       	sbci	r25, 0x17	; 23
    37e0:	c8 f3       	brcs	.-14     	; 0x37d4 <invite+0x174>
						tm_event=no_tm_event;
    37e2:	10 92 ff 02 	sts	0x02FF, r1
					}

					break;
				
				}//[/switch]
				if (joystick_event==key_central_pressing) 
    37e6:	80 91 0b 03 	lds	r24, 0x030B
    37ea:	85 30       	cpi	r24, 0x05	; 5
    37ec:	b1 f0       	breq	.+44     	; 0x381a <invite+0x1ba>
				break;	

				if (joystick_event!=key_central_pressing) joystick_event = no_pressing;
    37ee:	80 91 0b 03 	lds	r24, 0x030B
    37f2:	85 30       	cpi	r24, 0x05	; 5
    37f4:	11 f0       	breq	.+4      	; 0x37fa <invite+0x19a>
    37f6:	10 92 0b 03 	sts	0x030B, r1
		joystick_event = no_pressing;
		lcd_puts("Запись ключа ТМ");
		lcd_gotoxy(0, 1);
		lcd_puts("Центр.кн.-отмена");
		//timer1 = 0;
		while ((joystick_event!=key_central_pressing)&&(eeprom_read_byte(&eeprom_tm_serial_num.device_code)==0)||(eeprom_read_byte(&eeprom_tm_serial_num.device_code)==0xFF)) //пока не нажата центральная кнопка или не записан ключ
    37fa:	80 91 0b 03 	lds	r24, 0x030B
    37fe:	85 30       	cpi	r24, 0x05	; 5
    3800:	31 f0       	breq	.+12     	; 0x380e <invite+0x1ae>
    3802:	c7 01       	movw	r24, r14
    3804:	0e 94 5b 28 	call	0x50b6	; 0x50b6 <__eerd_byte_m32>
    3808:	88 23       	and	r24, r24
    380a:	09 f4       	brne	.+2      	; 0x380e <invite+0x1ae>
    380c:	86 cf       	rjmp	.-244    	; 0x371a <invite+0xba>
    380e:	c7 01       	movw	r24, r14
    3810:	0e 94 5b 28 	call	0x50b6	; 0x50b6 <__eerd_byte_m32>
    3814:	8f 3f       	cpi	r24, 0xFF	; 255
    3816:	09 f4       	brne	.+2      	; 0x381a <invite+0x1ba>
    3818:	80 cf       	rjmp	.-256    	; 0x371a <invite+0xba>

				if (joystick_event!=key_central_pressing) joystick_event = no_pressing;
		
			};//[/while]
		
if (joystick_event==key_central_pressing)
    381a:	80 91 0b 03 	lds	r24, 0x030B
    381e:	85 30       	cpi	r24, 0x05	; 5
    3820:	09 f0       	breq	.+2      	; 0x3824 <invite+0x1c4>
    3822:	3e c0       	rjmp	.+124    	; 0x38a0 <invite+0x240>
		/*если вышли по нажатию центральной кнопки*/
	{
		joystick_event = no_pressing;
    3824:	10 92 0b 03 	sts	0x030B, r1
		lcd_clrscr();
    3828:	0e 94 a0 04 	call	0x940	; 0x940 <lcd_clrscr>
		lcd_home();
    382c:	0e 94 02 05 	call	0xa04	; 0xa04 <lcd_home>

		lcd_puts("Для настроек жми\nцентр. кнопку 5");
    3830:	8a ee       	ldi	r24, 0xEA	; 234
    3832:	91 e0       	ldi	r25, 0x01	; 1
    3834:	0e 94 df 04 	call	0x9be	; 0x9be <lcd_puts>
		//lcd_puts("Вправо");
		while ((countdown > 0)&&(joystick_event==no_pressing))//пока не кончиться обратный отсчёт или не нажмун кнопку джойстика
    3838:	89 81       	ldd	r24, Y+1	; 0x01
    383a:	88 23       	and	r24, r24
    383c:	59 f1       	breq	.+86     	; 0x3894 <invite+0x234>
    383e:	80 91 0b 03 	lds	r24, 0x030B
    3842:	88 23       	and	r24, r24
    3844:	39 f5       	brne	.+78     	; 0x3894 <invite+0x234>
		{
			timer2 = 0;
    3846:	10 92 17 03 	sts	0x0317, r1
    384a:	10 92 16 03 	sts	0x0316, r1
			while ((timer2 < 6000)&&(joystick_event==no_pressing)){};
    384e:	80 91 16 03 	lds	r24, 0x0316
    3852:	90 91 17 03 	lds	r25, 0x0317
    3856:	80 57       	subi	r24, 0x70	; 112
    3858:	97 41       	sbci	r25, 0x17	; 23
    385a:	20 f4       	brcc	.+8      	; 0x3864 <invite+0x204>
    385c:	80 91 0b 03 	lds	r24, 0x030B
    3860:	88 23       	and	r24, r24
    3862:	a9 f3       	breq	.-22     	; 0x384e <invite+0x1ee>
			if (joystick_event!=no_pressing) break; //если нажата кнопка, выходим из цикла 
    3864:	80 91 0b 03 	lds	r24, 0x030B
    3868:	88 23       	and	r24, r24
    386a:	a1 f4       	brne	.+40     	; 0x3894 <invite+0x234>
			lcd_gotoxy(14, 1);
    386c:	8e e0       	ldi	r24, 0x0E	; 14
    386e:	61 e0       	ldi	r22, 0x01	; 1
    3870:	0e 94 ef 04 	call	0x9de	; 0x9de <lcd_gotoxy>
			countdown--;
    3874:	89 81       	ldd	r24, Y+1	; 0x01
    3876:	81 50       	subi	r24, 0x01	; 1
    3878:	89 83       	std	Y+1, r24	; 0x01
			lcd_puts(int_to_str(countdown,0));
    387a:	89 81       	ldd	r24, Y+1	; 0x01
    387c:	60 e0       	ldi	r22, 0x00	; 0
    387e:	0e 94 e3 0c 	call	0x19c6	; 0x19c6 <int_to_str>
    3882:	0e 94 df 04 	call	0x9be	; 0x9be <lcd_puts>
		lcd_clrscr();
		lcd_home();

		lcd_puts("Для настроек жми\nцентр. кнопку 5");
		//lcd_puts("Вправо");
		while ((countdown > 0)&&(joystick_event==no_pressing))//пока не кончиться обратный отсчёт или не нажмун кнопку джойстика
    3886:	89 81       	ldd	r24, Y+1	; 0x01
    3888:	88 23       	and	r24, r24
    388a:	21 f0       	breq	.+8      	; 0x3894 <invite+0x234>
    388c:	80 91 0b 03 	lds	r24, 0x030B
    3890:	88 23       	and	r24, r24
    3892:	c9 f2       	breq	.-78     	; 0x3846 <invite+0x1e6>
			lcd_gotoxy(14, 1);
			countdown--;
			lcd_puts(int_to_str(countdown,0));
		}

		if (joystick_event==key_central_pressing) 
    3894:	80 91 0b 03 	lds	r24, 0x030B
    3898:	85 30       	cpi	r24, 0x05	; 5
    389a:	11 f4       	brne	.+4      	; 0x38a0 <invite+0x240>
		{
		
			get_all_setings();
    389c:	0e 94 c7 16 	call	0x2d8e	; 0x2d8e <get_all_setings>
	}


//	bullets = eeprom_read_byte(&eeprom_bullets_in_clip);
//	BULLETS_OUT_LED_OFF;
	bullets = 0;
    38a0:	10 92 1f 03 	sts	0x031F, r1
    38a4:	10 92 1e 03 	sts	0x031E, r1
	BULLETS_OUT_LED_ON;
    38a8:	eb e3       	ldi	r30, 0x3B	; 59
    38aa:	f0 e0       	ldi	r31, 0x00	; 0
    38ac:	80 81       	ld	r24, Z
    38ae:	81 60       	ori	r24, 0x01	; 1
    38b0:	80 83       	st	Z, r24
	
	clips = eeprom_read_byte(&eeprom_clips);
    38b2:	84 e0       	ldi	r24, 0x04	; 4
    38b4:	90 e0       	ldi	r25, 0x00	; 0
    38b6:	0e 94 5b 28 	call	0x50b6	; 0x50b6 <__eerd_byte_m32>
    38ba:	80 93 18 03 	sts	0x0318, r24
	joystick_event=no_pressing;
    38be:	10 92 0b 03 	sts	0x030B, r1
	keyboard_event=no_key_pressing;
    38c2:	10 92 6d 03 	sts	0x036D, r1
	tm_event=no_tm_event;
    38c6:	10 92 ff 02 	sts	0x02FF, r1


	}//[/if]


if ((eeprom_read_byte(&eeprom_tm_serial_num.device_code)!=0)&&(eeprom_read_byte(&eeprom_tm_serial_num.device_code)!=0xFF))
    38ca:	8b e0       	ldi	r24, 0x0B	; 11
    38cc:	90 e0       	ldi	r25, 0x00	; 0
    38ce:	0e 94 5b 28 	call	0x50b6	; 0x50b6 <__eerd_byte_m32>
    38d2:	88 23       	and	r24, r24
    38d4:	09 f4       	brne	.+2      	; 0x38d8 <invite+0x278>
    38d6:	34 c1       	rjmp	.+616    	; 0x3b40 <invite+0x4e0>
    38d8:	8b e0       	ldi	r24, 0x0B	; 11
    38da:	90 e0       	ldi	r25, 0x00	; 0
    38dc:	0e 94 5b 28 	call	0x50b6	; 0x50b6 <__eerd_byte_m32>
    38e0:	8f 3f       	cpi	r24, 0xFF	; 255
    38e2:	09 f4       	brne	.+2      	; 0x38e6 <invite+0x286>
    38e4:	2d c1       	rjmp	.+602    	; 0x3b40 <invite+0x4e0>

/*если ТМ ключ уже занесён в память*/

	{//[if]
		
		volatile uint8_t tm_valide=0;
    38e6:	1a 82       	std	Y+2, r1	; 0x02
		while (!tm_valide)
		{//[while]
		lcd_clrscr();
		lcd_home();
		lcd_puts("Для активации\nприложи ключ");
    38e8:	0b e0       	ldi	r16, 0x0B	; 11
    38ea:	12 e0       	ldi	r17, 0x02	; 2
							tm_event=no_tm_event;
							break;
						}
						lcd_clrscr();
						lcd_home();
						lcd_puts("Не тот ключ");
    38ec:	0f 2e       	mov	r0, r31
    38ee:	fd e2       	ldi	r31, 0x2D	; 45
    38f0:	cf 2e       	mov	r12, r31
    38f2:	f2 e0       	ldi	r31, 0x02	; 2
    38f4:	df 2e       	mov	r13, r31
    38f6:	f0 2d       	mov	r31, r0
					case tm_crc_ok: 
					{
					
						if (tm_verification()) 	
						{
							tm_valide=1;				
    38f8:	99 24       	eor	r9, r9
    38fa:	93 94       	inc	r9
							lcd_clrscr();
							lcd_home();
							lcd_puts("Удачи!");
    38fc:	0f 2e       	mov	r0, r31
    38fe:	f6 e2       	ldi	r31, 0x26	; 38
    3900:	af 2e       	mov	r10, r31
    3902:	f2 e0       	ldi	r31, 0x02	; 2
    3904:	bf 2e       	mov	r11, r31
    3906:	f0 2d       	mov	r31, r0
					
					case tm_crc_error: 
					{
						lcd_clrscr();
						lcd_home();
						lcd_puts("Ошибка CRC");
    3908:	0f 2e       	mov	r0, r31
    390a:	fe ec       	ldi	r31, 0xCE	; 206
    390c:	ef 2e       	mov	r14, r31
    390e:	f1 e0       	ldi	r31, 0x01	; 1
    3910:	ff 2e       	mov	r15, r31
    3912:	f0 2d       	mov	r31, r0
    3914:	5f c0       	rjmp	.+190    	; 0x39d4 <invite+0x374>
	{//[if]
		
		volatile uint8_t tm_valide=0;
		while (!tm_valide)
		{//[while]
		lcd_clrscr();
    3916:	0e 94 a0 04 	call	0x940	; 0x940 <lcd_clrscr>
		lcd_home();
    391a:	0e 94 02 05 	call	0xa04	; 0xa04 <lcd_home>
		lcd_puts("Для активации\nприложи ключ");
    391e:	c8 01       	movw	r24, r16
    3920:	0e 94 df 04 	call	0x9be	; 0x9be <lcd_puts>
		//lcd_gotoxy(0, 1);
		//lcd_puts("приложите ключ");
		while ((cr_received==false)&&(tm_event == no_tm_event)){};
    3924:	80 91 48 03 	lds	r24, 0x0348
    3928:	88 23       	and	r24, r24
    392a:	21 f4       	brne	.+8      	; 0x3934 <invite+0x2d4>
    392c:	80 91 ff 02 	lds	r24, 0x02FF
    3930:	88 23       	and	r24, r24
    3932:	c1 f3       	breq	.-16     	; 0x3924 <invite+0x2c4>
		if (cr_received)
    3934:	80 91 48 03 	lds	r24, 0x0348
    3938:	88 23       	and	r24, r24
    393a:	11 f0       	breq	.+4      	; 0x3940 <invite+0x2e0>
				{	
					parsing_command();
    393c:	0e 94 85 1a 	call	0x350a	; 0x350a <parsing_command>
					

				}	
		switch(tm_event)
    3940:	80 91 ff 02 	lds	r24, 0x02FF
    3944:	81 30       	cpi	r24, 0x01	; 1
    3946:	c1 f0       	breq	.+48     	; 0x3978 <invite+0x318>
    3948:	82 30       	cpi	r24, 0x02	; 2
    394a:	09 f0       	breq	.+2      	; 0x394e <invite+0x2ee>
    394c:	43 c0       	rjmp	.+134    	; 0x39d4 <invite+0x374>
					}
					break;
					
					case tm_crc_error: 
					{
						lcd_clrscr();
    394e:	0e 94 a0 04 	call	0x940	; 0x940 <lcd_clrscr>
						lcd_home();
    3952:	0e 94 02 05 	call	0xa04	; 0xa04 <lcd_home>
						lcd_puts("Ошибка CRC");
    3956:	c7 01       	movw	r24, r14
    3958:	0e 94 df 04 	call	0x9be	; 0x9be <lcd_puts>
						timer2 = 0;
    395c:	10 92 17 03 	sts	0x0317, r1
    3960:	10 92 16 03 	sts	0x0316, r1
						while (timer2 < 6000){};
    3964:	80 91 16 03 	lds	r24, 0x0316
    3968:	90 91 17 03 	lds	r25, 0x0317
    396c:	80 57       	subi	r24, 0x70	; 112
    396e:	97 41       	sbci	r25, 0x17	; 23
    3970:	c8 f3       	brcs	.-14     	; 0x3964 <invite+0x304>
						tm_event=no_tm_event;
    3972:	10 92 ff 02 	sts	0x02FF, r1
    3976:	2e c0       	rjmp	.+92     	; 0x39d4 <invite+0x374>
					break;

					case tm_crc_ok: 
					{
					
						if (tm_verification()) 	
    3978:	0e 94 f2 12 	call	0x25e4	; 0x25e4 <tm_verification>
    397c:	88 23       	and	r24, r24
    397e:	b1 f0       	breq	.+44     	; 0x39ac <invite+0x34c>
						{
							tm_valide=1;				
    3980:	9a 82       	std	Y+2, r9	; 0x02
							lcd_clrscr();
    3982:	0e 94 a0 04 	call	0x940	; 0x940 <lcd_clrscr>
							lcd_home();
    3986:	0e 94 02 05 	call	0xa04	; 0xa04 <lcd_home>
							lcd_puts("Удачи!");
    398a:	c5 01       	movw	r24, r10
    398c:	0e 94 df 04 	call	0x9be	; 0x9be <lcd_puts>
							timer2 = 0;
    3990:	10 92 17 03 	sts	0x0317, r1
    3994:	10 92 16 03 	sts	0x0316, r1
							while (timer2 < 6000){};
    3998:	80 91 16 03 	lds	r24, 0x0316
    399c:	90 91 17 03 	lds	r25, 0x0317
    39a0:	80 57       	subi	r24, 0x70	; 112
    39a2:	97 41       	sbci	r25, 0x17	; 23
    39a4:	c8 f3       	brcs	.-14     	; 0x3998 <invite+0x338>
							tm_event=no_tm_event;
    39a6:	10 92 ff 02 	sts	0x02FF, r1
    39aa:	14 c0       	rjmp	.+40     	; 0x39d4 <invite+0x374>
							break;
						}
						lcd_clrscr();
    39ac:	0e 94 a0 04 	call	0x940	; 0x940 <lcd_clrscr>
						lcd_home();
    39b0:	0e 94 02 05 	call	0xa04	; 0xa04 <lcd_home>
						lcd_puts("Не тот ключ");
    39b4:	c6 01       	movw	r24, r12
    39b6:	0e 94 df 04 	call	0x9be	; 0x9be <lcd_puts>
						timer2 = 0;
    39ba:	10 92 17 03 	sts	0x0317, r1
    39be:	10 92 16 03 	sts	0x0316, r1
						while (timer2 < 6000){};
    39c2:	80 91 16 03 	lds	r24, 0x0316
    39c6:	90 91 17 03 	lds	r25, 0x0317
    39ca:	80 57       	subi	r24, 0x70	; 112
    39cc:	97 41       	sbci	r25, 0x17	; 23
    39ce:	c8 f3       	brcs	.-14     	; 0x39c2 <invite+0x362>
						tm_event=no_tm_event;
    39d0:	10 92 ff 02 	sts	0x02FF, r1
/*если ТМ ключ уже занесён в память*/

	{//[if]
		
		volatile uint8_t tm_valide=0;
		while (!tm_valide)
    39d4:	8a 81       	ldd	r24, Y+2	; 0x02
    39d6:	88 23       	and	r24, r24
    39d8:	09 f4       	brne	.+2      	; 0x39dc <invite+0x37c>
    39da:	9d cf       	rjmp	.-198    	; 0x3916 <invite+0x2b6>

					break;
				
				}//[/switch]
			}//[while]
		lcd_clrscr();
    39dc:	0e 94 a0 04 	call	0x940	; 0x940 <lcd_clrscr>
		lcd_home();
    39e0:	0e 94 02 05 	call	0xa04	; 0xa04 <lcd_home>
		joystick_event=no_pressing;
    39e4:	10 92 0b 03 	sts	0x030B, r1
		keyboard_event=no_key_pressing;
    39e8:	10 92 6d 03 	sts	0x036D, r1
		tm_event=no_tm_event;
    39ec:	10 92 ff 02 	sts	0x02FF, r1
lcd_puts("Для настроек\nприложи ключ  5");
    39f0:	89 e3       	ldi	r24, 0x39	; 57
    39f2:	92 e0       	ldi	r25, 0x02	; 2
    39f4:	0e 94 df 04 	call	0x9be	; 0x9be <lcd_puts>
//lcd_puts("Вправо");
while ((countdown > 0)&&(tm_event == no_tm_event)&&(joystick_event==no_pressing))//пока не кончиться обратный отсчёт или не нажмун кнопку джойстика
    39f8:	89 81       	ldd	r24, Y+1	; 0x01
    39fa:	88 23       	and	r24, r24
    39fc:	99 f1       	breq	.+102    	; 0x3a64 <invite+0x404>
    39fe:	80 91 ff 02 	lds	r24, 0x02FF
    3a02:	88 23       	and	r24, r24
    3a04:	79 f5       	brne	.+94     	; 0x3a64 <invite+0x404>
    3a06:	80 91 0b 03 	lds	r24, 0x030B
    3a0a:	88 23       	and	r24, r24
    3a0c:	59 f5       	brne	.+86     	; 0x3a64 <invite+0x404>
	{
		timer2 = 0;
    3a0e:	10 92 17 03 	sts	0x0317, r1
    3a12:	10 92 16 03 	sts	0x0316, r1
		while ((timer2 < 6000)&&(joystick_event==no_pressing)){};
    3a16:	80 91 16 03 	lds	r24, 0x0316
    3a1a:	90 91 17 03 	lds	r25, 0x0317
    3a1e:	80 57       	subi	r24, 0x70	; 112
    3a20:	97 41       	sbci	r25, 0x17	; 23
    3a22:	20 f4       	brcc	.+8      	; 0x3a2c <invite+0x3cc>
    3a24:	80 91 0b 03 	lds	r24, 0x030B
    3a28:	88 23       	and	r24, r24
    3a2a:	a9 f3       	breq	.-22     	; 0x3a16 <invite+0x3b6>
		if (joystick_event!=no_pressing) break; //если нажата кнопка, выходим из цикла 
    3a2c:	80 91 0b 03 	lds	r24, 0x030B
    3a30:	88 23       	and	r24, r24
    3a32:	c1 f4       	brne	.+48     	; 0x3a64 <invite+0x404>
		lcd_gotoxy(14, 1);
    3a34:	8e e0       	ldi	r24, 0x0E	; 14
    3a36:	61 e0       	ldi	r22, 0x01	; 1
    3a38:	0e 94 ef 04 	call	0x9de	; 0x9de <lcd_gotoxy>
		countdown--;
    3a3c:	89 81       	ldd	r24, Y+1	; 0x01
    3a3e:	81 50       	subi	r24, 0x01	; 1
    3a40:	89 83       	std	Y+1, r24	; 0x01
		lcd_puts(int_to_str(countdown,0));
    3a42:	89 81       	ldd	r24, Y+1	; 0x01
    3a44:	60 e0       	ldi	r22, 0x00	; 0
    3a46:	0e 94 e3 0c 	call	0x19c6	; 0x19c6 <int_to_str>
    3a4a:	0e 94 df 04 	call	0x9be	; 0x9be <lcd_puts>
		joystick_event=no_pressing;
		keyboard_event=no_key_pressing;
		tm_event=no_tm_event;
lcd_puts("Для настроек\nприложи ключ  5");
//lcd_puts("Вправо");
while ((countdown > 0)&&(tm_event == no_tm_event)&&(joystick_event==no_pressing))//пока не кончиться обратный отсчёт или не нажмун кнопку джойстика
    3a4e:	89 81       	ldd	r24, Y+1	; 0x01
    3a50:	88 23       	and	r24, r24
    3a52:	41 f0       	breq	.+16     	; 0x3a64 <invite+0x404>
    3a54:	80 91 ff 02 	lds	r24, 0x02FF
    3a58:	88 23       	and	r24, r24
    3a5a:	21 f4       	brne	.+8      	; 0x3a64 <invite+0x404>
    3a5c:	80 91 0b 03 	lds	r24, 0x030B
    3a60:	88 23       	and	r24, r24
    3a62:	a9 f2       	breq	.-86     	; 0x3a0e <invite+0x3ae>
		countdown--;
		lcd_puts(int_to_str(countdown,0));
	}


switch(tm_event)
    3a64:	80 91 ff 02 	lds	r24, 0x02FF
    3a68:	81 30       	cpi	r24, 0x01	; 1
    3a6a:	49 f1       	breq	.+82     	; 0x3abe <invite+0x45e>
    3a6c:	82 30       	cpi	r24, 0x02	; 2
    3a6e:	09 f0       	breq	.+2      	; 0x3a72 <invite+0x412>
    3a70:	54 c0       	rjmp	.+168    	; 0x3b1a <invite+0x4ba>
					}
					break;
					
					case tm_crc_error: 
					{
						lcd_clrscr();
    3a72:	0e 94 a0 04 	call	0x940	; 0x940 <lcd_clrscr>
						lcd_home();
    3a76:	0e 94 02 05 	call	0xa04	; 0xa04 <lcd_home>
						lcd_puts("Ошибка CRC");
    3a7a:	8e ec       	ldi	r24, 0xCE	; 206
    3a7c:	91 e0       	ldi	r25, 0x01	; 1
    3a7e:	0e 94 df 04 	call	0x9be	; 0x9be <lcd_puts>
						timer2 = 0;
    3a82:	10 92 17 03 	sts	0x0317, r1
    3a86:	10 92 16 03 	sts	0x0316, r1
						while (timer2 < 6000){};
    3a8a:	80 91 16 03 	lds	r24, 0x0316
    3a8e:	90 91 17 03 	lds	r25, 0x0317
    3a92:	80 57       	subi	r24, 0x70	; 112
    3a94:	97 41       	sbci	r25, 0x17	; 23
    3a96:	c8 f3       	brcs	.-14     	; 0x3a8a <invite+0x42a>
						lcd_clrscr();
    3a98:	0e 94 a0 04 	call	0x940	; 0x940 <lcd_clrscr>
						lcd_home();
    3a9c:	0e 94 02 05 	call	0xa04	; 0xa04 <lcd_home>
						lcd_puts("Для настроек");
    3aa0:	86 e5       	ldi	r24, 0x56	; 86
    3aa2:	92 e0       	ldi	r25, 0x02	; 2
    3aa4:	0e 94 df 04 	call	0x9be	; 0x9be <lcd_puts>
						lcd_gotoxy(0, 1);
    3aa8:	80 e0       	ldi	r24, 0x00	; 0
    3aaa:	61 e0       	ldi	r22, 0x01	; 1
    3aac:	0e 94 ef 04 	call	0x9de	; 0x9de <lcd_gotoxy>
						lcd_puts("приложи ключ");
    3ab0:	83 e6       	ldi	r24, 0x63	; 99
    3ab2:	92 e0       	ldi	r25, 0x02	; 2
    3ab4:	0e 94 df 04 	call	0x9be	; 0x9be <lcd_puts>
						tm_event=no_tm_event;
    3ab8:	10 92 ff 02 	sts	0x02FF, r1
    3abc:	2e c0       	rjmp	.+92     	; 0x3b1a <invite+0x4ba>
					break;

					case tm_crc_ok: 
					{
					
						if (tm_verification()) 	//ключ верный
    3abe:	0e 94 f2 12 	call	0x25e4	; 0x25e4 <tm_verification>
    3ac2:	88 23       	and	r24, r24
    3ac4:	29 f0       	breq	.+10     	; 0x3ad0 <invite+0x470>
						{
							get_all_setings();
    3ac6:	0e 94 c7 16 	call	0x2d8e	; 0x2d8e <get_all_setings>
							tm_event=no_tm_event;
    3aca:	10 92 ff 02 	sts	0x02FF, r1
    3ace:	25 c0       	rjmp	.+74     	; 0x3b1a <invite+0x4ba>
							break;
						}
						//чужой ключ
						lcd_clrscr();
    3ad0:	0e 94 a0 04 	call	0x940	; 0x940 <lcd_clrscr>
						lcd_home();
    3ad4:	0e 94 02 05 	call	0xa04	; 0xa04 <lcd_home>
						lcd_puts("Не тот ключ");
    3ad8:	8d e2       	ldi	r24, 0x2D	; 45
    3ada:	92 e0       	ldi	r25, 0x02	; 2
    3adc:	0e 94 df 04 	call	0x9be	; 0x9be <lcd_puts>
						timer2 = 0;
    3ae0:	10 92 17 03 	sts	0x0317, r1
    3ae4:	10 92 16 03 	sts	0x0316, r1
						while (timer2 < 6000){};
    3ae8:	80 91 16 03 	lds	r24, 0x0316
    3aec:	90 91 17 03 	lds	r25, 0x0317
    3af0:	80 57       	subi	r24, 0x70	; 112
    3af2:	97 41       	sbci	r25, 0x17	; 23
    3af4:	c8 f3       	brcs	.-14     	; 0x3ae8 <invite+0x488>
						lcd_clrscr();
    3af6:	0e 94 a0 04 	call	0x940	; 0x940 <lcd_clrscr>
						lcd_home();
    3afa:	0e 94 02 05 	call	0xa04	; 0xa04 <lcd_home>
						lcd_puts("Для настроек");
    3afe:	86 e5       	ldi	r24, 0x56	; 86
    3b00:	92 e0       	ldi	r25, 0x02	; 2
    3b02:	0e 94 df 04 	call	0x9be	; 0x9be <lcd_puts>
						lcd_gotoxy(0, 1);
    3b06:	80 e0       	ldi	r24, 0x00	; 0
    3b08:	61 e0       	ldi	r22, 0x01	; 1
    3b0a:	0e 94 ef 04 	call	0x9de	; 0x9de <lcd_gotoxy>
						lcd_puts("приложи ключ");
    3b0e:	83 e6       	ldi	r24, 0x63	; 99
    3b10:	92 e0       	ldi	r25, 0x02	; 2
    3b12:	0e 94 df 04 	call	0x9be	; 0x9be <lcd_puts>
						tm_event=no_tm_event;
    3b16:	10 92 ff 02 	sts	0x02FF, r1


//	bullets = eeprom_read_byte(&eeprom_bullets_in_clip);
//	BULLETS_OUT_LED_OFF;

	bullets = 0;
    3b1a:	10 92 1f 03 	sts	0x031F, r1
    3b1e:	10 92 1e 03 	sts	0x031E, r1
	BULLETS_OUT_LED_ON;
    3b22:	eb e3       	ldi	r30, 0x3B	; 59
    3b24:	f0 e0       	ldi	r31, 0x00	; 0
    3b26:	80 81       	ld	r24, Z
    3b28:	81 60       	ori	r24, 0x01	; 1
    3b2a:	80 83       	st	Z, r24


	clips = eeprom_read_byte(&eeprom_clips);
    3b2c:	84 e0       	ldi	r24, 0x04	; 4
    3b2e:	90 e0       	ldi	r25, 0x00	; 0
    3b30:	0e 94 5b 28 	call	0x50b6	; 0x50b6 <__eerd_byte_m32>
    3b34:	80 93 18 03 	sts	0x0318, r24
	joystick_event=no_pressing;
    3b38:	10 92 0b 03 	sts	0x030B, r1
	keyboard_event=no_key_pressing;
    3b3c:	10 92 6d 03 	sts	0x036D, r1





}
    3b40:	0f 90       	pop	r0
    3b42:	0f 90       	pop	r0
    3b44:	cf 91       	pop	r28
    3b46:	df 91       	pop	r29
    3b48:	1f 91       	pop	r17
    3b4a:	0f 91       	pop	r16
    3b4c:	ff 90       	pop	r15
    3b4e:	ef 90       	pop	r14
    3b50:	df 90       	pop	r13
    3b52:	cf 90       	pop	r12
    3b54:	bf 90       	pop	r11
    3b56:	af 90       	pop	r10
    3b58:	9f 90       	pop	r9
    3b5a:	8f 90       	pop	r8
    3b5c:	7f 90       	pop	r7
    3b5e:	6f 90       	pop	r6
    3b60:	5f 90       	pop	r5
    3b62:	4f 90       	pop	r4
    3b64:	3f 90       	pop	r3
    3b66:	2f 90       	pop	r2
    3b68:	08 95       	ret

00003b6a <main>:
#include "commands.h"




int main (void) {
    3b6a:	2f 92       	push	r2
    3b6c:	3f 92       	push	r3
    3b6e:	4f 92       	push	r4
    3b70:	5f 92       	push	r5
    3b72:	6f 92       	push	r6
    3b74:	7f 92       	push	r7
    3b76:	8f 92       	push	r8
    3b78:	9f 92       	push	r9
    3b7a:	af 92       	push	r10
    3b7c:	bf 92       	push	r11
    3b7e:	cf 92       	push	r12
    3b80:	df 92       	push	r13
    3b82:	ef 92       	push	r14
    3b84:	ff 92       	push	r15
    3b86:	0f 93       	push	r16
    3b88:	1f 93       	push	r17
    3b8a:	df 93       	push	r29
    3b8c:	cf 93       	push	r28
    3b8e:	00 d0       	rcall	.+0      	; 0x3b90 <main+0x26>
    3b90:	00 d0       	rcall	.+0      	; 0x3b92 <main+0x28>
    3b92:	00 d0       	rcall	.+0      	; 0x3b94 <main+0x2a>
    3b94:	cd b7       	in	r28, 0x3d	; 61
    3b96:	de b7       	in	r29, 0x3e	; 62
configuring_ports();
    3b98:	0e 94 39 09 	call	0x1272	; 0x1272 <configuring_ports>

init_timer2();
    3b9c:	0e 94 9b 09 	call	0x1336	; 0x1336 <init_timer2>
init_int0();
    3ba0:	0e 94 a5 09 	call	0x134a	; 0x134a <init_int0>
init_tm();	//инициализируем считыватель тачмемори
    3ba4:	0e 94 07 06 	call	0xc0e	; 0xc0e <init_tm>
init_timer1();
    3ba8:	0e 94 01 0c 	call	0x1802	; 0x1802 <init_timer1>
init_timer0();
    3bac:	0e 94 f4 0b 	call	0x17e8	; 0x17e8 <init_timer0>

init_var();                		//Задаём значения переменным
    3bb0:	0e 94 d0 18 	call	0x31a0	; 0x31a0 <init_var>

init_lcd(); 
    3bb4:	0e 94 c2 05 	call	0xb84	; 0xb84 <init_lcd>
lcd_clrscr();
    3bb8:	0e 94 a0 04 	call	0x940	; 0x940 <lcd_clrscr>
init_joystick();
    3bbc:	0e 94 ec 25 	call	0x4bd8	; 0x4bd8 <init_joystick>
init_adc();
    3bc0:	0e 94 9a 0e 	call	0x1d34	; 0x1d34 <init_adc>

USART_Init();
    3bc4:	0e 94 33 27 	call	0x4e66	; 0x4e66 <USART_Init>
EnableRxInt();
    3bc8:	ea e2       	ldi	r30, 0x2A	; 42
    3bca:	f0 e0       	ldi	r31, 0x00	; 0
    3bcc:	80 81       	ld	r24, Z
    3bce:	80 68       	ori	r24, 0x80	; 128
    3bd0:	80 83       	st	Z, r24
EnableTxInt();
    3bd2:	80 81       	ld	r24, Z
    3bd4:	80 64       	ori	r24, 0x40	; 64
    3bd6:	80 83       	st	Z, r24


eeInit();
    3bd8:	0e 94 02 07 	call	0xe04	; 0xe04 <eeInit>
    3bdc:	80 e6       	ldi	r24, 0x60	; 96
    3bde:	9a ee       	ldi	r25, 0xEA	; 234
    3be0:	01 97       	sbiw	r24, 0x01	; 1
    3be2:	f1 f7       	brne	.-4      	; 0x3be0 <main+0x76>


_delay_ms(15); 
lcd_puts("LTAscetic \n");
    3be4:	80 e7       	ldi	r24, 0x70	; 112
    3be6:	92 e0       	ldi	r25, 0x02	; 2
    3be8:	0e 94 df 04 	call	0x9be	; 0x9be <lcd_puts>
//lcd_gotoxy(0, 1);
lcd_puts("www.open-tag.ru");
    3bec:	8c e7       	ldi	r24, 0x7C	; 124
    3bee:	92 e0       	ldi	r25, 0x02	; 2
    3bf0:	0e 94 df 04 	call	0x9be	; 0x9be <lcd_puts>
lcd_putc(3);
lcd_putc(4);
lcd_putc(5);
*/

sei(); 
    3bf4:	78 94       	sei

life_leds_status[0] = ON;
    3bf6:	8f ef       	ldi	r24, 0xFF	; 255
    3bf8:	80 93 80 03 	sts	0x0380, r24
timer2 = 0;
    3bfc:	10 92 17 03 	sts	0x0317, r1
    3c00:	10 92 16 03 	sts	0x0316, r1
while (timer2 < 1000);
    3c04:	80 91 16 03 	lds	r24, 0x0316
    3c08:	90 91 17 03 	lds	r25, 0x0317
    3c0c:	88 5e       	subi	r24, 0xE8	; 232
    3c0e:	93 40       	sbci	r25, 0x03	; 3
    3c10:	c8 f3       	brcs	.-14     	; 0x3c04 <main+0x9a>

life_leds_status[1] = ON;
    3c12:	8f ef       	ldi	r24, 0xFF	; 255
    3c14:	80 93 81 03 	sts	0x0381, r24
timer2 = 0;
    3c18:	10 92 17 03 	sts	0x0317, r1
    3c1c:	10 92 16 03 	sts	0x0316, r1
while (timer2 < 1000);
    3c20:	80 91 16 03 	lds	r24, 0x0316
    3c24:	90 91 17 03 	lds	r25, 0x0317
    3c28:	88 5e       	subi	r24, 0xE8	; 232
    3c2a:	93 40       	sbci	r25, 0x03	; 3
    3c2c:	c8 f3       	brcs	.-14     	; 0x3c20 <main+0xb6>

//LIFE_LED3_ON;
life_leds_status[2] = ON;
    3c2e:	8f ef       	ldi	r24, 0xFF	; 255
    3c30:	80 93 82 03 	sts	0x0382, r24
timer2 = 0;
    3c34:	10 92 17 03 	sts	0x0317, r1
    3c38:	10 92 16 03 	sts	0x0316, r1
while (timer2 < 1000);
    3c3c:	80 91 16 03 	lds	r24, 0x0316
    3c40:	90 91 17 03 	lds	r25, 0x0317
    3c44:	88 5e       	subi	r24, 0xE8	; 232
    3c46:	93 40       	sbci	r25, 0x03	; 3
    3c48:	c8 f3       	brcs	.-14     	; 0x3c3c <main+0xd2>

//LIFE_LED4_ON;
life_leds_status[3] = ON;
    3c4a:	8f ef       	ldi	r24, 0xFF	; 255
    3c4c:	80 93 83 03 	sts	0x0383, r24
timer2 = 0;
    3c50:	10 92 17 03 	sts	0x0317, r1
    3c54:	10 92 16 03 	sts	0x0316, r1
while (timer2 < 1000);
    3c58:	80 91 16 03 	lds	r24, 0x0316
    3c5c:	90 91 17 03 	lds	r25, 0x0317
    3c60:	88 5e       	subi	r24, 0xE8	; 232
    3c62:	93 40       	sbci	r25, 0x03	; 3
    3c64:	c8 f3       	brcs	.-14     	; 0x3c58 <main+0xee>

//FIRE_LED_ON;
fire_led_status = ON;
    3c66:	8f ef       	ldi	r24, 0xFF	; 255
    3c68:	80 93 88 03 	sts	0x0388, r24
timer2 = 0;
    3c6c:	10 92 17 03 	sts	0x0317, r1
    3c70:	10 92 16 03 	sts	0x0316, r1
while (timer2 < 1000);
    3c74:	80 91 16 03 	lds	r24, 0x0316
    3c78:	90 91 17 03 	lds	r25, 0x0317
    3c7c:	88 5e       	subi	r24, 0xE8	; 232
    3c7e:	93 40       	sbci	r25, 0x03	; 3
    3c80:	c8 f3       	brcs	.-14     	; 0x3c74 <main+0x10a>

BULLETS_OUT_LED_ON;
    3c82:	eb e3       	ldi	r30, 0x3B	; 59
    3c84:	f0 e0       	ldi	r31, 0x00	; 0
    3c86:	80 81       	ld	r24, Z
    3c88:	81 60       	ori	r24, 0x01	; 1
    3c8a:	80 83       	st	Z, r24
timer2 = 0;
    3c8c:	10 92 17 03 	sts	0x0317, r1
    3c90:	10 92 16 03 	sts	0x0316, r1
while (timer2 < 1000);
    3c94:	80 91 16 03 	lds	r24, 0x0316
    3c98:	90 91 17 03 	lds	r25, 0x0317
    3c9c:	88 5e       	subi	r24, 0xE8	; 232
    3c9e:	93 40       	sbci	r25, 0x03	; 3
    3ca0:	c8 f3       	brcs	.-14     	; 0x3c94 <main+0x12a>

WOUND_LED_ON;
    3ca2:	e2 e3       	ldi	r30, 0x32	; 50
    3ca4:	f0 e0       	ldi	r31, 0x00	; 0
    3ca6:	80 81       	ld	r24, Z
    3ca8:	80 61       	ori	r24, 0x10	; 16
    3caa:	80 83       	st	Z, r24
timer2 = 0;
    3cac:	10 92 17 03 	sts	0x0317, r1
    3cb0:	10 92 16 03 	sts	0x0316, r1
while (timer2 < 1000);
    3cb4:	80 91 16 03 	lds	r24, 0x0316
    3cb8:	90 91 17 03 	lds	r25, 0x0317
    3cbc:	88 5e       	subi	r24, 0xE8	; 232
    3cbe:	93 40       	sbci	r25, 0x03	; 3
    3cc0:	c8 f3       	brcs	.-14     	; 0x3cb4 <main+0x14a>

FIRE_LED_ON;
    3cc2:	e5 e3       	ldi	r30, 0x35	; 53
    3cc4:	f0 e0       	ldi	r31, 0x00	; 0
    3cc6:	80 81       	ld	r24, Z
    3cc8:	80 62       	ori	r24, 0x20	; 32
    3cca:	80 83       	st	Z, r24
timer2 = 0;
    3ccc:	10 92 17 03 	sts	0x0317, r1
    3cd0:	10 92 16 03 	sts	0x0316, r1
while (timer2 < 1000);
    3cd4:	80 91 16 03 	lds	r24, 0x0316
    3cd8:	90 91 17 03 	lds	r25, 0x0317
    3cdc:	88 5e       	subi	r24, 0xE8	; 232
    3cde:	93 40       	sbci	r25, 0x03	; 3
    3ce0:	c8 f3       	brcs	.-14     	; 0x3cd4 <main+0x16a>



lcd_bl_on();
    3ce2:	0e 94 1b 05 	call	0xa36	; 0xa36 <lcd_bl_on>
timer2 = 0;
    3ce6:	10 92 17 03 	sts	0x0317, r1
    3cea:	10 92 16 03 	sts	0x0316, r1
while (timer2 < 1000);
    3cee:	80 91 16 03 	lds	r24, 0x0316
    3cf2:	90 91 17 03 	lds	r25, 0x0317
    3cf6:	88 5e       	subi	r24, 0xE8	; 232
    3cf8:	93 40       	sbci	r25, 0x03	; 3
    3cfa:	c8 f3       	brcs	.-14     	; 0x3cee <main+0x184>


lcd_bl_off();
    3cfc:	0e 94 23 05 	call	0xa46	; 0xa46 <lcd_bl_off>
timer2 = 0;
    3d00:	10 92 17 03 	sts	0x0317, r1
    3d04:	10 92 16 03 	sts	0x0316, r1
while (timer2 < 1000);
    3d08:	80 91 16 03 	lds	r24, 0x0316
    3d0c:	90 91 17 03 	lds	r25, 0x0317
    3d10:	88 5e       	subi	r24, 0xE8	; 232
    3d12:	93 40       	sbci	r25, 0x03	; 3
    3d14:	c8 f3       	brcs	.-14     	; 0x3d08 <main+0x19e>

//LIFE_LED1_OFF;
life_leds_status[0] = OFF;
    3d16:	10 92 80 03 	sts	0x0380, r1
timer2 = 0;
    3d1a:	10 92 17 03 	sts	0x0317, r1
    3d1e:	10 92 16 03 	sts	0x0316, r1
while (timer2 < 1000);
    3d22:	80 91 16 03 	lds	r24, 0x0316
    3d26:	90 91 17 03 	lds	r25, 0x0317
    3d2a:	88 5e       	subi	r24, 0xE8	; 232
    3d2c:	93 40       	sbci	r25, 0x03	; 3
    3d2e:	c8 f3       	brcs	.-14     	; 0x3d22 <main+0x1b8>

//LIFE_LED2_OFF;
life_leds_status[1] = OFF;
    3d30:	10 92 81 03 	sts	0x0381, r1
timer2 = 0;
    3d34:	10 92 17 03 	sts	0x0317, r1
    3d38:	10 92 16 03 	sts	0x0316, r1
while (timer2 < 1000);
    3d3c:	80 91 16 03 	lds	r24, 0x0316
    3d40:	90 91 17 03 	lds	r25, 0x0317
    3d44:	88 5e       	subi	r24, 0xE8	; 232
    3d46:	93 40       	sbci	r25, 0x03	; 3
    3d48:	c8 f3       	brcs	.-14     	; 0x3d3c <main+0x1d2>

//LIFE_LED3_OFF;
life_leds_status[2] = OFF;
    3d4a:	10 92 82 03 	sts	0x0382, r1
timer2 = 0;
    3d4e:	10 92 17 03 	sts	0x0317, r1
    3d52:	10 92 16 03 	sts	0x0316, r1
while (timer2 < 1000);
    3d56:	80 91 16 03 	lds	r24, 0x0316
    3d5a:	90 91 17 03 	lds	r25, 0x0317
    3d5e:	88 5e       	subi	r24, 0xE8	; 232
    3d60:	93 40       	sbci	r25, 0x03	; 3
    3d62:	c8 f3       	brcs	.-14     	; 0x3d56 <main+0x1ec>

//LIFE_LED4_OFF;
life_leds_status[3] = OFF;
    3d64:	10 92 83 03 	sts	0x0383, r1
timer2 = 0;
    3d68:	10 92 17 03 	sts	0x0317, r1
    3d6c:	10 92 16 03 	sts	0x0316, r1
while (timer2 < 1000);
    3d70:	80 91 16 03 	lds	r24, 0x0316
    3d74:	90 91 17 03 	lds	r25, 0x0317
    3d78:	88 5e       	subi	r24, 0xE8	; 232
    3d7a:	93 40       	sbci	r25, 0x03	; 3
    3d7c:	c8 f3       	brcs	.-14     	; 0x3d70 <main+0x206>

FIRE_LED_OFF;
    3d7e:	e5 e3       	ldi	r30, 0x35	; 53
    3d80:	f0 e0       	ldi	r31, 0x00	; 0
    3d82:	80 81       	ld	r24, Z
    3d84:	8f 7d       	andi	r24, 0xDF	; 223
    3d86:	80 83       	st	Z, r24
timer2 = 0;
    3d88:	10 92 17 03 	sts	0x0317, r1
    3d8c:	10 92 16 03 	sts	0x0316, r1
while (timer2 < 1000);
    3d90:	80 91 16 03 	lds	r24, 0x0316
    3d94:	90 91 17 03 	lds	r25, 0x0317
    3d98:	88 5e       	subi	r24, 0xE8	; 232
    3d9a:	93 40       	sbci	r25, 0x03	; 3
    3d9c:	c8 f3       	brcs	.-14     	; 0x3d90 <main+0x226>

BULLETS_OUT_LED_OFF;
    3d9e:	eb e3       	ldi	r30, 0x3B	; 59
    3da0:	f0 e0       	ldi	r31, 0x00	; 0
    3da2:	80 81       	ld	r24, Z
    3da4:	8e 7f       	andi	r24, 0xFE	; 254
    3da6:	80 83       	st	Z, r24
timer2 = 0;
    3da8:	10 92 17 03 	sts	0x0317, r1
    3dac:	10 92 16 03 	sts	0x0316, r1
while (timer2 < 1000);
    3db0:	80 91 16 03 	lds	r24, 0x0316
    3db4:	90 91 17 03 	lds	r25, 0x0317
    3db8:	88 5e       	subi	r24, 0xE8	; 232
    3dba:	93 40       	sbci	r25, 0x03	; 3
    3dbc:	c8 f3       	brcs	.-14     	; 0x3db0 <main+0x246>

WOUND_LED_OFF;
    3dbe:	e2 e3       	ldi	r30, 0x32	; 50
    3dc0:	f0 e0       	ldi	r31, 0x00	; 0
    3dc2:	80 81       	ld	r24, Z
    3dc4:	8f 7e       	andi	r24, 0xEF	; 239
    3dc6:	80 83       	st	Z, r24
timer2 = 0;
    3dc8:	10 92 17 03 	sts	0x0317, r1
    3dcc:	10 92 16 03 	sts	0x0316, r1
while (timer2 < 1000);
    3dd0:	80 91 16 03 	lds	r24, 0x0316
    3dd4:	90 91 17 03 	lds	r25, 0x0317
    3dd8:	88 5e       	subi	r24, 0xE8	; 232
    3dda:	93 40       	sbci	r25, 0x03	; 3
    3ddc:	c8 f3       	brcs	.-14     	; 0x3dd0 <main+0x266>

timer2 = 0;
    3dde:	10 92 17 03 	sts	0x0317, r1
    3de2:	10 92 16 03 	sts	0x0316, r1
while (timer2 < 1000);
    3de6:	80 91 16 03 	lds	r24, 0x0316
    3dea:	90 91 17 03 	lds	r25, 0x0317
    3dee:	88 5e       	subi	r24, 0xE8	; 232
    3df0:	93 40       	sbci	r25, 0x03	; 3
    3df2:	c8 f3       	brcs	.-14     	; 0x3de6 <main+0x27c>
//life_led1_status = FQR_1HZ;
//life_led2_status = FQR_2HZ;
//life_led3_status = FQR_4HZ;
//life_led4_status = ON;

display_life(life);
    3df4:	80 91 72 03 	lds	r24, 0x0372
    3df8:	0e 94 2e 0c 	call	0x185c	; 0x185c <display_life>
beep(1000, 3, 128);
    3dfc:	88 ee       	ldi	r24, 0xE8	; 232
    3dfe:	93 e0       	ldi	r25, 0x03	; 3
    3e00:	63 e0       	ldi	r22, 0x03	; 3
    3e02:	70 e0       	ldi	r23, 0x00	; 0
    3e04:	40 e8       	ldi	r20, 0x80	; 128
    3e06:	0e 94 62 0c 	call	0x18c4	; 0x18c4 <beep>

USART_SendStr("Hello!\n\r");
    3e0a:	8c e8       	ldi	r24, 0x8C	; 140
    3e0c:	92 e0       	ldi	r25, 0x02	; 2
    3e0e:	0e 94 54 27 	call	0x4ea8	; 0x4ea8 <USART_SendStr>
USART_SendStr("Привет!\n\r");
    3e12:	85 e9       	ldi	r24, 0x95	; 149
    3e14:	92 e0       	ldi	r25, 0x02	; 2
    3e16:	0e 94 54 27 	call	0x4ea8	; 0x4ea8 <USART_SendStr>
USART_SendStrP(command_0);
    3e1a:	82 ef       	ldi	r24, 0xF2	; 242
    3e1c:	90 e0       	ldi	r25, 0x00	; 0
    3e1e:	0e 94 64 27 	call	0x4ec8	; 0x4ec8 <USART_SendStrP>
USART_SendStrP(command_1);
    3e22:	83 e0       	ldi	r24, 0x03	; 3
    3e24:	91 e0       	ldi	r25, 0x01	; 1
    3e26:	0e 94 64 27 	call	0x4ec8	; 0x4ec8 <USART_SendStrP>
while(eeprom_is_open);
simples_in_queue = eeprom_read_word(&sound_1_size);
*/


invite();
    3e2a:	0e 94 30 1b 	call	0x3660	; 0x3660 <invite>
cut_off_sound = (eeprom_read_word(&sound_1_size)/100)*(100-CUT_OFF_SOUNT);
    3e2e:	84 e1       	ldi	r24, 0x14	; 20
    3e30:	90 e0       	ldi	r25, 0x00	; 0
    3e32:	0e 94 63 28 	call	0x50c6	; 0x50c6 <__eerd_word_m32>
    3e36:	64 e6       	ldi	r22, 0x64	; 100
    3e38:	70 e0       	ldi	r23, 0x00	; 0
    3e3a:	0e 94 0e 28 	call	0x501c	; 0x501c <__udivmodhi4>
    3e3e:	8a e5       	ldi	r24, 0x5A	; 90
    3e40:	90 e0       	ldi	r25, 0x00	; 0
    3e42:	9c 01       	movw	r18, r24
    3e44:	62 9f       	mul	r22, r18
    3e46:	c0 01       	movw	r24, r0
    3e48:	63 9f       	mul	r22, r19
    3e4a:	90 0d       	add	r25, r0
    3e4c:	72 9f       	mul	r23, r18
    3e4e:	90 0d       	add	r25, r0
    3e50:	11 24       	eor	r1, r1
    3e52:	90 93 74 03 	sts	0x0374, r25
    3e56:	80 93 73 03 	sts	0x0373, r24
joystick_event=no_pressing;
    3e5a:	10 92 0b 03 	sts	0x030B, r1
display_status();
    3e5e:	0e 94 2e 0e 	call	0x1c5c	; 0x1c5c <display_status>

timer2 = 0;
    3e62:	10 92 17 03 	sts	0x0317, r1
    3e66:	10 92 16 03 	sts	0x0316, r1
while (timer2 < 1000);
    3e6a:	80 91 16 03 	lds	r24, 0x0316
    3e6e:	90 91 17 03 	lds	r25, 0x0317
    3e72:	88 5e       	subi	r24, 0xE8	; 232
    3e74:	93 40       	sbci	r25, 0x03	; 3
    3e76:	c8 f3       	brcs	.-14     	; 0x3e6a <main+0x300>
//batt_voltage = batt_voltage/10;

if (chit_detected)
	{
		lcd_clrscr();
		lcd_puts("Ошибка датчиков,");
    3e78:	0f 2e       	mov	r0, r31
    3e7a:	ff e9       	ldi	r31, 0x9F	; 159
    3e7c:	af 2e       	mov	r10, r31
    3e7e:	f2 e0       	ldi	r31, 0x02	; 2
    3e80:	bf 2e       	mov	r11, r31
    3e82:	f0 2d       	mov	r31, r0
		lcd_gotoxy(0, 1);
		lcd_puts("Проверь повязку!");
    3e84:	0f 2e       	mov	r0, r31
    3e86:	f0 eb       	ldi	r31, 0xB0	; 176
    3e88:	8f 2e       	mov	r8, r31
    3e8a:	f2 e0       	ldi	r31, 0x02	; 2
    3e8c:	9f 2e       	mov	r9, r31
    3e8e:	f0 2d       	mov	r31, r0
				{
					simples_in_queue=1;//закроем eeprom
					while (eeprom_is_open);//дождемся, пока eerom закроется
				}
				 
				simples_in_queue = eeprom_read_word(&sound_1_size);
    3e90:	0f 2e       	mov	r0, r31
    3e92:	f4 e1       	ldi	r31, 0x14	; 20
    3e94:	6f 2e       	mov	r6, r31
    3e96:	f0 e0       	ldi	r31, 0x00	; 0
    3e98:	7f 2e       	mov	r7, r31
    3e9a:	f0 2d       	mov	r31, r0
		{
			if ((clips > 0)&&(simples_in_queue==0))//если обоймы не кончилсь и не воспроизводиться звук выстрела
			{
				playclipinsound();
				clips--;//уменьшаем на 1 количество патронов
				bullets = eeprom_read_byte(&eeprom_bullets_in_clip);
    3e9c:	0f 2e       	mov	r0, r31
    3e9e:	f3 e0       	ldi	r31, 0x03	; 3
    3ea0:	4f 2e       	mov	r4, r31
    3ea2:	f0 e0       	ldi	r31, 0x00	; 0
    3ea4:	5f 2e       	mov	r5, r31
    3ea6:	f0 2d       	mov	r31, r0
				display_clips_update();
				display_bullets_update();
				for (int i=0; i< eeprom_read_byte(&eeprom_reload_duration); i++){
    3ea8:	0f 2e       	mov	r0, r31
    3eaa:	f5 e0       	ldi	r31, 0x05	; 5
    3eac:	cf 2e       	mov	r12, r31
    3eae:	f0 e0       	ldi	r31, 0x00	; 0
    3eb0:	df 2e       	mov	r13, r31
    3eb2:	f0 2d       	mov	r31, r0

inline trx_packet get_packet_value(){ //Считываем данные из полученного пакета
trx_packet result;
uint8_t byte_tmp;

result.player_id = rx_buffer[0];
    3eb4:	0f 2e       	mov	r0, r31
    3eb6:	f0 e3       	ldi	r31, 0x30	; 48
    3eb8:	2f 2e       	mov	r2, r31
    3eba:	f3 e0       	ldi	r31, 0x03	; 3
    3ebc:	3f 2e       	mov	r3, r31
    3ebe:	f0 2d       	mov	r31, r0
byte_tmp = rx_buffer[1];
    3ec0:	c1 01       	movw	r24, r2
    3ec2:	01 96       	adiw	r24, 0x01	; 1
    3ec4:	9e 83       	std	Y+6, r25	; 0x06
    3ec6:	8d 83       	std	Y+5, r24	; 0x05
//								volatile int gg;
//								gg++;

								if ((rx_packet.team_id != team_id())||(eeprom_read_byte(&friendly_fire_enable)&&(rx_packet.player_id != eeprom_read_byte(&eeprom_player_id))))//"пуля" прилетела от игрока другой, не нашей, команды
								{
									WOUND_LED_ON; //включаем вспомогательный светодиод						
    3ec8:	0f 2e       	mov	r0, r31
    3eca:	f2 e3       	ldi	r31, 0x32	; 50
    3ecc:	ef 2e       	mov	r14, r31
    3ece:	ff 24       	eor	r15, r15
    3ed0:	f0 2d       	mov	r31, r0
////volatile uint16_t adc_data;
////volatile uint16_t batt_voltage;
////adc_data=ReadADC(ADC_CHANNEL);
//adc_data=(adc_data/4)*7.5;
//USART_SendStr("Hello!\n\r");
if (simples_in_queue==0) display_voltage_update();
    3ed2:	80 91 13 03 	lds	r24, 0x0313
    3ed6:	90 91 14 03 	lds	r25, 0x0314
    3eda:	89 2b       	or	r24, r25
    3edc:	11 f4       	brne	.+4      	; 0x3ee2 <main+0x378>
    3ede:	0e 94 44 10 	call	0x2088	; 0x2088 <display_voltage_update>
//		sound_buffer_update();
//	}
//batt_voltage = (adc_data/4)*7.5;
//batt_voltage = batt_voltage/10;

if (chit_detected)
    3ee2:	80 91 09 03 	lds	r24, 0x0309
    3ee6:	88 23       	and	r24, r24
    3ee8:	51 f1       	breq	.+84     	; 0x3f3e <main+0x3d4>
	{
		lcd_clrscr();
    3eea:	0e 94 a0 04 	call	0x940	; 0x940 <lcd_clrscr>
		lcd_puts("Ошибка датчиков,");
    3eee:	c5 01       	movw	r24, r10
    3ef0:	0e 94 df 04 	call	0x9be	; 0x9be <lcd_puts>
		lcd_gotoxy(0, 1);
    3ef4:	80 e0       	ldi	r24, 0x00	; 0
    3ef6:	61 e0       	ldi	r22, 0x01	; 1
    3ef8:	0e 94 ef 04 	call	0x9de	; 0x9de <lcd_gotoxy>
		lcd_puts("Проверь повязку!");
    3efc:	c4 01       	movw	r24, r8
    3efe:	0e 94 df 04 	call	0x9be	; 0x9be <lcd_puts>
		while (chit_detected)
    3f02:	80 91 09 03 	lds	r24, 0x0309
    3f06:	88 23       	and	r24, r24
    3f08:	91 f0       	breq	.+36     	; 0x3f2e <main+0x3c4>
		{
			beep(1000, 3, 128);
    3f0a:	88 ee       	ldi	r24, 0xE8	; 232
    3f0c:	93 e0       	ldi	r25, 0x03	; 3
    3f0e:	63 e0       	ldi	r22, 0x03	; 3
    3f10:	70 e0       	ldi	r23, 0x00	; 0
    3f12:	40 e8       	ldi	r20, 0x80	; 128
    3f14:	0e 94 62 0c 	call	0x18c4	; 0x18c4 <beep>
			beep(500, 3, 128); //Воспроизводим звук (частота, длительность, громкость)
    3f18:	84 ef       	ldi	r24, 0xF4	; 244
    3f1a:	91 e0       	ldi	r25, 0x01	; 1
    3f1c:	63 e0       	ldi	r22, 0x03	; 3
    3f1e:	70 e0       	ldi	r23, 0x00	; 0
    3f20:	40 e8       	ldi	r20, 0x80	; 128
    3f22:	0e 94 62 0c 	call	0x18c4	; 0x18c4 <beep>
	{
		lcd_clrscr();
		lcd_puts("Ошибка датчиков,");
		lcd_gotoxy(0, 1);
		lcd_puts("Проверь повязку!");
		while (chit_detected)
    3f26:	80 91 09 03 	lds	r24, 0x0309
    3f2a:	88 23       	and	r24, r24
    3f2c:	71 f7       	brne	.-36     	; 0x3f0a <main+0x3a0>
		{
			beep(1000, 3, 128);
			beep(500, 3, 128); //Воспроизводим звук (частота, длительность, громкость)
		};
		keyboard_event=no_key_pressing;
    3f2e:	10 92 6d 03 	sts	0x036D, r1
		reload_key_event=no_key_pressing;
    3f32:	10 92 70 03 	sts	0x0370, r1
		joystick_event = no_pressing;
    3f36:	10 92 0b 03 	sts	0x030B, r1
		display_status();
    3f3a:	0e 94 2e 0e 	call	0x1c5c	; 0x1c5c <display_status>
	}

switch(keyboard_event)
    3f3e:	80 91 6d 03 	lds	r24, 0x036D
    3f42:	88 23       	and	r24, r24
    3f44:	c1 f1       	breq	.+112    	; 0x3fb6 <main+0x44c>
    3f46:	81 30       	cpi	r24, 0x01	; 1
    3f48:	a1 f5       	brne	.+104    	; 0x3fb2 <main+0x448>
	{
	 	case no_key_pressing: break;
		case key_pressing:
		{
			if (bullets > 0)
    3f4a:	80 91 1e 03 	lds	r24, 0x031E
    3f4e:	90 91 1f 03 	lds	r25, 0x031F
    3f52:	89 2b       	or	r24, r25
    3f54:	19 f1       	breq	.+70     	; 0x3f9c <main+0x432>
			{
				bullets--;//уменьшаем на 1 количество патронов		
    3f56:	80 91 1e 03 	lds	r24, 0x031E
    3f5a:	90 91 1f 03 	lds	r25, 0x031F
    3f5e:	01 97       	sbiw	r24, 0x01	; 1
    3f60:	90 93 1f 03 	sts	0x031F, r25
    3f64:	80 93 1e 03 	sts	0x031E, r24
				//last_simple = 0;//воспроизводим звук выстрела
				
				if (simples_in_queue>1) //если звук выстрла воспроизводится
    3f68:	80 91 13 03 	lds	r24, 0x0313
    3f6c:	90 91 14 03 	lds	r25, 0x0314
    3f70:	02 97       	sbiw	r24, 0x02	; 2
    3f72:	50 f0       	brcs	.+20     	; 0x3f88 <main+0x41e>
				{
					simples_in_queue=1;//закроем eeprom
    3f74:	81 e0       	ldi	r24, 0x01	; 1
    3f76:	90 e0       	ldi	r25, 0x00	; 0
    3f78:	90 93 14 03 	sts	0x0314, r25
    3f7c:	80 93 13 03 	sts	0x0313, r24
					while (eeprom_is_open);//дождемся, пока eerom закроется
    3f80:	80 91 7e 03 	lds	r24, 0x037E
    3f84:	88 23       	and	r24, r24
    3f86:	e1 f7       	brne	.-8      	; 0x3f80 <main+0x416>
				}
				 
				simples_in_queue = eeprom_read_word(&sound_1_size);
    3f88:	c3 01       	movw	r24, r6
    3f8a:	0e 94 63 28 	call	0x50c6	; 0x50c6 <__eerd_word_m32>
    3f8e:	90 93 14 03 	sts	0x0314, r25
    3f92:	80 93 13 03 	sts	0x0313, r24
				
				
				send_ir_package();		//Производим "выстрел"
    3f96:	0e 94 eb 09 	call	0x13d6	; 0x13d6 <send_ir_package>
    3f9a:	08 c0       	rjmp	.+16     	; 0x3fac <main+0x442>
			//	display_bullets_update();
				
	 		}
			else
			{
				if (simples_in_queue==0) //если звук выстрла не воспроизводится
    3f9c:	80 91 13 03 	lds	r24, 0x0313
    3fa0:	90 91 14 03 	lds	r25, 0x0314
    3fa4:	89 2b       	or	r24, r25
    3fa6:	11 f4       	brne	.+4      	; 0x3fac <main+0x442>
				{
					play_sound_5();
    3fa8:	0e 94 d1 0f 	call	0x1fa2	; 0x1fa2 <play_sound_5>
				}
			}
			keyboard_event=no_key_pressing; 
    3fac:	10 92 6d 03 	sts	0x036D, r1
    3fb0:	02 c0       	rjmp	.+4      	; 0x3fb6 <main+0x44c>
		} 
        break;
  

		default:keyboard_event=no_key_pressing;	
    3fb2:	10 92 6d 03 	sts	0x036D, r1
	}


switch(reload_key_event)
    3fb6:	80 91 70 03 	lds	r24, 0x0370
    3fba:	88 23       	and	r24, r24
    3fbc:	09 f4       	brne	.+2      	; 0x3fc0 <main+0x456>
    3fbe:	43 c0       	rjmp	.+134    	; 0x4046 <main+0x4dc>
    3fc0:	81 30       	cpi	r24, 0x01	; 1
    3fc2:	09 f0       	breq	.+2      	; 0x3fc6 <main+0x45c>
    3fc4:	3e c0       	rjmp	.+124    	; 0x4042 <main+0x4d8>
	{
	 	case no_key_pressing: break;
		case key_pressing:
		{
			if ((clips > 0)&&(simples_in_queue==0))//если обоймы не кончилсь и не воспроизводиться звук выстрела
    3fc6:	80 91 18 03 	lds	r24, 0x0318
    3fca:	88 23       	and	r24, r24
    3fcc:	b9 f1       	breq	.+110    	; 0x403c <main+0x4d2>
    3fce:	80 91 13 03 	lds	r24, 0x0313
    3fd2:	90 91 14 03 	lds	r25, 0x0314
    3fd6:	89 2b       	or	r24, r25
    3fd8:	89 f5       	brne	.+98     	; 0x403c <main+0x4d2>
			{
				playclipinsound();
    3fda:	0e 94 0a 10 	call	0x2014	; 0x2014 <playclipinsound>
				clips--;//уменьшаем на 1 количество патронов
    3fde:	80 91 18 03 	lds	r24, 0x0318
    3fe2:	81 50       	subi	r24, 0x01	; 1
    3fe4:	80 93 18 03 	sts	0x0318, r24
				bullets = eeprom_read_byte(&eeprom_bullets_in_clip);
    3fe8:	c2 01       	movw	r24, r4
    3fea:	0e 94 5b 28 	call	0x50b6	; 0x50b6 <__eerd_byte_m32>
    3fee:	90 e0       	ldi	r25, 0x00	; 0
    3ff0:	90 93 1f 03 	sts	0x031F, r25
    3ff4:	80 93 1e 03 	sts	0x031E, r24
				display_clips_update();
    3ff8:	0e 94 8a 0e 	call	0x1d14	; 0x1d14 <display_clips_update>
				display_bullets_update();
    3ffc:	0e 94 78 0e 	call	0x1cf0	; 0x1cf0 <display_bullets_update>
    4000:	00 e0       	ldi	r16, 0x00	; 0
    4002:	10 e0       	ldi	r17, 0x00	; 0
    4004:	0d c0       	rjmp	.+26     	; 0x4020 <main+0x4b6>
				for (int i=0; i< eeprom_read_byte(&eeprom_reload_duration); i++){
				timer2 = 0;
    4006:	10 92 17 03 	sts	0x0317, r1
    400a:	10 92 16 03 	sts	0x0316, r1
				while (timer2 < 8000);
    400e:	80 91 16 03 	lds	r24, 0x0316
    4012:	90 91 17 03 	lds	r25, 0x0317
    4016:	80 54       	subi	r24, 0x40	; 64
    4018:	9f 41       	sbci	r25, 0x1F	; 31
    401a:	c8 f3       	brcs	.-14     	; 0x400e <main+0x4a4>
				playclipinsound();
				clips--;//уменьшаем на 1 количество патронов
				bullets = eeprom_read_byte(&eeprom_bullets_in_clip);
				display_clips_update();
				display_bullets_update();
				for (int i=0; i< eeprom_read_byte(&eeprom_reload_duration); i++){
    401c:	0f 5f       	subi	r16, 0xFF	; 255
    401e:	1f 4f       	sbci	r17, 0xFF	; 255
    4020:	c6 01       	movw	r24, r12
    4022:	0e 94 5b 28 	call	0x50b6	; 0x50b6 <__eerd_byte_m32>
    4026:	90 e0       	ldi	r25, 0x00	; 0
    4028:	08 17       	cp	r16, r24
    402a:	19 07       	cpc	r17, r25
    402c:	64 f3       	brlt	.-40     	; 0x4006 <main+0x49c>
				timer2 = 0;
				while (timer2 < 8000);
				}
				//while (timer1 < 10000);
				playclipoutsound();
    402e:	0e 94 f5 0f 	call	0x1fea	; 0x1fea <playclipoutsound>
				BULLETS_OUT_LED_OFF;
    4032:	eb e3       	ldi	r30, 0x3B	; 59
    4034:	f0 e0       	ldi	r31, 0x00	; 0
    4036:	80 81       	ld	r24, Z
    4038:	8e 7f       	andi	r24, 0xFE	; 254
    403a:	80 83       	st	Z, r24
		//		last_simple = 0;//воспроизводим звук выстрела
		//		send_ir_package();		//Производим "выстрел"
				
	 		}
			reload_key_event=no_key_pressing; 
    403c:	10 92 70 03 	sts	0x0370, r1
    4040:	02 c0       	rjmp	.+4      	; 0x4046 <main+0x4dc>
		} 
        break;
  

		default:reload_key_event=no_key_pressing;	
    4042:	10 92 70 03 	sts	0x0370, r1
	}


	{
		switch(rx_event)//выясним, какое именно событие произошло
    4046:	80 91 1c 03 	lds	r24, 0x031C
    404a:	81 30       	cpi	r24, 0x01	; 1
    404c:	21 f0       	breq	.+8      	; 0x4056 <main+0x4ec>
    404e:	82 30       	cpi	r24, 0x02	; 2
    4050:	09 f0       	breq	.+2      	; 0x4054 <main+0x4ea>
    4052:	7a c1       	rjmp	.+756    	; 0x4348 <main+0x7de>
    4054:	62 c1       	rjmp	.+708    	; 0x431a <main+0x7b0>
							timer1=0;
							while(timer1 < 35000);
							WOUND_LED_OFF;	//выключаем вспомогательный светодиод
						************************************************************/
							
							rx_event = NOT_EVENT;	
    4056:	10 92 1c 03 	sts	0x031C, r1
							if(!get_buffer_bit(0)) //если этот бит равен 0, то это пакет с данными (выстрел)
    405a:	80 e0       	ldi	r24, 0x00	; 0
    405c:	0e 94 d7 0b 	call	0x17ae	; 0x17ae <get_buffer_bit>
    4060:	88 23       	and	r24, r24
    4062:	09 f0       	breq	.+2      	; 0x4066 <main+0x4fc>
    4064:	71 c1       	rjmp	.+738    	; 0x4348 <main+0x7de>

inline trx_packet get_packet_value(){ //Считываем данные из полученного пакета
trx_packet result;
uint8_t byte_tmp;

result.player_id = rx_buffer[0];
    4066:	f1 01       	movw	r30, r2
    4068:	90 81       	ld	r25, Z
byte_tmp = rx_buffer[1];
    406a:	ad 81       	ldd	r26, Y+5	; 0x05
    406c:	be 81       	ldd	r27, Y+6	; 0x06
    406e:	8c 91       	ld	r24, X
byte_tmp = byte_tmp << 2; //избавляемся от бит цвета команды
    4070:	88 0f       	add	r24, r24
    4072:	88 0f       	add	r24, r24
byte_tmp = byte_tmp >> 4;
result.damage = pgm_read_byte(&(damage_value[byte_tmp]));
    4074:	82 95       	swap	r24
    4076:	8f 70       	andi	r24, 0x0F	; 15
    4078:	e5 e1       	ldi	r30, 0x15	; 21
    407a:	f7 e0       	ldi	r31, 0x07	; 7
    407c:	e8 0f       	add	r30, r24
    407e:	f1 1d       	adc	r31, r1
    4080:	e4 91       	lpm	r30, Z+
result.team_id = rx_buffer[1]>>6;
    4082:	8c 91       	ld	r24, X
    4084:	99 83       	std	Y+1, r25	; 0x01
    4086:	eb 83       	std	Y+3, r30	; 0x03
    4088:	82 95       	swap	r24
    408a:	86 95       	lsr	r24
    408c:	86 95       	lsr	r24
    408e:	83 70       	andi	r24, 0x03	; 3
    4090:	8a 83       	std	Y+2, r24	; 0x02
							if(!get_buffer_bit(0)) //если этот бит равен 0, то это пакет с данными (выстрел)
							{
						
								
	//							uint8_t player_id;
								rx_packet = get_packet_value();
    4092:	a7 e7       	ldi	r26, 0x77	; 119
    4094:	b3 e0       	ldi	r27, 0x03	; 3
    4096:	fe 01       	movw	r30, r28
    4098:	31 96       	adiw	r30, 0x01	; 1
    409a:	83 e0       	ldi	r24, 0x03	; 3
    409c:	01 90       	ld	r0, Z+
    409e:	0d 92       	st	X+, r0
    40a0:	81 50       	subi	r24, 0x01	; 1
    40a2:	e1 f7       	brne	.-8      	; 0x409c <main+0x532>
//								volatile int gg;
//								gg++;

								if ((rx_packet.team_id != team_id())||(eeprom_read_byte(&friendly_fire_enable)&&(rx_packet.player_id != eeprom_read_byte(&eeprom_player_id))))//"пуля" прилетела от игрока другой, не нашей, команды
    40a4:	e8 e7       	ldi	r30, 0x78	; 120
    40a6:	f3 e0       	ldi	r31, 0x03	; 3
    40a8:	10 81       	ld	r17, Z
    40aa:	0e 94 ed 12 	call	0x25da	; 0x25da <team_id>
    40ae:	18 17       	cp	r17, r24
    40b0:	89 f4       	brne	.+34     	; 0x40d4 <main+0x56a>
    40b2:	8a e2       	ldi	r24, 0x2A	; 42
    40b4:	90 e0       	ldi	r25, 0x00	; 0
    40b6:	0e 94 5b 28 	call	0x50b6	; 0x50b6 <__eerd_byte_m32>
    40ba:	88 23       	and	r24, r24
    40bc:	09 f4       	brne	.+2      	; 0x40c0 <main+0x556>
    40be:	44 c1       	rjmp	.+648    	; 0x4348 <main+0x7de>
    40c0:	a7 e7       	ldi	r26, 0x77	; 119
    40c2:	b3 e0       	ldi	r27, 0x03	; 3
    40c4:	1c 91       	ld	r17, X
    40c6:	81 e0       	ldi	r24, 0x01	; 1
    40c8:	90 e0       	ldi	r25, 0x00	; 0
    40ca:	0e 94 5b 28 	call	0x50b6	; 0x50b6 <__eerd_byte_m32>
    40ce:	18 17       	cp	r17, r24
    40d0:	09 f4       	brne	.+2      	; 0x40d4 <main+0x56a>
    40d2:	3a c1       	rjmp	.+628    	; 0x4348 <main+0x7de>
								{
									WOUND_LED_ON; //включаем вспомогательный светодиод						
    40d4:	f7 01       	movw	r30, r14
    40d6:	80 81       	ld	r24, Z
    40d8:	80 61       	ori	r24, 0x10	; 16
    40da:	80 83       	st	Z, r24
									lcd_bl_on();
    40dc:	0e 94 1b 05 	call	0xa36	; 0xa36 <lcd_bl_on>
									display_hit_data();
    40e0:	0e 94 b7 0e 	call	0x1d6e	; 0x1d6e <display_hit_data>
									playhitsound();
    40e4:	0e 94 1f 10 	call	0x203e	; 0x203e <playhitsound>

									WOUND_LED_OFF;
    40e8:	d7 01       	movw	r26, r14
    40ea:	8c 91       	ld	r24, X
    40ec:	8f 7e       	andi	r24, 0xEF	; 239
    40ee:	8c 93       	st	X, r24





								if (life_in_percent > rx_packet.damage) 
    40f0:	e9 e7       	ldi	r30, 0x79	; 121
    40f2:	f3 e0       	ldi	r31, 0x03	; 3
    40f4:	80 81       	ld	r24, Z
    40f6:	20 91 6b 03 	lds	r18, 0x036B
    40fa:	30 91 6c 03 	lds	r19, 0x036C
    40fe:	90 e0       	ldi	r25, 0x00	; 0
    4100:	82 17       	cp	r24, r18
    4102:	93 07       	cpc	r25, r19
    4104:	8c f5       	brge	.+98     	; 0x4168 <main+0x5fe>
									{
										life_in_percent = life_in_percent-rx_packet.damage;
    4106:	80 91 6b 03 	lds	r24, 0x036B
    410a:	90 91 6c 03 	lds	r25, 0x036C
    410e:	20 81       	ld	r18, Z
    4110:	82 1b       	sub	r24, r18
    4112:	91 09       	sbc	r25, r1
    4114:	90 93 6c 03 	sts	0x036C, r25
    4118:	80 93 6b 03 	sts	0x036B, r24
										life = (life_in_percent*10)/125;
    411c:	20 91 6b 03 	lds	r18, 0x036B
    4120:	30 91 6c 03 	lds	r19, 0x036C
    4124:	c9 01       	movw	r24, r18
    4126:	88 0f       	add	r24, r24
    4128:	99 1f       	adc	r25, r25
    412a:	22 0f       	add	r18, r18
    412c:	33 1f       	adc	r19, r19
    412e:	22 0f       	add	r18, r18
    4130:	33 1f       	adc	r19, r19
    4132:	22 0f       	add	r18, r18
    4134:	33 1f       	adc	r19, r19
    4136:	82 0f       	add	r24, r18
    4138:	93 1f       	adc	r25, r19
    413a:	6d e7       	ldi	r22, 0x7D	; 125
    413c:	70 e0       	ldi	r23, 0x00	; 0
    413e:	0e 94 22 28 	call	0x5044	; 0x5044 <__divmodhi4>
    4142:	60 93 72 03 	sts	0x0372, r22
										if ((life==0)&&(life_in_percent>0)) life=1;
    4146:	80 91 72 03 	lds	r24, 0x0372
    414a:	88 23       	and	r24, r24
    414c:	09 f0       	breq	.+2      	; 0x4150 <main+0x5e6>
    414e:	dc c0       	rjmp	.+440    	; 0x4308 <main+0x79e>
    4150:	80 91 6b 03 	lds	r24, 0x036B
    4154:	90 91 6c 03 	lds	r25, 0x036C
    4158:	18 16       	cp	r1, r24
    415a:	19 06       	cpc	r1, r25
    415c:	0c f0       	brlt	.+2      	; 0x4160 <main+0x5f6>
    415e:	d4 c0       	rjmp	.+424    	; 0x4308 <main+0x79e>
    4160:	81 e0       	ldi	r24, 0x01	; 1
    4162:	80 93 72 03 	sts	0x0372, r24
    4166:	d0 c0       	rjmp	.+416    	; 0x4308 <main+0x79e>

									}
									else 
									{	
										life = 0;
    4168:	10 92 72 03 	sts	0x0372, r1
										life_in_percent=0;
    416c:	10 92 6c 03 	sts	0x036C, r1
    4170:	10 92 6b 03 	sts	0x036B, r1
										WOUND_LED_ON;
    4174:	d7 01       	movw	r26, r14
    4176:	8c 91       	ld	r24, X
    4178:	80 61       	ori	r24, 0x10	; 16
    417a:	8c 93       	st	X, r24
										display_life(life);//отобразим уровень жизни на диодах
    417c:	80 91 72 03 	lds	r24, 0x0372
    4180:	0e 94 2e 0c 	call	0x185c	; 0x185c <display_life>
										display_life_update();//отобразим уровень жизни на ЖКИ
    4184:	0e 94 66 0e 	call	0x1ccc	; 0x1ccc <display_life_update>
										volatile uint8_t keypress_cntr; //счетчик циклов, в течении которых курок был нажат
										keypress_cntr = 0;
    4188:	1c 82       	std	Y+4, r1	; 0x04
										
										
										
										if ((eeprom_read_byte(&eeprom_tm_serial_num.device_code)!=0)&&(eeprom_read_byte(&eeprom_tm_serial_num.device_code)!=0xFF))
    418a:	8b e0       	ldi	r24, 0x0B	; 11
    418c:	90 e0       	ldi	r25, 0x00	; 0
    418e:	0e 94 5b 28 	call	0x50b6	; 0x50b6 <__eerd_byte_m32>
    4192:	88 23       	and	r24, r24
    4194:	09 f4       	brne	.+2      	; 0x4198 <main+0x62e>
    4196:	80 c0       	rjmp	.+256    	; 0x4298 <main+0x72e>
    4198:	8b e0       	ldi	r24, 0x0B	; 11
    419a:	90 e0       	ldi	r25, 0x00	; 0
    419c:	0e 94 5b 28 	call	0x50b6	; 0x50b6 <__eerd_byte_m32>
    41a0:	8f 3f       	cpi	r24, 0xFF	; 255
    41a2:	09 f4       	brne	.+2      	; 0x41a6 <main+0x63c>
    41a4:	79 c0       	rjmp	.+242    	; 0x4298 <main+0x72e>

										/*если ТМ ключ уже занесён в память*/
										{

											joystick_event=no_pressing;
    41a6:	10 92 0b 03 	sts	0x030B, r1
											keyboard_event=no_key_pressing;
    41aa:	10 92 6d 03 	sts	0x036D, r1
											tm_event=no_tm_event;
    41ae:	10 92 ff 02 	sts	0x02FF, r1
											uint8_t tm_valide;
											tm_valide=0;
											lcd_bl_off();
    41b2:	0e 94 23 05 	call	0xa46	; 0xa46 <lcd_bl_off>
												lcd_puts("Для активации");
												lcd_gotoxy(0, 1);
												lcd_puts("приложите ключ");
												while (tm_event == no_tm_event)
												{
													WOUND_LED_INVERT;
    41b6:	10 e1       	ldi	r17, 0x10	; 16
											lcd_bl_off();
											
											
											while (!tm_valide)
											{//[while]
												lcd_clrscr();
    41b8:	0e 94 a0 04 	call	0x940	; 0x940 <lcd_clrscr>
												lcd_home();
    41bc:	0e 94 02 05 	call	0xa04	; 0xa04 <lcd_home>
												lcd_puts("Для активации");
    41c0:	81 ec       	ldi	r24, 0xC1	; 193
    41c2:	92 e0       	ldi	r25, 0x02	; 2
    41c4:	0e 94 df 04 	call	0x9be	; 0x9be <lcd_puts>
												lcd_gotoxy(0, 1);
    41c8:	80 e0       	ldi	r24, 0x00	; 0
    41ca:	61 e0       	ldi	r22, 0x01	; 1
    41cc:	0e 94 ef 04 	call	0x9de	; 0x9de <lcd_gotoxy>
												lcd_puts("приложите ключ");
    41d0:	8f ec       	ldi	r24, 0xCF	; 207
    41d2:	92 e0       	ldi	r25, 0x02	; 2
    41d4:	0e 94 df 04 	call	0x9be	; 0x9be <lcd_puts>
    41d8:	0f c0       	rjmp	.+30     	; 0x41f8 <main+0x68e>
												while (tm_event == no_tm_event)
												{
													WOUND_LED_INVERT;
    41da:	f7 01       	movw	r30, r14
    41dc:	80 81       	ld	r24, Z
    41de:	81 27       	eor	r24, r17
    41e0:	80 83       	st	Z, r24
													timer2 = 0;
    41e2:	10 92 17 03 	sts	0x0317, r1
    41e6:	10 92 16 03 	sts	0x0316, r1
													while (timer2 < 1000);	
    41ea:	80 91 16 03 	lds	r24, 0x0316
    41ee:	90 91 17 03 	lds	r25, 0x0317
    41f2:	88 5e       	subi	r24, 0xE8	; 232
    41f4:	93 40       	sbci	r25, 0x03	; 3
    41f6:	c8 f3       	brcs	.-14     	; 0x41ea <main+0x680>
												lcd_clrscr();
												lcd_home();
												lcd_puts("Для активации");
												lcd_gotoxy(0, 1);
												lcd_puts("приложите ключ");
												while (tm_event == no_tm_event)
    41f8:	80 91 ff 02 	lds	r24, 0x02FF
    41fc:	88 23       	and	r24, r24
    41fe:	69 f3       	breq	.-38     	; 0x41da <main+0x670>
													WOUND_LED_INVERT;
													timer2 = 0;
													while (timer2 < 1000);	
												
												};
												switch(tm_event)
    4200:	80 91 ff 02 	lds	r24, 0x02FF
    4204:	81 30       	cpi	r24, 0x01	; 1
    4206:	c1 f0       	breq	.+48     	; 0x4238 <main+0x6ce>
    4208:	82 30       	cpi	r24, 0x02	; 2
    420a:	b1 f6       	brne	.-84     	; 0x41b8 <main+0x64e>
													}
													break;
					
													case tm_crc_error: 
													{
														lcd_clrscr();
    420c:	0e 94 a0 04 	call	0x940	; 0x940 <lcd_clrscr>
														lcd_home();
    4210:	0e 94 02 05 	call	0xa04	; 0xa04 <lcd_home>
														lcd_puts("Ошибка CRC");
    4214:	8e ec       	ldi	r24, 0xCE	; 206
    4216:	91 e0       	ldi	r25, 0x01	; 1
    4218:	0e 94 df 04 	call	0x9be	; 0x9be <lcd_puts>
														timer2 = 0;
    421c:	10 92 17 03 	sts	0x0317, r1
    4220:	10 92 16 03 	sts	0x0316, r1
														while (timer2 < 6000){};
    4224:	80 91 16 03 	lds	r24, 0x0316
    4228:	90 91 17 03 	lds	r25, 0x0317
    422c:	80 57       	subi	r24, 0x70	; 112
    422e:	97 41       	sbci	r25, 0x17	; 23
    4230:	c8 f3       	brcs	.-14     	; 0x4224 <main+0x6ba>
														tm_event=no_tm_event;
    4232:	10 92 ff 02 	sts	0x02FF, r1
    4236:	c0 cf       	rjmp	.-128    	; 0x41b8 <main+0x64e>
													break;

													case tm_crc_ok: 
													{
					
														if (tm_verification()) 	
    4238:	0e 94 f2 12 	call	0x25e4	; 0x25e4 <tm_verification>
    423c:	88 23       	and	r24, r24
    423e:	b1 f0       	breq	.+44     	; 0x426c <main+0x702>
														{ 	tm_valide=1;
															lcd_clrscr();
    4240:	0e 94 a0 04 	call	0x940	; 0x940 <lcd_clrscr>
															lcd_home();
    4244:	0e 94 02 05 	call	0xa04	; 0xa04 <lcd_home>
															lcd_puts("Удачи!");
    4248:	86 e2       	ldi	r24, 0x26	; 38
    424a:	92 e0       	ldi	r25, 0x02	; 2
    424c:	0e 94 df 04 	call	0x9be	; 0x9be <lcd_puts>
															timer2 = 0;
    4250:	10 92 17 03 	sts	0x0317, r1
    4254:	10 92 16 03 	sts	0x0316, r1
															while (timer2 < 6000){};
    4258:	80 91 16 03 	lds	r24, 0x0316
    425c:	90 91 17 03 	lds	r25, 0x0317
    4260:	80 57       	subi	r24, 0x70	; 112
    4262:	97 41       	sbci	r25, 0x17	; 23
    4264:	c8 f3       	brcs	.-14     	; 0x4258 <main+0x6ee>
				
															tm_event=no_tm_event;
    4266:	10 92 ff 02 	sts	0x02FF, r1
    426a:	42 c0       	rjmp	.+132    	; 0x42f0 <main+0x786>
															break;
														}	
														lcd_clrscr();
    426c:	0e 94 a0 04 	call	0x940	; 0x940 <lcd_clrscr>
														lcd_home();
    4270:	0e 94 02 05 	call	0xa04	; 0xa04 <lcd_home>
														lcd_puts("Не тот ключ");
    4274:	8d e2       	ldi	r24, 0x2D	; 45
    4276:	92 e0       	ldi	r25, 0x02	; 2
    4278:	0e 94 df 04 	call	0x9be	; 0x9be <lcd_puts>
														timer2 = 0;
    427c:	10 92 17 03 	sts	0x0317, r1
    4280:	10 92 16 03 	sts	0x0316, r1
														while (timer2 < 6000){};
    4284:	80 91 16 03 	lds	r24, 0x0316
    4288:	90 91 17 03 	lds	r25, 0x0317
    428c:	80 57       	subi	r24, 0x70	; 112
    428e:	97 41       	sbci	r25, 0x17	; 23
    4290:	c8 f3       	brcs	.-14     	; 0x4284 <main+0x71a>
														lcd_home();
														lcd_puts("Для активации");
														lcd_gotoxy(0, 1);
														lcd_puts("приложи ключ");
													*/
														tm_event=no_tm_event;
    4292:	10 92 ff 02 	sts	0x02FF, r1
    4296:	90 cf       	rjmp	.-224    	; 0x41b8 <main+0x64e>
										}//end if
									
									else
									{
										
										lcd_bl_off();
    4298:	0e 94 23 05 	call	0xa46	; 0xa46 <lcd_bl_off>
										display_status();
    429c:	0e 94 2e 0e 	call	0x1c5c	; 0x1c5c <display_status>
										while(keypress_cntr < 20)
										{
											WOUND_LED_INVERT;
    42a0:	40 e1       	ldi	r20, 0x10	; 16
											timer2 = 0;
											while (timer2 < 1000);
											switch (FIRE_KEY_IN&FIRE_KEY_PIN) //проверяем, нажат ли курок
    42a2:	e6 e3       	ldi	r30, 0x36	; 54
    42a4:	f0 e0       	ldi	r31, 0x00	; 0
    42a6:	21 c0       	rjmp	.+66     	; 0x42ea <main+0x780>
										
										lcd_bl_off();
										display_status();
										while(keypress_cntr < 20)
										{
											WOUND_LED_INVERT;
    42a8:	d7 01       	movw	r26, r14
    42aa:	8c 91       	ld	r24, X
    42ac:	84 27       	eor	r24, r20
    42ae:	8c 93       	st	X, r24
											timer2 = 0;
    42b0:	10 92 17 03 	sts	0x0317, r1
    42b4:	10 92 16 03 	sts	0x0316, r1
											while (timer2 < 1000);
    42b8:	80 91 16 03 	lds	r24, 0x0316
    42bc:	90 91 17 03 	lds	r25, 0x0317
    42c0:	88 5e       	subi	r24, 0xE8	; 232
    42c2:	93 40       	sbci	r25, 0x03	; 3
    42c4:	c8 f3       	brcs	.-14     	; 0x42b8 <main+0x74e>
											switch (FIRE_KEY_IN&FIRE_KEY_PIN) //проверяем, нажат ли курок
    42c6:	80 81       	ld	r24, Z
    42c8:	90 e0       	ldi	r25, 0x00	; 0
    42ca:	9c 01       	movw	r18, r24
    42cc:	24 70       	andi	r18, 0x04	; 4
    42ce:	30 70       	andi	r19, 0x00	; 0
    42d0:	82 ff       	sbrs	r24, 2
    42d2:	04 c0       	rjmp	.+8      	; 0x42dc <main+0x772>
    42d4:	24 30       	cpi	r18, 0x04	; 4
    42d6:	31 05       	cpc	r19, r1
    42d8:	39 f4       	brne	.+14     	; 0x42e8 <main+0x77e>
    42da:	04 c0       	rjmp	.+8      	; 0x42e4 <main+0x77a>
											{
												case 0:  keypress_cntr++ ; break;
    42dc:	8c 81       	ldd	r24, Y+4	; 0x04
    42de:	8f 5f       	subi	r24, 0xFF	; 255
    42e0:	8c 83       	std	Y+4, r24	; 0x04
    42e2:	03 c0       	rjmp	.+6      	; 0x42ea <main+0x780>
												case FIRE_KEY_PIN: keypress_cntr = 0; break;
    42e4:	1c 82       	std	Y+4, r1	; 0x04
    42e6:	01 c0       	rjmp	.+2      	; 0x42ea <main+0x780>
												default: keypress_cntr = 0;	
    42e8:	1c 82       	std	Y+4, r1	; 0x04
									else
									{
										
										lcd_bl_off();
										display_status();
										while(keypress_cntr < 20)
    42ea:	8c 81       	ldd	r24, Y+4	; 0x04
    42ec:	84 31       	cpi	r24, 0x14	; 20
    42ee:	e0 f2       	brcs	.-72     	; 0x42a8 <main+0x73e>
										}

									}	
										
										
										WOUND_LED_OFF;
    42f0:	f7 01       	movw	r30, r14
    42f2:	80 81       	ld	r24, Z
    42f4:	8f 7e       	andi	r24, 0xEF	; 239
    42f6:	80 83       	st	Z, r24
										init_var();//"оживаем" - начинаем новую игру
    42f8:	0e 94 d0 18 	call	0x31a0	; 0x31a0 <init_var>
										joystick_event=no_pressing;
    42fc:	10 92 0b 03 	sts	0x030B, r1
										keyboard_event=no_key_pressing;
    4300:	10 92 6d 03 	sts	0x036D, r1
										tm_event=no_tm_event;
    4304:	10 92 ff 02 	sts	0x02FF, r1
									//	display_status();
									}
								
								display_life(life);//отобразим уровень жизни на диодах
    4308:	80 91 72 03 	lds	r24, 0x0372
    430c:	0e 94 2e 0c 	call	0x185c	; 0x185c <display_life>
//								display_life_update();//отобразим уровень жизни на ЖКИ
								lcd_bl_off();
    4310:	0e 94 23 05 	call	0xa46	; 0xa46 <lcd_bl_off>
								display_status();
    4314:	0e 94 2e 0e 	call	0x1c5c	; 0x1c5c <display_status>
    4318:	17 c0       	rjmp	.+46     	; 0x4348 <main+0x7de>
						}
						
						case RX_ERROR:		//ошибка приема
						{
						//	cli();
							BULLETS_OUT_LED_ON;
    431a:	eb e3       	ldi	r30, 0x3B	; 59
    431c:	f0 e0       	ldi	r31, 0x00	; 0
    431e:	80 81       	ld	r24, Z
    4320:	81 60       	ori	r24, 0x01	; 1
    4322:	80 83       	st	Z, r24
							timer2=0;
    4324:	10 92 17 03 	sts	0x0317, r1
    4328:	10 92 16 03 	sts	0x0316, r1
							while(timer2 < 4000);
    432c:	80 91 16 03 	lds	r24, 0x0316
    4330:	90 91 17 03 	lds	r25, 0x0317
    4334:	80 5a       	subi	r24, 0xA0	; 160
    4336:	9f 40       	sbci	r25, 0x0F	; 15
    4338:	c8 f3       	brcs	.-14     	; 0x432c <main+0x7c2>
							BULLETS_OUT_LED_OFF;
    433a:	eb e3       	ldi	r30, 0x3B	; 59
    433c:	f0 e0       	ldi	r31, 0x00	; 0
    433e:	80 81       	ld	r24, Z
    4340:	8e 7f       	andi	r24, 0xFE	; 254
    4342:	80 83       	st	Z, r24
							rx_event = NOT_EVENT;	
    4344:	10 92 1c 03 	sts	0x031C, r1
	}

//	timer1=0;				//Сделаем паузу
//	while(timer1 < 65000);	//Подождем, пока не произойдет 65000 прерываний таймера (чуть меньше секунды)

	switch(joystick_event)
    4348:	80 91 0b 03 	lds	r24, 0x030B
    434c:	83 30       	cpi	r24, 0x03	; 3
    434e:	f9 f0       	breq	.+62     	; 0x438e <main+0x824>
    4350:	84 30       	cpi	r24, 0x04	; 4
    4352:	28 f4       	brcc	.+10     	; 0x435e <main+0x7f4>
    4354:	81 30       	cpi	r24, 0x01	; 1
    4356:	41 f0       	breq	.+16     	; 0x4368 <main+0x7fe>
    4358:	82 30       	cpi	r24, 0x02	; 2
    435a:	11 f5       	brne	.+68     	; 0x43a0 <main+0x836>
    435c:	15 c0       	rjmp	.+42     	; 0x4388 <main+0x81e>
    435e:	84 30       	cpi	r24, 0x04	; 4
    4360:	c9 f0       	breq	.+50     	; 0x4394 <main+0x82a>
    4362:	85 30       	cpi	r24, 0x05	; 5
    4364:	e9 f4       	brne	.+58     	; 0x43a0 <main+0x836>
    4366:	19 c0       	rjmp	.+50     	; 0x439a <main+0x830>
			uint16_t batt_voltage;
			adc_data=ReadADC(ADC_CHANNEL);
			adc_data=(adc_data/4)*7.5;
			display_voltage_update(adc_data);
		*/
			switch(display_batt_mode)
    4368:	80 91 7f 03 	lds	r24, 0x037F
    436c:	88 23       	and	r24, r24
    436e:	19 f0       	breq	.+6      	; 0x4376 <main+0x80c>
    4370:	81 30       	cpi	r24, 0x01	; 1
    4372:	39 f4       	brne	.+14     	; 0x4382 <main+0x818>
    4374:	04 c0       	rjmp	.+8      	; 0x437e <main+0x814>
			{
				case icon: display_batt_mode=digit;
    4376:	81 e0       	ldi	r24, 0x01	; 1
    4378:	80 93 7f 03 	sts	0x037F, r24
    437c:	02 c0       	rjmp	.+4      	; 0x4382 <main+0x818>
				break;
				case digit: display_batt_mode=icon;
    437e:	10 92 7f 03 	sts	0x037F, r1
			
			}
			
			
			
			joystick_event = no_pressing;
    4382:	10 92 0b 03 	sts	0x030B, r1
    4386:	0e c0       	rjmp	.+28     	; 0x43a4 <main+0x83a>
//			if ((result)<max_value) result++;
//			lcd_gotoxy(0, 1);
//			lcd_puts(int_to_str(pgm_read_byte(arr_adress+result),3));
			//lcd_puts("Нажата кнопка \n");
			//lcd_puts("Вправо");
			joystick_event = no_pressing;
    4388:	10 92 0b 03 	sts	0x030B, r1
    438c:	0b c0       	rjmp	.+22     	; 0x43a4 <main+0x83a>
	//		lcd_clrscr();
	//		lcd_gotoxy(0, 0);
	//		if((result-9)>0) result=result-10;
	//		lcd_gotoxy(0, 1);
	//		lcd_puts(int_to_str(result,3));
			joystick_event = no_pressing;
    438e:	10 92 0b 03 	sts	0x030B, r1
    4392:	08 c0       	rjmp	.+16     	; 0x43a4 <main+0x83a>
//			if ((result)>0) result--;
			//lcd_puts("Нажата кнопка \n");
			//lcd_puts("Влево");
//			lcd_gotoxy(0, 1);
//			lcd_puts(int_to_str(pgm_read_byte(arr_adress+result),3));
			joystick_event = no_pressing;
    4394:	10 92 0b 03 	sts	0x030B, r1
    4398:	05 c0       	rjmp	.+10     	; 0x43a4 <main+0x83a>
			}
		break;
		case key_central_pressing: 
			{
			joystick_event = no_pressing;
    439a:	10 92 0b 03 	sts	0x030B, r1
    439e:	02 c0       	rjmp	.+4      	; 0x43a4 <main+0x83a>
			}
		break;
		default: joystick_event = no_pressing;
    43a0:	10 92 0b 03 	sts	0x030B, r1
	
	
		}
	
	if (display_bullets_update_now>0) 
    43a4:	80 91 69 03 	lds	r24, 0x0369
    43a8:	88 23       	and	r24, r24
    43aa:	09 f4       	brne	.+2      	; 0x43ae <main+0x844>
    43ac:	92 cd       	rjmp	.-1244   	; 0x3ed2 <main+0x368>
		{
			display_bullets_update();
    43ae:	0e 94 78 0e 	call	0x1cf0	; 0x1cf0 <display_bullets_update>
			display_bullets_update_now--;
    43b2:	80 91 69 03 	lds	r24, 0x0369
    43b6:	81 50       	subi	r24, 0x01	; 1
    43b8:	80 93 69 03 	sts	0x0369, r24
    43bc:	8a cd       	rjmp	.-1260   	; 0x3ed2 <main+0x368>

000043be <__vector_4>:
//#include "hitraw.h"
/**************************************************************************************
* Обработчик прерываний таймера
***************************************************************************************/

ISR(TIMER2_COMP_vect){
    43be:	1f 92       	push	r1
    43c0:	0f 92       	push	r0
    43c2:	0f b6       	in	r0, 0x3f	; 63
    43c4:	0f 92       	push	r0
    43c6:	11 24       	eor	r1, r1
    43c8:	2f 93       	push	r18
    43ca:	8f 93       	push	r24
    43cc:	9f 93       	push	r25
    43ce:	ef 93       	push	r30
    43d0:	ff 93       	push	r31
//timer1++;
static volatile uint8_t prt;


prt = TSOP_IN&TSOP_PIN; 
    43d2:	80 b3       	in	r24, 0x10	; 16
    43d4:	84 70       	andi	r24, 0x04	; 4
    43d6:	80 93 ef 02 	sts	0x02EF, r24
if (prt==0) //На ножке ИК-приемника низкий уровень сигнала (пойман сигнал несущей)
    43da:	80 91 ef 02 	lds	r24, 0x02EF
    43de:	88 23       	and	r24, r24
    43e0:	51 f4       	brne	.+20     	; 0x43f6 <__vector_4+0x38>
	{
	//	PORTA &= ~(1 << 0); //включаем вспомогательный светодиод
		low_level_counter++;//Увеличиваем счетчик длительности низкоуровнего сигнала на ножке ИК-приемника
    43e2:	80 91 0c 03 	lds	r24, 0x030C
    43e6:	90 91 0d 03 	lds	r25, 0x030D
    43ea:	01 96       	adiw	r24, 0x01	; 1
    43ec:	90 93 0d 03 	sts	0x030D, r25
    43f0:	80 93 0c 03 	sts	0x030C, r24
    43f4:	40 c0       	rjmp	.+128    	; 0x4476 <__vector_4+0xb8>
else  //На ножке ИК-приемника высокий уровень сигнала (пойман сигнал несущей)
	{
	//	PORTA |=(1<<0);	//выключаем вспомогательный светодиод
// //		chit_detected_counter = 0;
// //		if (chit_detected) chit_detected=false;
		high_level_counter++;///Увеличиваем счетчик длительности высокоуровнего сигнала на ножке ИК-приемника
    43f6:	80 91 7c 03 	lds	r24, 0x037C
    43fa:	90 91 7d 03 	lds	r25, 0x037D
    43fe:	01 96       	adiw	r24, 0x01	; 1
    4400:	90 93 7d 03 	sts	0x037D, r25
    4404:	80 93 7c 03 	sts	0x037C, r24
		if((start_bit_received)&&(high_level_counter > IR_ZERO*8)/*&&(bit_in_rx_buff>=13)*/)
    4408:	80 91 15 03 	lds	r24, 0x0315
    440c:	88 23       	and	r24, r24
    440e:	09 f1       	breq	.+66     	; 0x4452 <__vector_4+0x94>
    4410:	80 91 7c 03 	lds	r24, 0x037C
    4414:	90 91 7d 03 	lds	r25, 0x037D
    4418:	89 51       	subi	r24, 0x19	; 25
    441a:	92 40       	sbci	r25, 0x02	; 2
    441c:	d0 f0       	brcs	.+52     	; 0x4452 <__vector_4+0x94>
		{//Фиксируем окончание приема по таймауту
			start_bit_received	= false; 	//отменяем прием
    441e:	10 92 15 03 	sts	0x0315, r1
			if (bit_in_rx_buff>=13) rx_event = RX_COMPLETE;			//Генерим событие "принят пакет"
    4422:	80 91 86 03 	lds	r24, 0x0386
    4426:	90 91 87 03 	lds	r25, 0x0387
    442a:	0d 97       	sbiw	r24, 0x0d	; 13
    442c:	20 f0       	brcs	.+8      	; 0x4436 <__vector_4+0x78>
    442e:	81 e0       	ldi	r24, 0x01	; 1
    4430:	80 93 1c 03 	sts	0x031C, r24
    4434:	03 c0       	rjmp	.+6      	; 0x443c <__vector_4+0x7e>
			else rx_event = RX_ERROR;			//генерируем событие - "ошибка приёма"
    4436:	82 e0       	ldi	r24, 0x02	; 2
    4438:	80 93 1c 03 	sts	0x031C, r24
			
			receiver_on = false;//выключаем приемник
    443c:	10 92 1d 03 	sts	0x031D, r1
			if (ir_transmitter_on==false) TIMSK &=~_BV(OCIE2); //если передача не ведётся - выключаем прерывания
    4440:	80 91 0a 03 	lds	r24, 0x030A
    4444:	88 23       	and	r24, r24
    4446:	29 f4       	brne	.+10     	; 0x4452 <__vector_4+0x94>
    4448:	e9 e5       	ldi	r30, 0x59	; 89
    444a:	f0 e0       	ldi	r31, 0x00	; 0
    444c:	80 81       	ld	r24, Z
    444e:	8f 77       	andi	r24, 0x7F	; 127
    4450:	80 83       	st	Z, r24
		}
		if((high_level_counter > IR_ZERO*8)&&(ir_transmitter_on==false))
    4452:	80 91 7c 03 	lds	r24, 0x037C
    4456:	90 91 7d 03 	lds	r25, 0x037D
    445a:	89 51       	subi	r24, 0x19	; 25
    445c:	92 40       	sbci	r25, 0x02	; 2
    445e:	58 f0       	brcs	.+22     	; 0x4476 <__vector_4+0xb8>
    4460:	80 91 0a 03 	lds	r24, 0x030A
    4464:	88 23       	and	r24, r24
    4466:	39 f4       	brne	.+14     	; 0x4476 <__vector_4+0xb8>
		{
			receiver_on = false;//выключаем приемник
    4468:	10 92 1d 03 	sts	0x031D, r1
			TIMSK &=~_BV(OCIE2);
    446c:	e9 e5       	ldi	r30, 0x59	; 89
    446e:	f0 e0       	ldi	r31, 0x00	; 0
    4470:	80 81       	ld	r24, Z
    4472:	8f 77       	andi	r24, 0x7F	; 127
    4474:	80 83       	st	Z, r24
		}
	
	}
if (ir_transmitter_on==true)
    4476:	80 91 0a 03 	lds	r24, 0x030A
    447a:	81 30       	cpi	r24, 0x01	; 1
    447c:	09 f0       	breq	.+2      	; 0x4480 <__vector_4+0xc2>
    447e:	6e c0       	rjmp	.+220    	; 0x455c <__vector_4+0x19e>
	{//Если передача разрешена

		if (ir_pulse_counter > 0)		//необходимая длительность пачки импульсов 
    4480:	80 91 0e 03 	lds	r24, 0x030E
    4484:	90 91 0f 03 	lds	r25, 0x030F
    4488:	89 2b       	or	r24, r25
    448a:	89 f0       	breq	.+34     	; 0x44ae <__vector_4+0xf0>
		{								//ещё не достигнута, "мигаем" дальше
			IR_LED_INVERT;  			//необходимая длительность пачки 
    448c:	e5 e3       	ldi	r30, 0x35	; 53
    448e:	f0 e0       	ldi	r31, 0x00	; 0
    4490:	90 81       	ld	r25, Z
    4492:	80 91 12 03 	lds	r24, 0x0312
    4496:	89 27       	eor	r24, r25
    4498:	80 83       	st	Z, r24
			ir_pulse_counter--;
    449a:	80 91 0e 03 	lds	r24, 0x030E
    449e:	90 91 0f 03 	lds	r25, 0x030F
    44a2:	01 97       	sbiw	r24, 0x01	; 1
    44a4:	90 93 0f 03 	sts	0x030F, r25
    44a8:	80 93 0e 03 	sts	0x030E, r24
    44ac:	57 c0       	rjmp	.+174    	; 0x455c <__vector_4+0x19e>
		}
		else							//пачка импульсов была отправлена, 
		{
			IR_LED_OFF;			//тушим ИК-диод 
    44ae:	e5 e3       	ldi	r30, 0x35	; 53
    44b0:	f0 e0       	ldi	r31, 0x00	; 0
    44b2:	80 81       	ld	r24, Z
    44b4:	8f 7b       	andi	r24, 0xBF	; 191
    44b6:	80 83       	st	Z, r24
    44b8:	80 81       	ld	r24, Z
    44ba:	8f 77       	andi	r24, 0x7F	; 127
    44bc:	80 83       	st	Z, r24
			if ( ir_space_counter > 0)	//проверим, выдержан ли промежуток между импульсами
    44be:	80 91 75 03 	lds	r24, 0x0375
    44c2:	90 91 76 03 	lds	r25, 0x0376
    44c6:	18 16       	cp	r1, r24
    44c8:	19 06       	cpc	r1, r25
    44ca:	84 f4       	brge	.+32     	; 0x44ec <__vector_4+0x12e>
			{							//нет, промежуток не выдержан
			
					IR_LED_OFF;	//тушим ИК-диод
    44cc:	80 81       	ld	r24, Z
    44ce:	8f 7b       	andi	r24, 0xBF	; 191
    44d0:	80 83       	st	Z, r24
    44d2:	80 81       	ld	r24, Z
    44d4:	8f 77       	andi	r24, 0x7F	; 127
    44d6:	80 83       	st	Z, r24
					ir_space_counter--;	//уменьшаем обратный счетчик паузы на один "тик"		
    44d8:	80 91 75 03 	lds	r24, 0x0375
    44dc:	90 91 76 03 	lds	r25, 0x0376
    44e0:	01 97       	sbiw	r24, 0x01	; 1
    44e2:	90 93 76 03 	sts	0x0376, r25
    44e6:	80 93 75 03 	sts	0x0375, r24
    44ea:	38 c0       	rjmp	.+112    	; 0x455c <__vector_4+0x19e>
			}
			else //Пакет импульсов и промежуток между битами переданы
			{	 //нужно формировать следующую пачку (передаваемый бит)
				
				
				if (data_packet.data[cursor_position]!=0) //если указатель указывает не на пустую ячейку
    44ec:	e0 91 85 03 	lds	r30, 0x0385
    44f0:	f0 e0       	ldi	r31, 0x00	; 0
    44f2:	ee 0f       	add	r30, r30
    44f4:	ff 1f       	adc	r31, r31
    44f6:	e7 5b       	subi	r30, 0xB7	; 183
    44f8:	fc 4f       	sbci	r31, 0xFC	; 252
    44fa:	80 81       	ld	r24, Z
    44fc:	91 81       	ldd	r25, Z+1	; 0x01
    44fe:	89 2b       	or	r24, r25
    4500:	c1 f0       	breq	.+48     	; 0x4532 <__vector_4+0x174>
				{
					ir_pulse_counter =data_packet.data[cursor_position++] ; //передадим импульс указанной длительностью
    4502:	20 91 85 03 	lds	r18, 0x0385
    4506:	e2 2f       	mov	r30, r18
    4508:	f0 e0       	ldi	r31, 0x00	; 0
    450a:	ee 0f       	add	r30, r30
    450c:	ff 1f       	adc	r31, r31
    450e:	e7 5b       	subi	r30, 0xB7	; 183
    4510:	fc 4f       	sbci	r31, 0xFC	; 252
    4512:	80 81       	ld	r24, Z
    4514:	91 81       	ldd	r25, Z+1	; 0x01
    4516:	90 93 0f 03 	sts	0x030F, r25
    451a:	80 93 0e 03 	sts	0x030E, r24
    451e:	2f 5f       	subi	r18, 0xFF	; 255
    4520:	20 93 85 03 	sts	0x0385, r18
					ir_space_counter = IR_SPACE;      //и про паузу не забудем
    4524:	83 e4       	ldi	r24, 0x43	; 67
    4526:	90 e0       	ldi	r25, 0x00	; 0
    4528:	90 93 76 03 	sts	0x0376, r25
    452c:	80 93 75 03 	sts	0x0375, r24
    4530:	15 c0       	rjmp	.+42     	; 0x455c <__vector_4+0x19e>
				}
				else //Все данные переданы (элемент, на который ссылается указатель, равен 0)
				{
					ir_transmitter_on=false; //выключаем передатчик
    4532:	10 92 0a 03 	sts	0x030A, r1
				//	display_bullets_update();
					FIRE_LED_OFF;
    4536:	e5 e3       	ldi	r30, 0x35	; 53
    4538:	f0 e0       	ldi	r31, 0x00	; 0
    453a:	80 81       	ld	r24, Z
    453c:	8f 7d       	andi	r24, 0xDF	; 223
    453e:	80 83       	st	Z, r24
					display_bullets_update_now++;
    4540:	80 91 69 03 	lds	r24, 0x0369
    4544:	8f 5f       	subi	r24, 0xFF	; 255
    4546:	80 93 69 03 	sts	0x0369, r24
				// если 	
					if (!receiver_on) //если нет приема пакета
    454a:	80 91 1d 03 	lds	r24, 0x031D
    454e:	88 23       	and	r24, r24
    4550:	29 f4       	brne	.+10     	; 0x455c <__vector_4+0x19e>
					{
						TIMSK &=~_BV(OCIE2);          // Запрещаем прерывания по захвату/сравнению
    4552:	e9 e5       	ldi	r30, 0x59	; 89
    4554:	f0 e0       	ldi	r31, 0x00	; 0
    4556:	80 81       	ld	r24, Z
    4558:	8f 77       	andi	r24, 0x7F	; 127
    455a:	80 83       	st	Z, r24
else 	{//Если передача запрещена

		}


}
    455c:	ff 91       	pop	r31
    455e:	ef 91       	pop	r30
    4560:	9f 91       	pop	r25
    4562:	8f 91       	pop	r24
    4564:	2f 91       	pop	r18
    4566:	0f 90       	pop	r0
    4568:	0f be       	out	0x3f, r0	; 63
    456a:	0f 90       	pop	r0
    456c:	1f 90       	pop	r1
    456e:	18 95       	reti

00004570 <read_seimpl>:
}




uint8_t read_seimpl(){//считываем очередной сеймпл из буфера
    4570:	df 93       	push	r29
    4572:	cf 93       	push	r28
    4574:	00 d0       	rcall	.+0      	; 0x4576 <read_seimpl+0x6>
    4576:	cd b7       	in	r28, 0x3d	; 61
    4578:	de b7       	in	r29, 0x3e	; 62
uint8_t result;

//result = usartRxBuf[curr_pos_in_sound_buff];
if (!eeprom_is_open) {
    457a:	80 91 7e 03 	lds	r24, 0x037E
    457e:	88 23       	and	r24, r24
    4580:	49 f4       	brne	.+18     	; 0x4594 <read_seimpl+0x24>
eeprom_is_open = open_eeprom(eeprom_read_byte(&sound_1_adress));//открываем eeprom
    4582:	82 e1       	ldi	r24, 0x12	; 18
    4584:	90 e0       	ldi	r25, 0x00	; 0
    4586:	0e 94 5b 28 	call	0x50b6	; 0x50b6 <__eerd_byte_m32>
    458a:	90 e0       	ldi	r25, 0x00	; 0
    458c:	0e 94 b9 08 	call	0x1172	; 0x1172 <open_eeprom>
    4590:	80 93 7e 03 	sts	0x037E, r24
}
if (simples_in_queue==1)//если это последний сеймпл в буфере
    4594:	80 91 13 03 	lds	r24, 0x0313
    4598:	90 91 14 03 	lds	r25, 0x0314
    459c:	01 97       	sbiw	r24, 0x01	; 1
    459e:	39 f4       	brne	.+14     	; 0x45ae <read_seimpl+0x3e>
		{
			close_eeprom(&result);//считываем боследний буйт и закрываем eeprom
    45a0:	ce 01       	movw	r24, r28
    45a2:	01 96       	adiw	r24, 0x01	; 1
    45a4:	0e 94 20 09 	call	0x1240	; 0x1240 <close_eeprom>
			eeprom_is_open = false;
    45a8:	10 92 7e 03 	sts	0x037E, r1
    45ac:	04 c0       	rjmp	.+8      	; 0x45b6 <read_seimpl+0x46>
		}
else //это не последний сейипл в буфере
		{
			read_eeprom_byte(&result); //считываем очередной байт
    45ae:	ce 01       	movw	r24, r28
    45b0:	01 96       	adiw	r24, 0x01	; 1
    45b2:	0e 94 0e 09 	call	0x121c	; 0x121c <read_eeprom_byte>
			
		}

if (simples_in_queue==cut_off_sound)//(eeprom_read_word(&sound_1_size)/100)*(100-CUT_OFF_SOUNT))
    45b6:	20 91 13 03 	lds	r18, 0x0313
    45ba:	30 91 14 03 	lds	r19, 0x0314
    45be:	80 91 73 03 	lds	r24, 0x0373
    45c2:	90 91 74 03 	lds	r25, 0x0374
    45c6:	28 17       	cp	r18, r24
    45c8:	39 07       	cpc	r19, r25
    45ca:	81 f5       	brne	.+96     	; 0x462c <read_seimpl+0xbc>
	{

		if (fire_mode()==queues)
    45cc:	0e 94 5d 0c 	call	0x18ba	; 0x18ba <fire_mode>
    45d0:	81 30       	cpi	r24, 0x01	; 1
    45d2:	61 f5       	brne	.+88     	; 0x462c <read_seimpl+0xbc>

inline  TKEYBOARD_STATUS get_keyboard_status(void) {

volatile	TKEYBOARD_STATUS s_ret;
	
	switch (FIRE_KEY_IN&FIRE_KEY_PIN) //проверяем, нажат ли курок
    45d4:	b2 9b       	sbis	0x16, 2	; 22
    45d6:	02 c0       	rjmp	.+4      	; 0x45dc <read_seimpl+0x6c>
		{
			case FIRE_KEY_PIN: s_ret=no_key_pressed  ; break;
    45d8:	1a 82       	std	Y+2, r1	; 0x02
    45da:	02 c0       	rjmp	.+4      	; 0x45e0 <read_seimpl+0x70>
			default: s_ret=key_pressed ;	
    45dc:	81 e0       	ldi	r24, 0x01	; 1
    45de:	8a 83       	std	Y+2, r24	; 0x02
		}



		return s_ret;
    45e0:	8a 81       	ldd	r24, Y+2	; 0x02
	{

		if (fire_mode()==queues)
		{
			
		if ((get_keyboard_status()==key_pressed)&&(life>0)&&(bullets>0)) //курок нажат, то отсекаем звук
    45e2:	81 30       	cpi	r24, 0x01	; 1
    45e4:	19 f5       	brne	.+70     	; 0x462c <read_seimpl+0xbc>
    45e6:	80 91 72 03 	lds	r24, 0x0372
    45ea:	88 23       	and	r24, r24
    45ec:	f9 f0       	breq	.+62     	; 0x462c <read_seimpl+0xbc>
    45ee:	80 91 1e 03 	lds	r24, 0x031E
    45f2:	90 91 1f 03 	lds	r25, 0x031F
    45f6:	89 2b       	or	r24, r25
    45f8:	c9 f0       	breq	.+50     	; 0x462c <read_seimpl+0xbc>
			{
							bullets--;//уменьшаем на 1 количество патронов
    45fa:	80 91 1e 03 	lds	r24, 0x031E
    45fe:	90 91 1f 03 	lds	r25, 0x031F
    4602:	01 97       	sbiw	r24, 0x01	; 1
    4604:	90 93 1f 03 	sts	0x031F, r25
    4608:	80 93 1e 03 	sts	0x031E, r24
							send_ir_package();	//Производим "выстрел"
    460c:	0e 94 eb 09 	call	0x13d6	; 0x13d6 <send_ir_package>
							
//							last_simple=0;		//воспроизводим звук сначала
							close_eeprom(&result);//считываем боследний буйт и закрываем eeprom
    4610:	ce 01       	movw	r24, r28
    4612:	01 96       	adiw	r24, 0x01	; 1
    4614:	0e 94 20 09 	call	0x1240	; 0x1240 <close_eeprom>
							eeprom_is_open = false;
    4618:	10 92 7e 03 	sts	0x037E, r1
			//eeprom_is_open = open_eeprom(eeprom_read_byte(&sound_1_adress));//открываем eeprom
							simples_in_queue=eeprom_read_word(&sound_1_size);
    461c:	84 e1       	ldi	r24, 0x14	; 20
    461e:	90 e0       	ldi	r25, 0x00	; 0
    4620:	0e 94 63 28 	call	0x50c6	; 0x50c6 <__eerd_word_m32>
    4624:	90 93 14 03 	sts	0x0314, r25
    4628:	80 93 13 03 	sts	0x0313, r24

	}


return result;
}
    462c:	89 81       	ldd	r24, Y+1	; 0x01
    462e:	0f 90       	pop	r0
    4630:	0f 90       	pop	r0
    4632:	cf 91       	pop	r28
    4634:	df 91       	pop	r29
    4636:	08 95       	ret

00004638 <__vector_7>:

/**************************************************************************************
* Обработчик внещних прерываний timer1A
***************************************************************************************/

ISR(TIMER1_COMPA_vect){
    4638:	1f 92       	push	r1
    463a:	0f 92       	push	r0
    463c:	0f b6       	in	r0, 0x3f	; 63
    463e:	0f 92       	push	r0
    4640:	11 24       	eor	r1, r1
    4642:	2f 93       	push	r18
    4644:	3f 93       	push	r19
    4646:	4f 93       	push	r20
    4648:	5f 93       	push	r21
    464a:	6f 93       	push	r22
    464c:	7f 93       	push	r23
    464e:	8f 93       	push	r24
    4650:	9f 93       	push	r25
    4652:	af 93       	push	r26
    4654:	bf 93       	push	r27
    4656:	ef 93       	push	r30
    4658:	ff 93       	push	r31
    465a:	df 93       	push	r29
    465c:	cf 93       	push	r28
    465e:	0f 92       	push	r0
    4660:	cd b7       	in	r28, 0x3d	; 61
    4662:	de b7       	in	r29, 0x3e	; 62
TIMSK &= ~_BV(OCIE1A);  //запрещаем прерывания timer1, чтобы не было рекурсии
    4664:	e9 e5       	ldi	r30, 0x59	; 89
    4666:	f0 e0       	ldi	r31, 0x00	; 0
    4668:	80 81       	ld	r24, Z
    466a:	8f 7e       	andi	r24, 0xEF	; 239
    466c:	80 83       	st	Z, r24
sei(); 
    466e:	78 94       	sei
//uart_timer++;
if ((bullets >0))//&&(!play_hit_snd))//если патроны не кончились
    4670:	80 91 1e 03 	lds	r24, 0x031E
    4674:	90 91 1f 03 	lds	r25, 0x031F
    4678:	89 2b       	or	r24, r25
    467a:	c9 f0       	breq	.+50     	; 0x46ae <__vector_7+0x76>
{

	if (simples_in_queue>0) //если не все сеймплы ещё воспроизведены
    467c:	80 91 13 03 	lds	r24, 0x0313
    4680:	90 91 14 03 	lds	r25, 0x0314
    4684:	89 2b       	or	r24, r25
    4686:	99 f0       	breq	.+38     	; 0x46ae <__vector_7+0x76>
	{ 
		
		
		OCR0 =	read_seimpl();
    4688:	0e 94 b8 22 	call	0x4570	; 0x4570 <read_seimpl>
    468c:	8c bf       	out	0x3c, r24	; 60
		if (simples_in_queue==1) OCR0=0;
    468e:	80 91 13 03 	lds	r24, 0x0313
    4692:	90 91 14 03 	lds	r25, 0x0314
    4696:	01 97       	sbiw	r24, 0x01	; 1
    4698:	09 f4       	brne	.+2      	; 0x469c <__vector_7+0x64>
    469a:	1c be       	out	0x3c, r1	; 60
		simples_in_queue--;
    469c:	80 91 13 03 	lds	r24, 0x0313
    46a0:	90 91 14 03 	lds	r25, 0x0314
    46a4:	01 97       	sbiw	r24, 0x01	; 1
    46a6:	90 93 14 03 	sts	0x0314, r25
    46aa:	80 93 13 03 	sts	0x0313, r24
		else {};//fire_led_status = OFF;
	};

*/

if (bullets <= 0) //патроны кончились
    46ae:	80 91 1e 03 	lds	r24, 0x031E
    46b2:	90 91 1f 03 	lds	r25, 0x031F
    46b6:	89 2b       	or	r24, r25
    46b8:	f1 f4       	brne	.+60     	; 0x46f6 <__vector_7+0xbe>
	{
		BULLETS_OUT_LED_ON; // включаем светодиод "Патроны кончились"
    46ba:	eb e3       	ldi	r30, 0x3B	; 59
    46bc:	f0 e0       	ldi	r31, 0x00	; 0
    46be:	80 81       	ld	r24, Z
    46c0:	81 60       	ori	r24, 0x01	; 1
    46c2:	80 83       	st	Z, r24
		if (simples_in_queue>0) //если не все сеймплы ещё воспроизведены
    46c4:	80 91 13 03 	lds	r24, 0x0313
    46c8:	90 91 14 03 	lds	r25, 0x0314
    46cc:	89 2b       	or	r24, r25
    46ce:	99 f0       	breq	.+38     	; 0x46f6 <__vector_7+0xbe>
		{ 
		
		
			OCR0 =	read_seimpl();
    46d0:	0e 94 b8 22 	call	0x4570	; 0x4570 <read_seimpl>
    46d4:	8c bf       	out	0x3c, r24	; 60
			if (simples_in_queue==1) OCR0=0;
    46d6:	80 91 13 03 	lds	r24, 0x0313
    46da:	90 91 14 03 	lds	r25, 0x0314
    46de:	01 97       	sbiw	r24, 0x01	; 1
    46e0:	09 f4       	brne	.+2      	; 0x46e4 <__vector_7+0xac>
    46e2:	1c be       	out	0x3c, r1	; 60
			simples_in_queue--;
    46e4:	80 91 13 03 	lds	r24, 0x0313
    46e8:	90 91 14 03 	lds	r25, 0x0314
    46ec:	01 97       	sbiw	r24, 0x01	; 1
    46ee:	90 93 14 03 	sts	0x0314, r25
    46f2:	80 93 13 03 	sts	0x0313, r24
	};


static volatile uint16_t tmp_cntr=0;

	if ((tmp_cntr - (tmp_cntr/100)*100)==0)
    46f6:	80 91 ed 02 	lds	r24, 0x02ED
    46fa:	90 91 ee 02 	lds	r25, 0x02EE
    46fe:	20 91 ed 02 	lds	r18, 0x02ED
    4702:	30 91 ee 02 	lds	r19, 0x02EE
    4706:	64 e6       	ldi	r22, 0x64	; 100
    4708:	70 e0       	ldi	r23, 0x00	; 0
    470a:	0e 94 0e 28 	call	0x501c	; 0x501c <__udivmodhi4>
    470e:	84 e6       	ldi	r24, 0x64	; 100
    4710:	90 e0       	ldi	r25, 0x00	; 0
    4712:	ac 01       	movw	r20, r24
    4714:	64 9f       	mul	r22, r20
    4716:	c0 01       	movw	r24, r0
    4718:	65 9f       	mul	r22, r21
    471a:	90 0d       	add	r25, r0
    471c:	74 9f       	mul	r23, r20
    471e:	90 0d       	add	r25, r0
    4720:	11 24       	eor	r1, r1
    4722:	82 17       	cp	r24, r18
    4724:	93 07       	cpc	r25, r19
    4726:	09 f0       	breq	.+2      	; 0x472a <__vector_7+0xf2>
    4728:	ad c0       	rjmp	.+346    	; 0x4884 <__vector_7+0x24c>
	{
		
		uart_timer++;
    472a:	80 91 7a 03 	lds	r24, 0x037A
    472e:	90 91 7b 03 	lds	r25, 0x037B
    4732:	01 96       	adiw	r24, 0x01	; 1
    4734:	90 93 7b 03 	sts	0x037B, r25
    4738:	80 93 7a 03 	sts	0x037A, r24
		switch(keyboard_event) 
    473c:	80 91 6d 03 	lds	r24, 0x036D
    4740:	88 23       	and	r24, r24
    4742:	09 f0       	breq	.+2      	; 0x4746 <__vector_7+0x10e>
    4744:	49 c0       	rjmp	.+146    	; 0x47d8 <__vector_7+0x1a0>

inline  TKEYBOARD_STATUS get_keyboard_status(void) {

volatile	TKEYBOARD_STATUS s_ret;
	
	switch (FIRE_KEY_IN&FIRE_KEY_PIN) //проверяем, нажат ли курок
    4746:	b2 9b       	sbis	0x16, 2	; 22
    4748:	02 c0       	rjmp	.+4      	; 0x474e <__vector_7+0x116>
		{
			case FIRE_KEY_PIN: s_ret=no_key_pressed  ; break;
    474a:	19 82       	std	Y+1, r1	; 0x01
    474c:	02 c0       	rjmp	.+4      	; 0x4752 <__vector_7+0x11a>
			default: s_ret=key_pressed ;	
    474e:	81 e0       	ldi	r24, 0x01	; 1
    4750:	89 83       	std	Y+1, r24	; 0x01
		}



		return s_ret;
    4752:	89 81       	ldd	r24, Y+1	; 0x01

inline  TKEYBOARD_EVENT test_keyboard(void){
	TKEYBOARD_STATUS key_status;
	TKEYBOARD_EVENT ret_ev;
	key_status=get_keyboard_status();
	switch(key_status)  //проверяем, что нажато
    4754:	88 23       	and	r24, r24
    4756:	19 f0       	breq	.+6      	; 0x475e <__vector_7+0x126>
    4758:	81 30       	cpi	r24, 0x01	; 1
    475a:	d1 f5       	brne	.+116    	; 0x47d0 <__vector_7+0x198>
    475c:	1a c0       	rjmp	.+52     	; 0x4792 <__vector_7+0x15a>
	{
		case no_key_pressed: 
		{
			if (key_pressing_duration.key_1>= SHORT_DURATION)
    475e:	80 91 38 03 	lds	r24, 0x0338
    4762:	90 91 39 03 	lds	r25, 0x0339
    4766:	04 97       	sbiw	r24, 0x04	; 4
    4768:	50 f0       	brcs	.+20     	; 0x477e <__vector_7+0x146>
			{
				ret_ev=key_pressing;
                key_pressing_duration.key_1    =0;
    476a:	e8 e3       	ldi	r30, 0x38	; 56
    476c:	f3 e0       	ldi	r31, 0x03	; 3
    476e:	11 82       	std	Z+1, r1	; 0x01
    4770:	10 82       	st	Z, r1
    4772:	32 96       	adiw	r30, 0x02	; 2
                key_pressing_duration.key_1_inc=0;
    4774:	80 81       	ld	r24, Z
    4776:	8e 7f       	andi	r24, 0xFE	; 254
    4778:	80 83       	st	Z, r24
    477a:	81 e0       	ldi	r24, 0x01	; 1
    477c:	2b c0       	rjmp	.+86     	; 0x47d4 <__vector_7+0x19c>
			}

			else 
			{
				ret_ev=no_key_pressing;
                key_pressing_duration.key_1    =0;
    477e:	e8 e3       	ldi	r30, 0x38	; 56
    4780:	f3 e0       	ldi	r31, 0x03	; 3
    4782:	11 82       	std	Z+1, r1	; 0x01
    4784:	10 82       	st	Z, r1
    4786:	32 96       	adiw	r30, 0x02	; 2
                key_pressing_duration.key_1_inc=1;
    4788:	80 81       	ld	r24, Z
    478a:	81 60       	ori	r24, 0x01	; 1
    478c:	80 83       	st	Z, r24
    478e:	80 e0       	ldi	r24, 0x00	; 0
    4790:	21 c0       	rjmp	.+66     	; 0x47d4 <__vector_7+0x19c>
		
		} 
		break;
	 	case key_pressed  : //нажата кнопка 1
		{ 
			if(key_pressing_duration.key_1>= SHORT_DURATION)
    4792:	80 91 38 03 	lds	r24, 0x0338
    4796:	90 91 39 03 	lds	r25, 0x0339
    479a:	04 97       	sbiw	r24, 0x04	; 4
    479c:	50 f0       	brcs	.+20     	; 0x47b2 <__vector_7+0x17a>
			{
				ret_ev=key_pressing;
             	key_pressing_duration.key_1    =0;
    479e:	e8 e3       	ldi	r30, 0x38	; 56
    47a0:	f3 e0       	ldi	r31, 0x03	; 3
    47a2:	11 82       	std	Z+1, r1	; 0x01
    47a4:	10 82       	st	Z, r1
    47a6:	32 96       	adiw	r30, 0x02	; 2
                key_pressing_duration.key_1_inc=0;
    47a8:	80 81       	ld	r24, Z
    47aa:	8e 7f       	andi	r24, 0xFE	; 254
    47ac:	80 83       	st	Z, r24
    47ae:	81 e0       	ldi	r24, 0x01	; 1
    47b0:	11 c0       	rjmp	.+34     	; 0x47d4 <__vector_7+0x19c>
			} 
			else 
			{
				key_pressing_duration.key_1 += key_pressing_duration.key_1_inc; 
    47b2:	a8 e3       	ldi	r26, 0x38	; 56
    47b4:	b3 e0       	ldi	r27, 0x03	; 3
    47b6:	fd 01       	movw	r30, r26
    47b8:	81 91       	ld	r24, Z+
    47ba:	91 91       	ld	r25, Z+
    47bc:	20 81       	ld	r18, Z
    47be:	21 70       	andi	r18, 0x01	; 1
    47c0:	82 0f       	add	r24, r18
    47c2:	91 1d       	adc	r25, r1
    47c4:	11 96       	adiw	r26, 0x01	; 1
    47c6:	9c 93       	st	X, r25
    47c8:	8e 93       	st	-X, r24
                ret_ev=keyboard_event;
    47ca:	80 91 6d 03 	lds	r24, 0x036D
    47ce:	02 c0       	rjmp	.+4      	; 0x47d4 <__vector_7+0x19c>

			}
		}
		break;
		default: ret_ev=keyboard_event;
    47d0:	80 91 6d 03 	lds	r24, 0x036D
		uart_timer++;
		switch(keyboard_event) 
			{
		  	case no_key_pressing: 
		  		{
					keyboard_event=test_keyboard(); 
    47d4:	80 93 6d 03 	sts	0x036D, r24
					break;
				}
		  	default:;         
			}	

		switch(reload_key_event)
    47d8:	80 91 70 03 	lds	r24, 0x0370
    47dc:	88 23       	and	r24, r24
    47de:	09 f0       	breq	.+2      	; 0x47e2 <__vector_7+0x1aa>
    47e0:	49 c0       	rjmp	.+146    	; 0x4874 <__vector_7+0x23c>

inline  TKEYBOARD_STATUS get_reload_key_status(void) {

volatile	TKEYBOARD_STATUS s_ret;
	
	switch (RELOAD_KEY_IN&RELOAD_KEY_PIN) //проверяем, нажат ли кнопка "перезарядить"
    47e2:	b0 9b       	sbis	0x16, 0	; 22
    47e4:	02 c0       	rjmp	.+4      	; 0x47ea <__vector_7+0x1b2>
		{
			case RELOAD_KEY_PIN: s_ret=no_key_pressed  ; break;
    47e6:	19 82       	std	Y+1, r1	; 0x01
    47e8:	02 c0       	rjmp	.+4      	; 0x47ee <__vector_7+0x1b6>
			default: s_ret=key_pressed ;	
    47ea:	81 e0       	ldi	r24, 0x01	; 1
    47ec:	89 83       	std	Y+1, r24	; 0x01
		}



		return s_ret;
    47ee:	89 81       	ldd	r24, Y+1	; 0x01

inline  TKEYBOARD_EVENT test_reload_key(void){
	TKEYBOARD_STATUS key_status;
	TKEYBOARD_EVENT ret_ev;
	key_status=get_reload_key_status();
	switch(key_status)  //проверяем, что нажато
    47f0:	88 23       	and	r24, r24
    47f2:	19 f0       	breq	.+6      	; 0x47fa <__vector_7+0x1c2>
    47f4:	81 30       	cpi	r24, 0x01	; 1
    47f6:	d1 f5       	brne	.+116    	; 0x486c <__vector_7+0x234>
    47f8:	1a c0       	rjmp	.+52     	; 0x482e <__vector_7+0x1f6>
	{
		case no_key_pressed: 
		{
			if (key_pressing_duration.key_2>= SHORT_DURATION)
    47fa:	80 91 3b 03 	lds	r24, 0x033B
    47fe:	90 91 3c 03 	lds	r25, 0x033C
    4802:	04 97       	sbiw	r24, 0x04	; 4
    4804:	50 f0       	brcs	.+20     	; 0x481a <__vector_7+0x1e2>
			{
				ret_ev=key_pressing;
                key_pressing_duration.key_2    =0;
    4806:	eb e3       	ldi	r30, 0x3B	; 59
    4808:	f3 e0       	ldi	r31, 0x03	; 3
    480a:	11 82       	std	Z+1, r1	; 0x01
    480c:	10 82       	st	Z, r1
    480e:	32 96       	adiw	r30, 0x02	; 2
                key_pressing_duration.key_2_inc=0;
    4810:	80 81       	ld	r24, Z
    4812:	8e 7f       	andi	r24, 0xFE	; 254
    4814:	80 83       	st	Z, r24
    4816:	81 e0       	ldi	r24, 0x01	; 1
    4818:	2b c0       	rjmp	.+86     	; 0x4870 <__vector_7+0x238>
			}

			else 
			{
				ret_ev=no_key_pressing;
                key_pressing_duration.key_2    =0;
    481a:	eb e3       	ldi	r30, 0x3B	; 59
    481c:	f3 e0       	ldi	r31, 0x03	; 3
    481e:	11 82       	std	Z+1, r1	; 0x01
    4820:	10 82       	st	Z, r1
    4822:	32 96       	adiw	r30, 0x02	; 2
                key_pressing_duration.key_2_inc=1;
    4824:	80 81       	ld	r24, Z
    4826:	81 60       	ori	r24, 0x01	; 1
    4828:	80 83       	st	Z, r24
    482a:	80 e0       	ldi	r24, 0x00	; 0
    482c:	21 c0       	rjmp	.+66     	; 0x4870 <__vector_7+0x238>
		
		} 
		break;
	 	case key_pressed  : //нажата кнопка "Перезарядить"
		{ 
			if(key_pressing_duration.key_2>= SHORT_DURATION)
    482e:	80 91 3b 03 	lds	r24, 0x033B
    4832:	90 91 3c 03 	lds	r25, 0x033C
    4836:	04 97       	sbiw	r24, 0x04	; 4
    4838:	50 f0       	brcs	.+20     	; 0x484e <__vector_7+0x216>
			{
				ret_ev=key_pressing;
             	key_pressing_duration.key_2    =0;
    483a:	eb e3       	ldi	r30, 0x3B	; 59
    483c:	f3 e0       	ldi	r31, 0x03	; 3
    483e:	11 82       	std	Z+1, r1	; 0x01
    4840:	10 82       	st	Z, r1
    4842:	32 96       	adiw	r30, 0x02	; 2
                key_pressing_duration.key_2_inc=0;
    4844:	80 81       	ld	r24, Z
    4846:	8e 7f       	andi	r24, 0xFE	; 254
    4848:	80 83       	st	Z, r24
    484a:	81 e0       	ldi	r24, 0x01	; 1
    484c:	11 c0       	rjmp	.+34     	; 0x4870 <__vector_7+0x238>
			} 
			else 
			{
				key_pressing_duration.key_2 += key_pressing_duration.key_2_inc; 
    484e:	ab e3       	ldi	r26, 0x3B	; 59
    4850:	b3 e0       	ldi	r27, 0x03	; 3
    4852:	fd 01       	movw	r30, r26
    4854:	81 91       	ld	r24, Z+
    4856:	91 91       	ld	r25, Z+
    4858:	20 81       	ld	r18, Z
    485a:	21 70       	andi	r18, 0x01	; 1
    485c:	82 0f       	add	r24, r18
    485e:	91 1d       	adc	r25, r1
    4860:	11 96       	adiw	r26, 0x01	; 1
    4862:	9c 93       	st	X, r25
    4864:	8e 93       	st	-X, r24
                ret_ev=reload_key_event;
    4866:	80 91 70 03 	lds	r24, 0x0370
    486a:	02 c0       	rjmp	.+4      	; 0x4870 <__vector_7+0x238>

			}
		}
		break;
		default: ret_ev=reload_key_event;
    486c:	80 91 70 03 	lds	r24, 0x0370

		switch(reload_key_event)
			{
		  	case no_key_pressing: 
		  		{
					reload_key_event=test_reload_key(); 
    4870:	80 93 70 03 	sts	0x0370, r24
					break;
				}
		  	default:;         
			}	

		switch(joystick_event)
    4874:	80 91 0b 03 	lds	r24, 0x030B
    4878:	88 23       	and	r24, r24
    487a:	21 f4       	brne	.+8      	; 0x4884 <__vector_7+0x24c>
			{
		  	case no_pressing: 
		  		{
					joystick_event=test_joystick(); 
    487c:	0e 94 4f 26 	call	0x4c9e	; 0x4c9e <test_joystick>
    4880:	80 93 0b 03 	sts	0x030B, r24



//cli();

if (++tmp_cntr > 1000) //пора обновить индикацию
    4884:	80 91 ed 02 	lds	r24, 0x02ED
    4888:	90 91 ee 02 	lds	r25, 0x02EE
    488c:	01 96       	adiw	r24, 0x01	; 1
    488e:	90 93 ee 02 	sts	0x02EE, r25
    4892:	80 93 ed 02 	sts	0x02ED, r24
    4896:	80 91 ed 02 	lds	r24, 0x02ED
    489a:	90 91 ee 02 	lds	r25, 0x02EE
    489e:	89 5e       	subi	r24, 0xE9	; 233
    48a0:	93 40       	sbci	r25, 0x03	; 3
    48a2:	08 f4       	brcc	.+2      	; 0x48a6 <__vector_7+0x26e>
    48a4:	54 c0       	rjmp	.+168    	; 0x494e <__vector_7+0x316>
display_voltage_update(adc_data);
*/		
		
		//test_keyboard();
		//LIFE_LED1_INVERT;
		tmp_cntr = 0;
    48a6:	10 92 ee 02 	sts	0x02EE, r1
    48aa:	10 92 ed 02 	sts	0x02ED, r1
		static volatile uint8_t bit_mask = 0b00000001;
	
		if ((life_leds_status[0]&bit_mask)==0) 
    48ae:	90 91 80 03 	lds	r25, 0x0380
    48b2:	80 91 de 02 	lds	r24, 0x02DE
    48b6:	89 23       	and	r24, r25
    48b8:	31 f4       	brne	.+12     	; 0x48c6 <__vector_7+0x28e>
			{
				LIFE_LED1_OFF;
    48ba:	e5 e3       	ldi	r30, 0x35	; 53
    48bc:	f0 e0       	ldi	r31, 0x00	; 0
    48be:	80 81       	ld	r24, Z
    48c0:	87 7f       	andi	r24, 0xF7	; 247
    48c2:	80 83       	st	Z, r24
    48c4:	05 c0       	rjmp	.+10     	; 0x48d0 <__vector_7+0x298>
			}
		else 
			{
				LIFE_LED1_ON;
    48c6:	e5 e3       	ldi	r30, 0x35	; 53
    48c8:	f0 e0       	ldi	r31, 0x00	; 0
    48ca:	80 81       	ld	r24, Z
    48cc:	88 60       	ori	r24, 0x08	; 8
    48ce:	80 83       	st	Z, r24
			};
		if ((life_leds_status[1]&bit_mask)==0) 
    48d0:	90 91 81 03 	lds	r25, 0x0381
    48d4:	80 91 de 02 	lds	r24, 0x02DE
    48d8:	89 23       	and	r24, r25
    48da:	31 f4       	brne	.+12     	; 0x48e8 <__vector_7+0x2b0>
			{
				LIFE_LED2_OFF;
    48dc:	e5 e3       	ldi	r30, 0x35	; 53
    48de:	f0 e0       	ldi	r31, 0x00	; 0
    48e0:	80 81       	ld	r24, Z
    48e2:	8f 7e       	andi	r24, 0xEF	; 239
    48e4:	80 83       	st	Z, r24
    48e6:	05 c0       	rjmp	.+10     	; 0x48f2 <__vector_7+0x2ba>
			}
		else 
			{
				LIFE_LED2_ON;
    48e8:	e5 e3       	ldi	r30, 0x35	; 53
    48ea:	f0 e0       	ldi	r31, 0x00	; 0
    48ec:	80 81       	ld	r24, Z
    48ee:	80 61       	ori	r24, 0x10	; 16
    48f0:	80 83       	st	Z, r24
			};
		if ((life_leds_status[2]&bit_mask)==0) 
    48f2:	90 91 82 03 	lds	r25, 0x0382
    48f6:	80 91 de 02 	lds	r24, 0x02DE
    48fa:	89 23       	and	r24, r25
    48fc:	31 f4       	brne	.+12     	; 0x490a <__vector_7+0x2d2>
			{
				LIFE_LED3_OFF;
    48fe:	e5 e3       	ldi	r30, 0x35	; 53
    4900:	f0 e0       	ldi	r31, 0x00	; 0
    4902:	80 81       	ld	r24, Z
    4904:	8b 7f       	andi	r24, 0xFB	; 251
    4906:	80 83       	st	Z, r24
    4908:	05 c0       	rjmp	.+10     	; 0x4914 <__vector_7+0x2dc>
			}
		else 
			{
				LIFE_LED3_ON;
    490a:	e5 e3       	ldi	r30, 0x35	; 53
    490c:	f0 e0       	ldi	r31, 0x00	; 0
    490e:	80 81       	ld	r24, Z
    4910:	84 60       	ori	r24, 0x04	; 4
    4912:	80 83       	st	Z, r24
			};

		if ((life_leds_status[3]&bit_mask)==0) 
    4914:	90 91 83 03 	lds	r25, 0x0383
    4918:	80 91 de 02 	lds	r24, 0x02DE
    491c:	89 23       	and	r24, r25
    491e:	31 f4       	brne	.+12     	; 0x492c <__vector_7+0x2f4>
			{
				LIFE_LED4_OFF;
    4920:	e2 e3       	ldi	r30, 0x32	; 50
    4922:	f0 e0       	ldi	r31, 0x00	; 0
    4924:	80 81       	ld	r24, Z
    4926:	8f 77       	andi	r24, 0x7F	; 127
    4928:	80 83       	st	Z, r24
    492a:	05 c0       	rjmp	.+10     	; 0x4936 <__vector_7+0x2fe>
			}
		else 
			{
				LIFE_LED4_ON;
    492c:	e2 e3       	ldi	r30, 0x32	; 50
    492e:	f0 e0       	ldi	r31, 0x00	; 0
    4930:	80 81       	ld	r24, Z
    4932:	80 68       	ori	r24, 0x80	; 128
    4934:	80 83       	st	Z, r24
				FIRE_LED_ON;
			};


*/
		bit_mask = (bit_mask<<1);
    4936:	80 91 de 02 	lds	r24, 0x02DE
    493a:	88 0f       	add	r24, r24
    493c:	80 93 de 02 	sts	0x02DE, r24
		if (bit_mask == 0)  bit_mask = 0b00000001;
    4940:	80 91 de 02 	lds	r24, 0x02DE
    4944:	88 23       	and	r24, r24
    4946:	19 f4       	brne	.+6      	; 0x494e <__vector_7+0x316>
    4948:	81 e0       	ldi	r24, 0x01	; 1
    494a:	80 93 de 02 	sts	0x02DE, r24
		}
	}

*/

if (fcurr_simple_prepared) 
    494e:	80 91 71 03 	lds	r24, 0x0371
    4952:	88 23       	and	r24, r24
    4954:	29 f0       	breq	.+10     	; 0x4960 <__vector_7+0x328>
	{
		OCR0 = curr_simple;
    4956:	80 91 6a 03 	lds	r24, 0x036A
    495a:	8c bf       	out	0x3c, r24	; 60
		fcurr_simple_prepared = false;
    495c:	10 92 71 03 	sts	0x0371, r1
	}

if(!(TSOP_IN&TSOP_PIN))//если на входе INT0 низкий уровень
    4960:	82 99       	sbic	0x10, 2	; 16
    4962:	1b c0       	rjmp	.+54     	; 0x499a <__vector_7+0x362>
	{
		if (chit_detected_counter < (4000)) chit_detected_counter++;
    4964:	80 91 10 03 	lds	r24, 0x0310
    4968:	90 91 11 03 	lds	r25, 0x0311
    496c:	80 5a       	subi	r24, 0xA0	; 160
    496e:	9f 40       	sbci	r25, 0x0F	; 15
    4970:	48 f4       	brcc	.+18     	; 0x4984 <__vector_7+0x34c>
    4972:	80 91 10 03 	lds	r24, 0x0310
    4976:	90 91 11 03 	lds	r25, 0x0311
    497a:	01 96       	adiw	r24, 0x01	; 1
    497c:	90 93 11 03 	sts	0x0311, r25
    4980:	80 93 10 03 	sts	0x0310, r24
		if (chit_detected_counter >= (4000)) chit_detected=true;
    4984:	80 91 10 03 	lds	r24, 0x0310
    4988:	90 91 11 03 	lds	r25, 0x0311
    498c:	80 5a       	subi	r24, 0xA0	; 160
    498e:	9f 40       	sbci	r25, 0x0F	; 15
    4990:	70 f0       	brcs	.+28     	; 0x49ae <__vector_7+0x376>
    4992:	81 e0       	ldi	r24, 0x01	; 1
    4994:	80 93 09 03 	sts	0x0309, r24
    4998:	0a c0       	rjmp	.+20     	; 0x49ae <__vector_7+0x376>

	}
else { // если высокий
		chit_detected_counter = 0;
    499a:	10 92 11 03 	sts	0x0311, r1
    499e:	10 92 10 03 	sts	0x0310, r1
		if (chit_detected) chit_detected=false;
    49a2:	80 91 09 03 	lds	r24, 0x0309
    49a6:	88 23       	and	r24, r24
    49a8:	11 f0       	breq	.+4      	; 0x49ae <__vector_7+0x376>
    49aa:	10 92 09 03 	sts	0x0309, r1
}

timer2++;
    49ae:	80 91 16 03 	lds	r24, 0x0316
    49b2:	90 91 17 03 	lds	r25, 0x0317
    49b6:	01 96       	adiw	r24, 0x01	; 1
    49b8:	90 93 17 03 	sts	0x0317, r25
    49bc:	80 93 16 03 	sts	0x0316, r24

cli();
    49c0:	f8 94       	cli

TIMSK |= _BV(OCIE1A);  //теперь вновь разрешаем прерывания timer1
    49c2:	e9 e5       	ldi	r30, 0x59	; 89
    49c4:	f0 e0       	ldi	r31, 0x00	; 0
    49c6:	80 81       	ld	r24, Z
    49c8:	80 61       	ori	r24, 0x10	; 16
    49ca:	80 83       	st	Z, r24


}
    49cc:	0f 90       	pop	r0
    49ce:	cf 91       	pop	r28
    49d0:	df 91       	pop	r29
    49d2:	ff 91       	pop	r31
    49d4:	ef 91       	pop	r30
    49d6:	bf 91       	pop	r27
    49d8:	af 91       	pop	r26
    49da:	9f 91       	pop	r25
    49dc:	8f 91       	pop	r24
    49de:	7f 91       	pop	r23
    49e0:	6f 91       	pop	r22
    49e2:	5f 91       	pop	r21
    49e4:	4f 91       	pop	r20
    49e6:	3f 91       	pop	r19
    49e8:	2f 91       	pop	r18
    49ea:	0f 90       	pop	r0
    49ec:	0f be       	out	0x3f, r0	; 63
    49ee:	0f 90       	pop	r0
    49f0:	1f 90       	pop	r1
    49f2:	18 95       	reti

000049f4 <__vector_2>:
* Обработчик внещних прерываний вывода INT1
* наступает при поднесении ключа тачмемори к считывателю
***************************************************************************************/


ISR(INT1_vect){
    49f4:	1f 92       	push	r1
    49f6:	0f 92       	push	r0
    49f8:	0f b6       	in	r0, 0x3f	; 63
    49fa:	0f 92       	push	r0
    49fc:	11 24       	eor	r1, r1
    49fe:	2f 93       	push	r18
    4a00:	3f 93       	push	r19
    4a02:	4f 93       	push	r20
    4a04:	5f 93       	push	r21
    4a06:	6f 93       	push	r22
    4a08:	7f 93       	push	r23
    4a0a:	8f 93       	push	r24
    4a0c:	9f 93       	push	r25
    4a0e:	af 93       	push	r26
    4a10:	bf 93       	push	r27
    4a12:	ef 93       	push	r30
    4a14:	ff 93       	push	r31
    4a16:	df 93       	push	r29
    4a18:	cf 93       	push	r28
    4a1a:	0f 92       	push	r0
    4a1c:	cd b7       	in	r28, 0x3d	; 61
    4a1e:	de b7       	in	r29, 0x3e	; 62
tm_connect = true;
    4a20:	81 e0       	ldi	r24, 0x01	; 1
    4a22:	80 93 1b 03 	sts	0x031B, r24
volatile uint8_t tmp;
tmp = 0;
    4a26:	19 82       	std	Y+1, r1	; 0x01
tmp++;
    4a28:	89 81       	ldd	r24, Y+1	; 0x01
    4a2a:	8f 5f       	subi	r24, 0xFF	; 255
    4a2c:	89 83       	std	Y+1, r24	; 0x01
tm_read_serial_number();
    4a2e:	0e 94 84 06 	call	0xd08	; 0xd08 <tm_read_serial_number>
}
    4a32:	0f 90       	pop	r0
    4a34:	cf 91       	pop	r28
    4a36:	df 91       	pop	r29
    4a38:	ff 91       	pop	r31
    4a3a:	ef 91       	pop	r30
    4a3c:	bf 91       	pop	r27
    4a3e:	af 91       	pop	r26
    4a40:	9f 91       	pop	r25
    4a42:	8f 91       	pop	r24
    4a44:	7f 91       	pop	r23
    4a46:	6f 91       	pop	r22
    4a48:	5f 91       	pop	r21
    4a4a:	4f 91       	pop	r20
    4a4c:	3f 91       	pop	r19
    4a4e:	2f 91       	pop	r18
    4a50:	0f 90       	pop	r0
    4a52:	0f be       	out	0x3f, r0	; 63
    4a54:	0f 90       	pop	r0
    4a56:	1f 90       	pop	r1
    4a58:	18 95       	reti

00004a5a <__vector_1>:
/**************************************************************************************
* Обработчик внещних прерываний вывода INT0
***************************************************************************************/


ISR(INT0_vect){
    4a5a:	1f 92       	push	r1
    4a5c:	0f 92       	push	r0
    4a5e:	0f b6       	in	r0, 0x3f	; 63
    4a60:	0f 92       	push	r0
    4a62:	11 24       	eor	r1, r1
    4a64:	2f 93       	push	r18
    4a66:	3f 93       	push	r19
    4a68:	4f 93       	push	r20
    4a6a:	5f 93       	push	r21
    4a6c:	6f 93       	push	r22
    4a6e:	7f 93       	push	r23
    4a70:	8f 93       	push	r24
    4a72:	9f 93       	push	r25
    4a74:	af 93       	push	r26
    4a76:	bf 93       	push	r27
    4a78:	ef 93       	push	r30
    4a7a:	ff 93       	push	r31
TIMSK |= _BV(OCIE2);          // Разрешаем прерывания по захвату/сравнению
    4a7c:	e9 e5       	ldi	r30, 0x59	; 89
    4a7e:	f0 e0       	ldi	r31, 0x00	; 0
    4a80:	80 81       	ld	r24, Z
    4a82:	80 68       	ori	r24, 0x80	; 128
    4a84:	80 83       	st	Z, r24
receiver_on = true;
    4a86:	81 e0       	ldi	r24, 0x01	; 1
    4a88:	80 93 1d 03 	sts	0x031D, r24
if(!(MCUCR&_BV(ISC00)))		 //если прерывание вызвано спадом 
    4a8c:	05 b6       	in	r0, 0x35	; 53
    4a8e:	00 fc       	sbrc	r0, 0
    4a90:	28 c0       	rjmp	.+80     	; 0x4ae2 <__vector_1+0x88>
	{
		MCUCR |=_BV(ISC00); //следующее прерывание будет сгенерировано фронтом
    4a92:	e5 e5       	ldi	r30, 0x55	; 85
    4a94:	f0 e0       	ldi	r31, 0x00	; 0
    4a96:	80 81       	ld	r24, Z
    4a98:	81 60       	ori	r24, 0x01	; 1
    4a9a:	80 83       	st	Z, r24
		if (start_bit_received)//Если старт-бит принят, то идет прием пакета
    4a9c:	80 91 15 03 	lds	r24, 0x0315
    4aa0:	88 23       	and	r24, r24
    4aa2:	b1 f0       	breq	.+44     	; 0x4ad0 <__vector_1+0x76>
			{
				if((high_level_counter < (IR_SPACE + ERROR_TOLERANCE))&&(high_level_counter > (IR_SPACE - ERROR_TOLERANCE)))//Проверим длительность паузы между битами
    4aa4:	80 91 7c 03 	lds	r24, 0x037C
    4aa8:	90 91 7d 03 	lds	r25, 0x037D
    4aac:	89 35       	cpi	r24, 0x59	; 89
    4aae:	91 05       	cpc	r25, r1
    4ab0:	30 f4       	brcc	.+12     	; 0x4abe <__vector_1+0x64>
    4ab2:	80 91 7c 03 	lds	r24, 0x037C
    4ab6:	90 91 7d 03 	lds	r25, 0x037D
    4aba:	8e 97       	sbiw	r24, 0x2e	; 46
    4abc:	48 f4       	brcc	.+18     	; 0x4ad0 <__vector_1+0x76>
				{
					//длительность паузы между импульсами корректна
				}
				else //Длительность паузы между приемом битов не корректна
				{//Фиксируем ошибку приёма
						start_bit_received	= false; 	//отменяем прием
    4abe:	10 92 15 03 	sts	0x0315, r1
						bit_in_rx_buff = 0;				//очищаем буфер
    4ac2:	10 92 87 03 	sts	0x0387, r1
    4ac6:	10 92 86 03 	sts	0x0386, r1
						rx_event = RX_ERROR;			//генерируем событие - "ошибка приёма"
    4aca:	82 e0       	ldi	r24, 0x02	; 2
    4acc:	80 93 1c 03 	sts	0x031C, r24
//						TIMSK &= ~_BV(OCIE2);          // Запрещаем прерывания по захвату/сравнению
				}
			
			
			}		
		low_level_counter = 0;//Обнуляем счетчик длительности низкоуровнего сигнала на ножке ИК-приёмника
    4ad0:	10 92 0d 03 	sts	0x030D, r1
    4ad4:	10 92 0c 03 	sts	0x030C, r1
		high_level_counter = 0;//Обнуляем счетчик длительности высокоуровнего сигнала на ножке ИК-приёмника
    4ad8:	10 92 7d 03 	sts	0x037D, r1
    4adc:	10 92 7c 03 	sts	0x037C, r1
    4ae0:	6a c0       	rjmp	.+212    	; 0x4bb6 <__vector_1+0x15c>
	}
else 						//прерывание вызвано фронтом 
	{
		MCUCR &=~_BV(ISC00); //следующее прерывание будет сгенерировано спадом
    4ae2:	e5 e5       	ldi	r30, 0x55	; 85
    4ae4:	f0 e0       	ldi	r31, 0x00	; 0
    4ae6:	80 81       	ld	r24, Z
    4ae8:	8e 7f       	andi	r24, 0xFE	; 254
    4aea:	80 83       	st	Z, r24
		
		if (start_bit_received)//Если старт-бит принят, то идет прием пакета
    4aec:	80 91 15 03 	lds	r24, 0x0315
    4af0:	88 23       	and	r24, r24
    4af2:	09 f4       	brne	.+2      	; 0x4af6 <__vector_1+0x9c>
    4af4:	43 c0       	rjmp	.+134    	; 0x4b7c <__vector_1+0x122>
			{
				if((low_level_counter < (IR_ZERO + ERROR_TOLERANCE))&&(low_level_counter > (IR_ZERO - ERROR_TOLERANCE)))//Проверим, соответствует ли длительность пакета нулевому биту
    4af6:	80 91 0c 03 	lds	r24, 0x030C
    4afa:	90 91 0d 03 	lds	r25, 0x030D
    4afe:	89 35       	cpi	r24, 0x59	; 89
    4b00:	91 05       	cpc	r25, r1
    4b02:	a8 f4       	brcc	.+42     	; 0x4b2e <__vector_1+0xd4>
    4b04:	80 91 0c 03 	lds	r24, 0x030C
    4b08:	90 91 0d 03 	lds	r25, 0x030D
    4b0c:	8e 97       	sbiw	r24, 0x2e	; 46
    4b0e:	78 f0       	brcs	.+30     	; 0x4b2e <__vector_1+0xd4>
				{
					set_buffer_bit(bit_in_rx_buff++, false);//Длительность пачки соответствует биту со значением 0, заносим ноль в буфер приема
    4b10:	80 91 86 03 	lds	r24, 0x0386
    4b14:	90 91 87 03 	lds	r25, 0x0387
    4b18:	9c 01       	movw	r18, r24
    4b1a:	2f 5f       	subi	r18, 0xFF	; 255
    4b1c:	3f 4f       	sbci	r19, 0xFF	; 255
    4b1e:	30 93 87 03 	sts	0x0387, r19
    4b22:	20 93 86 03 	sts	0x0386, r18
    4b26:	60 e0       	ldi	r22, 0x00	; 0
    4b28:	0e 94 b8 09 	call	0x1370	; 0x1370 <set_buffer_bit>
    4b2c:	3c c0       	rjmp	.+120    	; 0x4ba6 <__vector_1+0x14c>
				
				}
				else //Нет, это не бит со значением 0
				{
					if((low_level_counter < (IR_ONE + ERROR_TOLERANCE))&&(low_level_counter > (IR_ONE - ERROR_TOLERANCE)))//, может это бит со значением 1?
    4b2e:	80 91 0c 03 	lds	r24, 0x030C
    4b32:	90 91 0d 03 	lds	r25, 0x030D
    4b36:	8c 39       	cpi	r24, 0x9C	; 156
    4b38:	91 05       	cpc	r25, r1
    4b3a:	b0 f4       	brcc	.+44     	; 0x4b68 <__vector_1+0x10e>
    4b3c:	80 91 0c 03 	lds	r24, 0x030C
    4b40:	90 91 0d 03 	lds	r25, 0x030D
    4b44:	81 37       	cpi	r24, 0x71	; 113
    4b46:	91 05       	cpc	r25, r1
    4b48:	78 f0       	brcs	.+30     	; 0x4b68 <__vector_1+0x10e>
					{
							set_buffer_bit(bit_in_rx_buff++, true);//Длительность пачки соответствует биту со значением 1, заносим еденицу в буфер приема		
    4b4a:	80 91 86 03 	lds	r24, 0x0386
    4b4e:	90 91 87 03 	lds	r25, 0x0387
    4b52:	9c 01       	movw	r18, r24
    4b54:	2f 5f       	subi	r18, 0xFF	; 255
    4b56:	3f 4f       	sbci	r19, 0xFF	; 255
    4b58:	30 93 87 03 	sts	0x0387, r19
    4b5c:	20 93 86 03 	sts	0x0386, r18
    4b60:	61 e0       	ldi	r22, 0x01	; 1
    4b62:	0e 94 b8 09 	call	0x1370	; 0x1370 <set_buffer_bit>
    4b66:	1f c0       	rjmp	.+62     	; 0x4ba6 <__vector_1+0x14c>
					}
					else //Это ни единица, ни ноль - это помеха 
					{
						start_bit_received	= false; 	//отменяем прием
    4b68:	10 92 15 03 	sts	0x0315, r1
						bit_in_rx_buff = 0;				//очищаем буфер
    4b6c:	10 92 87 03 	sts	0x0387, r1
    4b70:	10 92 86 03 	sts	0x0386, r1
						rx_event = RX_ERROR;			//генерируем событие - "ошибка приёма"
    4b74:	82 e0       	ldi	r24, 0x02	; 2
    4b76:	80 93 1c 03 	sts	0x031C, r24
    4b7a:	15 c0       	rjmp	.+42     	; 0x4ba6 <__vector_1+0x14c>
					}
				}
			}
		else //Старт-бит ещё не принят
		{
			if ((low_level_counter < (IR_START + ERROR_TOLERANCE))&&(low_level_counter > (IR_START - ERROR_TOLERANCE))) //Может это старт-бит?	
    4b7c:	80 91 0c 03 	lds	r24, 0x030C
    4b80:	90 91 0d 03 	lds	r25, 0x030D
    4b84:	82 52       	subi	r24, 0x22	; 34
    4b86:	91 40       	sbci	r25, 0x01	; 1
    4b88:	70 f4       	brcc	.+28     	; 0x4ba6 <__vector_1+0x14c>
    4b8a:	80 91 0c 03 	lds	r24, 0x030C
    4b8e:	90 91 0d 03 	lds	r25, 0x030D
    4b92:	87 3f       	cpi	r24, 0xF7	; 247
    4b94:	91 05       	cpc	r25, r1
    4b96:	38 f0       	brcs	.+14     	; 0x4ba6 <__vector_1+0x14c>
			{//Это старт-бит
				bit_in_rx_buff = 0;				//очищаем буфер
    4b98:	10 92 87 03 	sts	0x0387, r1
    4b9c:	10 92 86 03 	sts	0x0386, r1
				start_bit_received	= true; 	//разрешаем прием пакетов (бит)
    4ba0:	81 e0       	ldi	r24, 0x01	; 1
    4ba2:	80 93 15 03 	sts	0x0315, r24
				//Игнорируем
			}
		}
		
		
		low_level_counter = 0;//Обнуляем счетчик длительности низкоуровнего сигнала на ножке ИК-приёмника
    4ba6:	10 92 0d 03 	sts	0x030D, r1
    4baa:	10 92 0c 03 	sts	0x030C, r1
		high_level_counter = 0;//Обнуляем счетчик длительности высокоуровнего сигнала на ножке ИК-приёмника
    4bae:	10 92 7d 03 	sts	0x037D, r1
    4bb2:	10 92 7c 03 	sts	0x037C, r1
	


	}

}
    4bb6:	ff 91       	pop	r31
    4bb8:	ef 91       	pop	r30
    4bba:	bf 91       	pop	r27
    4bbc:	af 91       	pop	r26
    4bbe:	9f 91       	pop	r25
    4bc0:	8f 91       	pop	r24
    4bc2:	7f 91       	pop	r23
    4bc4:	6f 91       	pop	r22
    4bc6:	5f 91       	pop	r21
    4bc8:	4f 91       	pop	r20
    4bca:	3f 91       	pop	r19
    4bcc:	2f 91       	pop	r18
    4bce:	0f 90       	pop	r0
    4bd0:	0f be       	out	0x3f, r0	; 63
    4bd2:	0f 90       	pop	r0
    4bd4:	1f 90       	pop	r1
    4bd6:	18 95       	reti

00004bd8 <init_joystick>:
#include "ltag_ascetic.h"
//#include "joystick_driver_types.h"

void init_joystick(){
UP_KEY_DDR&=~UP_KEY_PIN;
    4bd8:	aa e3       	ldi	r26, 0x3A	; 58
    4bda:	b0 e0       	ldi	r27, 0x00	; 0
    4bdc:	8c 91       	ld	r24, X
    4bde:	87 7f       	andi	r24, 0xF7	; 247
    4be0:	8c 93       	st	X, r24
UP_KEY_PORT|=UP_KEY_PIN;
    4be2:	eb e3       	ldi	r30, 0x3B	; 59
    4be4:	f0 e0       	ldi	r31, 0x00	; 0
    4be6:	80 81       	ld	r24, Z
    4be8:	88 60       	ori	r24, 0x08	; 8
    4bea:	80 83       	st	Z, r24


RIGHT_KEY_DDR&=~RIGHT_KEY_PIN;
    4bec:	8c 91       	ld	r24, X
    4bee:	8b 7f       	andi	r24, 0xFB	; 251
    4bf0:	8c 93       	st	X, r24
RIGHT_KEY_PORT|=RIGHT_KEY_PIN;
    4bf2:	80 81       	ld	r24, Z
    4bf4:	84 60       	ori	r24, 0x04	; 4
    4bf6:	80 83       	st	Z, r24

DOWN_KEY_DDR&=~DOWN_KEY_PIN;
    4bf8:	8c 91       	ld	r24, X
    4bfa:	8f 7d       	andi	r24, 0xDF	; 223
    4bfc:	8c 93       	st	X, r24
DOWN_KEY_PORT|=DOWN_KEY_PIN;
    4bfe:	80 81       	ld	r24, Z
    4c00:	80 62       	ori	r24, 0x20	; 32
    4c02:	80 83       	st	Z, r24

LEFT_KEY_DDR&=~LEFT_KEY_PIN;
    4c04:	8c 91       	ld	r24, X
    4c06:	8f 7b       	andi	r24, 0xBF	; 191
    4c08:	8c 93       	st	X, r24
LEFT_KEY_PORT|=LEFT_KEY_PIN;
    4c0a:	80 81       	ld	r24, Z
    4c0c:	80 64       	ori	r24, 0x40	; 64
    4c0e:	80 83       	st	Z, r24

CENTRAL_KEY_DDR&=~CENTRAL_KEY_PIN;
    4c10:	8c 91       	ld	r24, X
    4c12:	8f 7e       	andi	r24, 0xEF	; 239
    4c14:	8c 93       	st	X, r24
CENTRAL_KEY_PORT|=CENTRAL_KEY_PIN;
    4c16:	80 81       	ld	r24, Z
    4c18:	80 61       	ori	r24, 0x10	; 16
    4c1a:	80 83       	st	Z, r24

joystick_key_pressing_duration.key_up=0;
    4c1c:	af e1       	ldi	r26, 0x1F	; 31
    4c1e:	b3 e0       	ldi	r27, 0x03	; 3
    4c20:	fd 01       	movw	r30, r26
    4c22:	11 82       	std	Z+1, r1	; 0x01
    4c24:	10 82       	st	Z, r1
    4c26:	32 96       	adiw	r30, 0x02	; 2
joystick_key_pressing_duration.key_up_inc=1;
    4c28:	80 81       	ld	r24, Z
    4c2a:	81 60       	ori	r24, 0x01	; 1
    4c2c:	80 83       	st	Z, r24
joystick_key_pressing_duration.key_right=0;
    4c2e:	fd 01       	movw	r30, r26
    4c30:	33 96       	adiw	r30, 0x03	; 3
    4c32:	11 82       	std	Z+1, r1	; 0x01
    4c34:	10 82       	st	Z, r1
joystick_key_pressing_duration.key_right_inc=1;
    4c36:	fd 01       	movw	r30, r26
    4c38:	35 96       	adiw	r30, 0x05	; 5
    4c3a:	80 81       	ld	r24, Z
    4c3c:	81 60       	ori	r24, 0x01	; 1
    4c3e:	80 83       	st	Z, r24
joystick_key_pressing_duration.key_down=0;
    4c40:	fd 01       	movw	r30, r26
    4c42:	36 96       	adiw	r30, 0x06	; 6
    4c44:	11 82       	std	Z+1, r1	; 0x01
    4c46:	10 82       	st	Z, r1
joystick_key_pressing_duration.key_down_inc=1;
    4c48:	fd 01       	movw	r30, r26
    4c4a:	38 96       	adiw	r30, 0x08	; 8
    4c4c:	80 81       	ld	r24, Z
    4c4e:	81 60       	ori	r24, 0x01	; 1
    4c50:	80 83       	st	Z, r24
joystick_key_pressing_duration.key_left=0;
    4c52:	fd 01       	movw	r30, r26
    4c54:	39 96       	adiw	r30, 0x09	; 9
    4c56:	11 82       	std	Z+1, r1	; 0x01
    4c58:	10 82       	st	Z, r1
joystick_key_pressing_duration.key_left_inc=1;
    4c5a:	fd 01       	movw	r30, r26
    4c5c:	3b 96       	adiw	r30, 0x0b	; 11
    4c5e:	80 81       	ld	r24, Z
    4c60:	81 60       	ori	r24, 0x01	; 1
    4c62:	80 83       	st	Z, r24
joystick_key_pressing_duration.key_central=0;
    4c64:	fd 01       	movw	r30, r26
    4c66:	3c 96       	adiw	r30, 0x0c	; 12
    4c68:	11 82       	std	Z+1, r1	; 0x01
    4c6a:	10 82       	st	Z, r1
joystick_key_pressing_duration.key_central_inc=1;
    4c6c:	1e 96       	adiw	r26, 0x0e	; 14
    4c6e:	8c 91       	ld	r24, X
    4c70:	81 60       	ori	r24, 0x01	; 1
    4c72:	8c 93       	st	X, r24

}
    4c74:	08 95       	ret

00004c76 <get_joystick_status>:


uint8_t get_joystick_status(){
uint8_t result;
result = 0;
if ((UP_KEY_IN & UP_KEY_PIN) CONDITION_FOR_THE_BUTTON_PRESSED) result |=UP_KEY_MASK;
    4c76:	e9 e3       	ldi	r30, 0x39	; 57
    4c78:	f0 e0       	ldi	r31, 0x00	; 0
    4c7a:	80 81       	ld	r24, Z
    4c7c:	86 95       	lsr	r24
    4c7e:	86 95       	lsr	r24
    4c80:	86 95       	lsr	r24
    4c82:	80 95       	com	r24
    4c84:	98 2f       	mov	r25, r24
    4c86:	91 70       	andi	r25, 0x01	; 1
if ((RIGHT_KEY_IN & RIGHT_KEY_PIN) CONDITION_FOR_THE_BUTTON_PRESSED) result |=RIGHT_KEY_MASK;
    4c88:	80 81       	ld	r24, Z
    4c8a:	82 ff       	sbrs	r24, 2
    4c8c:	92 60       	ori	r25, 0x02	; 2
if ((DOWN_KEY_IN & DOWN_KEY_PIN) CONDITION_FOR_THE_BUTTON_PRESSED) result |=DOWN_KEY_MASK;
    4c8e:	cd 9b       	sbis	0x19, 5	; 25
    4c90:	94 60       	ori	r25, 0x04	; 4
if ((LEFT_KEY_IN & LEFT_KEY_PIN) CONDITION_FOR_THE_BUTTON_PRESSED) result |=LEFT_KEY_MASK;
    4c92:	ce 9b       	sbis	0x19, 6	; 25
    4c94:	98 60       	ori	r25, 0x08	; 8
if ((CENTRAL_KEY_IN & CENTRAL_KEY_PIN) CONDITION_FOR_THE_BUTTON_PRESSED) result |=CENTRAL_KEY_MASK;
    4c96:	cc 9b       	sbis	0x19, 4	; 25
    4c98:	90 61       	ori	r25, 0x10	; 16
return result;


}
    4c9a:	89 2f       	mov	r24, r25
    4c9c:	08 95       	ret

00004c9e <test_joystick>:

TJOYSTICK_EVENT result;
result = no_pressing;

uint8_t j_status;
j_status = get_joystick_status();
    4c9e:	0e 94 3b 26 	call	0x4c76	; 0x4c76 <get_joystick_status>

switch(j_status)  //проверяем, что нажато
    4ca2:	82 30       	cpi	r24, 0x02	; 2
    4ca4:	91 f1       	breq	.+100    	; 0x4d0a <test_joystick+0x6c>
    4ca6:	83 30       	cpi	r24, 0x03	; 3
    4ca8:	38 f4       	brcc	.+14     	; 0x4cb8 <test_joystick+0x1a>
    4caa:	88 23       	and	r24, r24
    4cac:	09 f4       	brne	.+2      	; 0x4cb0 <test_joystick+0x12>
    4cae:	a9 c0       	rjmp	.+338    	; 0x4e02 <test_joystick+0x164>
    4cb0:	81 30       	cpi	r24, 0x01	; 1
    4cb2:	09 f0       	breq	.+2      	; 0x4cb6 <test_joystick+0x18>
    4cb4:	aa c0       	rjmp	.+340    	; 0x4e0a <test_joystick+0x16c>
    4cb6:	0a c0       	rjmp	.+20     	; 0x4ccc <test_joystick+0x2e>
    4cb8:	88 30       	cpi	r24, 0x08	; 8
    4cba:	09 f4       	brne	.+2      	; 0x4cbe <test_joystick+0x20>
    4cbc:	64 c0       	rjmp	.+200    	; 0x4d86 <test_joystick+0xe8>
    4cbe:	80 31       	cpi	r24, 0x10	; 16
    4cc0:	09 f4       	brne	.+2      	; 0x4cc4 <test_joystick+0x26>
    4cc2:	80 c0       	rjmp	.+256    	; 0x4dc4 <test_joystick+0x126>
    4cc4:	84 30       	cpi	r24, 0x04	; 4
    4cc6:	09 f0       	breq	.+2      	; 0x4cca <test_joystick+0x2c>
    4cc8:	a0 c0       	rjmp	.+320    	; 0x4e0a <test_joystick+0x16c>
    4cca:	3e c0       	rjmp	.+124    	; 0x4d48 <test_joystick+0xaa>
	{
	
		case UP_KEY_MASK: 
			{
				if(joystick_key_pressing_duration.key_up>= SHORT_DURATION)
    4ccc:	80 91 1f 03 	lds	r24, 0x031F
    4cd0:	90 91 20 03 	lds	r25, 0x0320
    4cd4:	04 97       	sbiw	r24, 0x04	; 4
    4cd6:	50 f0       	brcs	.+20     	; 0x4cec <test_joystick+0x4e>
				{
					result=key_up_pressing;
             		joystick_key_pressing_duration.key_up    =0;
    4cd8:	ef e1       	ldi	r30, 0x1F	; 31
    4cda:	f3 e0       	ldi	r31, 0x03	; 3
    4cdc:	11 82       	std	Z+1, r1	; 0x01
    4cde:	10 82       	st	Z, r1
    4ce0:	32 96       	adiw	r30, 0x02	; 2
                	joystick_key_pressing_duration.key_up_inc=0;
    4ce2:	80 81       	ld	r24, Z
    4ce4:	8e 7f       	andi	r24, 0xFE	; 254
    4ce6:	80 83       	st	Z, r24
    4ce8:	81 e0       	ldi	r24, 0x01	; 1
    4cea:	08 95       	ret
				} 
				else
				{
					joystick_key_pressing_duration.key_up += joystick_key_pressing_duration.key_up_inc;
    4cec:	af e1       	ldi	r26, 0x1F	; 31
    4cee:	b3 e0       	ldi	r27, 0x03	; 3
    4cf0:	fd 01       	movw	r30, r26
    4cf2:	81 91       	ld	r24, Z+
    4cf4:	91 91       	ld	r25, Z+
    4cf6:	20 81       	ld	r18, Z
    4cf8:	21 70       	andi	r18, 0x01	; 1
    4cfa:	82 0f       	add	r24, r18
    4cfc:	91 1d       	adc	r25, r1
    4cfe:	11 96       	adiw	r26, 0x01	; 1
    4d00:	9c 93       	st	X, r25
    4d02:	8e 93       	st	-X, r24
					result = joystick_event;
    4d04:	80 91 0b 03 	lds	r24, 0x030B
    4d08:	08 95       	ret
		break;
		
		case RIGHT_KEY_MASK: 
			{
			
				if(joystick_key_pressing_duration.key_right>= SHORT_DURATION)
    4d0a:	80 91 22 03 	lds	r24, 0x0322
    4d0e:	90 91 23 03 	lds	r25, 0x0323
    4d12:	04 97       	sbiw	r24, 0x04	; 4
    4d14:	50 f0       	brcs	.+20     	; 0x4d2a <test_joystick+0x8c>
				{
					result=key_right_pressing;
             		joystick_key_pressing_duration.key_right    =0;
    4d16:	e2 e2       	ldi	r30, 0x22	; 34
    4d18:	f3 e0       	ldi	r31, 0x03	; 3
    4d1a:	11 82       	std	Z+1, r1	; 0x01
    4d1c:	10 82       	st	Z, r1
    4d1e:	32 96       	adiw	r30, 0x02	; 2
                	joystick_key_pressing_duration.key_right_inc=0;
    4d20:	80 81       	ld	r24, Z
    4d22:	8e 7f       	andi	r24, 0xFE	; 254
    4d24:	80 83       	st	Z, r24
    4d26:	82 e0       	ldi	r24, 0x02	; 2
    4d28:	08 95       	ret
				} 
				else
				{
					joystick_key_pressing_duration.key_right += joystick_key_pressing_duration.key_right_inc;
    4d2a:	a2 e2       	ldi	r26, 0x22	; 34
    4d2c:	b3 e0       	ldi	r27, 0x03	; 3
    4d2e:	fd 01       	movw	r30, r26
    4d30:	81 91       	ld	r24, Z+
    4d32:	91 91       	ld	r25, Z+
    4d34:	20 81       	ld	r18, Z
    4d36:	21 70       	andi	r18, 0x01	; 1
    4d38:	82 0f       	add	r24, r18
    4d3a:	91 1d       	adc	r25, r1
    4d3c:	11 96       	adiw	r26, 0x01	; 1
    4d3e:	9c 93       	st	X, r25
    4d40:	8e 93       	st	-X, r24
					result = joystick_event;
    4d42:	80 91 0b 03 	lds	r24, 0x030B
    4d46:	08 95       	ret
			}
		break;
	
		case DOWN_KEY_MASK: 
			{
				if(joystick_key_pressing_duration.key_down>= SHORT_DURATION)
    4d48:	80 91 25 03 	lds	r24, 0x0325
    4d4c:	90 91 26 03 	lds	r25, 0x0326
    4d50:	04 97       	sbiw	r24, 0x04	; 4
    4d52:	50 f0       	brcs	.+20     	; 0x4d68 <test_joystick+0xca>
				{
					result=key_down_pressing;
             		joystick_key_pressing_duration.key_down    =0;
    4d54:	e5 e2       	ldi	r30, 0x25	; 37
    4d56:	f3 e0       	ldi	r31, 0x03	; 3
    4d58:	11 82       	std	Z+1, r1	; 0x01
    4d5a:	10 82       	st	Z, r1
    4d5c:	32 96       	adiw	r30, 0x02	; 2
                	joystick_key_pressing_duration.key_down_inc=0;
    4d5e:	80 81       	ld	r24, Z
    4d60:	8e 7f       	andi	r24, 0xFE	; 254
    4d62:	80 83       	st	Z, r24
    4d64:	83 e0       	ldi	r24, 0x03	; 3
    4d66:	08 95       	ret
				} 
				else
				{
					joystick_key_pressing_duration.key_down += joystick_key_pressing_duration.key_down_inc;
    4d68:	a5 e2       	ldi	r26, 0x25	; 37
    4d6a:	b3 e0       	ldi	r27, 0x03	; 3
    4d6c:	fd 01       	movw	r30, r26
    4d6e:	81 91       	ld	r24, Z+
    4d70:	91 91       	ld	r25, Z+
    4d72:	20 81       	ld	r18, Z
    4d74:	21 70       	andi	r18, 0x01	; 1
    4d76:	82 0f       	add	r24, r18
    4d78:	91 1d       	adc	r25, r1
    4d7a:	11 96       	adiw	r26, 0x01	; 1
    4d7c:	9c 93       	st	X, r25
    4d7e:	8e 93       	st	-X, r24
					result = joystick_event;
    4d80:	80 91 0b 03 	lds	r24, 0x030B
    4d84:	08 95       	ret
			}
		break;

		case LEFT_KEY_MASK: 
			{
				if(joystick_key_pressing_duration.key_left>= SHORT_DURATION)
    4d86:	80 91 28 03 	lds	r24, 0x0328
    4d8a:	90 91 29 03 	lds	r25, 0x0329
    4d8e:	04 97       	sbiw	r24, 0x04	; 4
    4d90:	50 f0       	brcs	.+20     	; 0x4da6 <test_joystick+0x108>
				{
					result=key_left_pressing;
             		joystick_key_pressing_duration.key_left    =0;
    4d92:	e8 e2       	ldi	r30, 0x28	; 40
    4d94:	f3 e0       	ldi	r31, 0x03	; 3
    4d96:	11 82       	std	Z+1, r1	; 0x01
    4d98:	10 82       	st	Z, r1
    4d9a:	32 96       	adiw	r30, 0x02	; 2
                	joystick_key_pressing_duration.key_left_inc=0;
    4d9c:	80 81       	ld	r24, Z
    4d9e:	8e 7f       	andi	r24, 0xFE	; 254
    4da0:	80 83       	st	Z, r24
    4da2:	84 e0       	ldi	r24, 0x04	; 4
    4da4:	08 95       	ret
				} 
				else
				{
					joystick_key_pressing_duration.key_left += joystick_key_pressing_duration.key_left_inc;
    4da6:	a8 e2       	ldi	r26, 0x28	; 40
    4da8:	b3 e0       	ldi	r27, 0x03	; 3
    4daa:	fd 01       	movw	r30, r26
    4dac:	81 91       	ld	r24, Z+
    4dae:	91 91       	ld	r25, Z+
    4db0:	20 81       	ld	r18, Z
    4db2:	21 70       	andi	r18, 0x01	; 1
    4db4:	82 0f       	add	r24, r18
    4db6:	91 1d       	adc	r25, r1
    4db8:	11 96       	adiw	r26, 0x01	; 1
    4dba:	9c 93       	st	X, r25
    4dbc:	8e 93       	st	-X, r24
					result = joystick_event;
    4dbe:	80 91 0b 03 	lds	r24, 0x030B
    4dc2:	08 95       	ret
			
			}
		break;
		case CENTRAL_KEY_MASK: 
			{
				if(joystick_key_pressing_duration.key_central>= SHORT_DURATION)
    4dc4:	80 91 2b 03 	lds	r24, 0x032B
    4dc8:	90 91 2c 03 	lds	r25, 0x032C
    4dcc:	04 97       	sbiw	r24, 0x04	; 4
    4dce:	50 f0       	brcs	.+20     	; 0x4de4 <test_joystick+0x146>
				{
					result=key_central_pressing;
             		joystick_key_pressing_duration.key_central    =0;
    4dd0:	eb e2       	ldi	r30, 0x2B	; 43
    4dd2:	f3 e0       	ldi	r31, 0x03	; 3
    4dd4:	11 82       	std	Z+1, r1	; 0x01
    4dd6:	10 82       	st	Z, r1
    4dd8:	32 96       	adiw	r30, 0x02	; 2
                	joystick_key_pressing_duration.key_central_inc=0;
    4dda:	80 81       	ld	r24, Z
    4ddc:	8e 7f       	andi	r24, 0xFE	; 254
    4dde:	80 83       	st	Z, r24
    4de0:	85 e0       	ldi	r24, 0x05	; 5
    4de2:	08 95       	ret
				} 
				else
				{
					joystick_key_pressing_duration.key_central += joystick_key_pressing_duration.key_central_inc;
    4de4:	ab e2       	ldi	r26, 0x2B	; 43
    4de6:	b3 e0       	ldi	r27, 0x03	; 3
    4de8:	fd 01       	movw	r30, r26
    4dea:	81 91       	ld	r24, Z+
    4dec:	91 91       	ld	r25, Z+
    4dee:	20 81       	ld	r18, Z
    4df0:	21 70       	andi	r18, 0x01	; 1
    4df2:	82 0f       	add	r24, r18
    4df4:	91 1d       	adc	r25, r1
    4df6:	11 96       	adiw	r26, 0x01	; 1
    4df8:	9c 93       	st	X, r25
    4dfa:	8e 93       	st	-X, r24
					result = joystick_event;
    4dfc:	80 91 0b 03 	lds	r24, 0x030B
    4e00:	08 95       	ret
			}
		break;

		case 0:
		{
			init_joystick();
    4e02:	0e 94 ec 25 	call	0x4bd8	; 0x4bd8 <init_joystick>
    4e06:	80 e0       	ldi	r24, 0x00	; 0
    4e08:	08 95       	ret
		}
		break;
		default:
		{
			joystick_key_pressing_duration.key_up=0;
    4e0a:	af e1       	ldi	r26, 0x1F	; 31
    4e0c:	b3 e0       	ldi	r27, 0x03	; 3
    4e0e:	fd 01       	movw	r30, r26
    4e10:	11 82       	std	Z+1, r1	; 0x01
    4e12:	10 82       	st	Z, r1
    4e14:	32 96       	adiw	r30, 0x02	; 2
			joystick_key_pressing_duration.key_up_inc=0;
    4e16:	80 81       	ld	r24, Z
    4e18:	8e 7f       	andi	r24, 0xFE	; 254
    4e1a:	80 83       	st	Z, r24
			joystick_key_pressing_duration.key_right=0;
    4e1c:	fd 01       	movw	r30, r26
    4e1e:	33 96       	adiw	r30, 0x03	; 3
    4e20:	11 82       	std	Z+1, r1	; 0x01
    4e22:	10 82       	st	Z, r1
			joystick_key_pressing_duration.key_right_inc=0;
    4e24:	fd 01       	movw	r30, r26
    4e26:	35 96       	adiw	r30, 0x05	; 5
    4e28:	80 81       	ld	r24, Z
    4e2a:	8e 7f       	andi	r24, 0xFE	; 254
    4e2c:	80 83       	st	Z, r24
			joystick_key_pressing_duration.key_down=0;
    4e2e:	fd 01       	movw	r30, r26
    4e30:	36 96       	adiw	r30, 0x06	; 6
    4e32:	11 82       	std	Z+1, r1	; 0x01
    4e34:	10 82       	st	Z, r1
			joystick_key_pressing_duration.key_down_inc=0;
    4e36:	fd 01       	movw	r30, r26
    4e38:	38 96       	adiw	r30, 0x08	; 8
    4e3a:	80 81       	ld	r24, Z
    4e3c:	8e 7f       	andi	r24, 0xFE	; 254
    4e3e:	80 83       	st	Z, r24
			joystick_key_pressing_duration.key_left=0;
    4e40:	fd 01       	movw	r30, r26
    4e42:	39 96       	adiw	r30, 0x09	; 9
    4e44:	11 82       	std	Z+1, r1	; 0x01
    4e46:	10 82       	st	Z, r1
			joystick_key_pressing_duration.key_left_inc=0;
    4e48:	fd 01       	movw	r30, r26
    4e4a:	3b 96       	adiw	r30, 0x0b	; 11
    4e4c:	80 81       	ld	r24, Z
    4e4e:	8e 7f       	andi	r24, 0xFE	; 254
    4e50:	80 83       	st	Z, r24
			joystick_key_pressing_duration.key_central=0;
    4e52:	fd 01       	movw	r30, r26
    4e54:	3c 96       	adiw	r30, 0x0c	; 12
    4e56:	11 82       	std	Z+1, r1	; 0x01
    4e58:	10 82       	st	Z, r1
			joystick_key_pressing_duration.key_central_inc=0;
    4e5a:	1e 96       	adiw	r26, 0x0e	; 14
    4e5c:	8c 91       	ld	r24, X
    4e5e:	8e 7f       	andi	r24, 0xFE	; 254
    4e60:	8c 93       	st	X, r24
    4e62:	80 e0       	ldi	r24, 0x00	; 0
		} 
	
	}

return result;
} 
    4e64:	08 95       	ret

00004e66 <USART_Init>:
volatile unsigned char rxCount = 0;

//инициализация usart`a
void USART_Init(void)
{
  UBRRH = UBRRH_VALUE;
    4e66:	a0 e4       	ldi	r26, 0x40	; 64
    4e68:	b0 e0       	ldi	r27, 0x00	; 0
    4e6a:	1c 92       	st	X, r1
  UBRRL = UBRRL_VALUE;
    4e6c:	87 e6       	ldi	r24, 0x67	; 103
    4e6e:	89 b9       	out	0x09, r24	; 9
  #if USE_2X
   UCSRA |= (1 << U2X);
  #else
   UCSRA &= (~(1 << U2X));
    4e70:	eb e2       	ldi	r30, 0x2B	; 43
    4e72:	f0 e0       	ldi	r31, 0x00	; 0
    4e74:	80 81       	ld	r24, Z
    4e76:	8d 7f       	andi	r24, 0xFD	; 253
    4e78:	80 83       	st	Z, r24
  #endif
  UCSRB = (1<<RXCIE)/*|(1<<TXCIE)*/|(1<<RXEN)|(1<<TXEN); //разр. прерыв при приеме и передачи, разр приема, разр передачи.
    4e7a:	88 e9       	ldi	r24, 0x98	; 152
    4e7c:	8a b9       	out	0x0a, r24	; 10
  UCSRC = (1<<URSEL)|(1<<UCSZ1)|(1<<UCSZ0); //размер слова 8 разрядов
    4e7e:	86 e8       	ldi	r24, 0x86	; 134
    4e80:	8c 93       	st	X, r24
}
    4e82:	08 95       	ret

00004e84 <USART_GetTxCount>:

//______________________________________________________________________________
//возвращает колличество символов передающего буфера
unsigned char USART_GetTxCount(void)
{
  return txCount;  
    4e84:	80 91 f2 02 	lds	r24, 0x02F2
}
    4e88:	08 95       	ret

00004e8a <USART_FlushTxBuf>:

//"очищает" передающий буфер
void USART_FlushTxBuf(void)
{
  txBufTail = 0;
    4e8a:	10 92 f0 02 	sts	0x02F0, r1
  txBufHead = 0;
    4e8e:	10 92 f1 02 	sts	0x02F1, r1
  txCount = 0;
    4e92:	10 92 f2 02 	sts	0x02F2, r1
}
    4e96:	08 95       	ret

00004e98 <USART_PutChar>:

//помещает символ в буфер, инициирует начало передачи
void USART_PutChar(unsigned char sym)
{
    4e98:	98 2f       	mov	r25, r24
 
 while ((UCSRA & (1<<UDRE)) == 0){};
    4e9a:	eb e2       	ldi	r30, 0x2B	; 43
    4e9c:	f0 e0       	ldi	r31, 0x00	; 0
    4e9e:	80 81       	ld	r24, Z
    4ea0:	85 ff       	sbrs	r24, 5
    4ea2:	fd cf       	rjmp	.-6      	; 0x4e9e <USART_PutChar+0x6>
 UDR = sym;
    4ea4:	9c b9       	out	0x0c, r25	; 12
      txBufTail++;                 //и индекс хвоста буфера
      if (txBufTail == SIZE_BUF) txBufTail = 0;
    }
  }
*/
}
    4ea6:	08 95       	ret

00004ea8 <USART_SendStr>:

//функция посылающая строку по usart`у
void USART_SendStr(char * data)
{
    4ea8:	cf 93       	push	r28
    4eaa:	df 93       	push	r29
    4eac:	fc 01       	movw	r30, r24
  unsigned char sym;
//  while(*data)
  while((sym = *data++)){
    4eae:	80 81       	ld	r24, Z
    4eb0:	88 23       	and	r24, r24
    4eb2:	39 f0       	breq	.+14     	; 0x4ec2 <USART_SendStr+0x1a>
    4eb4:	ef 01       	movw	r28, r30
    
    USART_PutChar(sym);
    4eb6:	0e 94 4c 27 	call	0x4e98	; 0x4e98 <USART_PutChar>
//функция посылающая строку по usart`у
void USART_SendStr(char * data)
{
  unsigned char sym;
//  while(*data)
  while((sym = *data++)){
    4eba:	89 81       	ldd	r24, Y+1	; 0x01
    4ebc:	21 96       	adiw	r28, 0x01	; 1
    4ebe:	88 23       	and	r24, r24
    4ec0:	d1 f7       	brne	.-12     	; 0x4eb6 <USART_SendStr+0xe>
    
    USART_PutChar(sym);
  }
}
    4ec2:	df 91       	pop	r29
    4ec4:	cf 91       	pop	r28
    4ec6:	08 95       	ret

00004ec8 <USART_SendStrP>:

//функция посылающая строку из памяти программ по usart`у

void USART_SendStrP(char * data)
{
    4ec8:	cf 93       	push	r28
    4eca:	df 93       	push	r29
    4ecc:	fc 01       	movw	r30, r24
  unsigned char sym;
//  while(*data)
  while((sym = pgm_read_byte(data++))){
    4ece:	84 91       	lpm	r24, Z+
    4ed0:	88 23       	and	r24, r24
    4ed2:	49 f0       	breq	.+18     	; 0x4ee6 <USART_SendStrP+0x1e>
    4ed4:	ef 01       	movw	r28, r30
    4ed6:	21 96       	adiw	r28, 0x01	; 1
    
    USART_PutChar(sym);
    4ed8:	0e 94 4c 27 	call	0x4e98	; 0x4e98 <USART_PutChar>
    4edc:	fe 01       	movw	r30, r28

void USART_SendStrP(char * data)
{
  unsigned char sym;
//  while(*data)
  while((sym = pgm_read_byte(data++))){
    4ede:	21 96       	adiw	r28, 0x01	; 1
    4ee0:	84 91       	lpm	r24, Z+
    4ee2:	88 23       	and	r24, r24
    4ee4:	c9 f7       	brne	.-14     	; 0x4ed8 <USART_SendStrP+0x10>
    
    USART_PutChar(sym);
  }
}
    4ee6:	df 91       	pop	r29
    4ee8:	cf 91       	pop	r28
    4eea:	08 95       	ret

00004eec <__vector_15>:
//обработчик прерывания по завершению передачи 
ISR(USART_TXC_vect)
{
    4eec:	1f 92       	push	r1
    4eee:	0f 92       	push	r0
    4ef0:	0f b6       	in	r0, 0x3f	; 63
    4ef2:	0f 92       	push	r0
    4ef4:	11 24       	eor	r1, r1
    4ef6:	8f 93       	push	r24
    4ef8:	ef 93       	push	r30
    4efa:	ff 93       	push	r31
  if (txCount > 0){              //если буфер не пустой
    4efc:	80 91 f2 02 	lds	r24, 0x02F2
    4f00:	88 23       	and	r24, r24
    4f02:	a1 f0       	breq	.+40     	; 0x4f2c <__vector_15+0x40>
    UDR = usartTxBuf[txBufHead]; //записываем в UDR символ из буфера
    4f04:	80 91 f1 02 	lds	r24, 0x02F1
    4f08:	e9 e8       	ldi	r30, 0x89	; 137
    4f0a:	f3 e0       	ldi	r31, 0x03	; 3
    4f0c:	e8 0f       	add	r30, r24
    4f0e:	f1 1d       	adc	r31, r1
    4f10:	80 81       	ld	r24, Z
    4f12:	8c b9       	out	0x0c, r24	; 12
    txCount--;                   //уменьшаем счетчик символов
    4f14:	80 91 f2 02 	lds	r24, 0x02F2
    4f18:	81 50       	subi	r24, 0x01	; 1
    4f1a:	80 93 f2 02 	sts	0x02F2, r24
    txBufHead++;                 //инкрементируем индекс головы буфера
    4f1e:	80 91 f1 02 	lds	r24, 0x02F1
    4f22:	8f 5f       	subi	r24, 0xFF	; 255
    4f24:	80 93 f1 02 	sts	0x02F1, r24
    if (txBufHead == SIZE_BUF) txBufHead = 0;
    4f28:	80 91 f1 02 	lds	r24, 0x02F1
  } 
} 
    4f2c:	ff 91       	pop	r31
    4f2e:	ef 91       	pop	r30
    4f30:	8f 91       	pop	r24
    4f32:	0f 90       	pop	r0
    4f34:	0f be       	out	0x3f, r0	; 63
    4f36:	0f 90       	pop	r0
    4f38:	1f 90       	pop	r1
    4f3a:	18 95       	reti

00004f3c <USART_GetRxCount>:

//______________________________________________________________________________
//возвращает колличество символов находящихся в приемном буфере
unsigned char USART_GetRxCount(void)
{
  return rxCount;  
    4f3c:	80 91 f5 02 	lds	r24, 0x02F5
}
    4f40:	08 95       	ret

00004f42 <USART_FlushRxBuf>:

//"очищает" приемный буфер
void USART_FlushRxBuf(void)
{
  DisableRxInt(); //запрещаем прерывание по заверщению приема
    4f42:	ea e2       	ldi	r30, 0x2A	; 42
    4f44:	f0 e0       	ldi	r31, 0x00	; 0
    4f46:	80 81       	ld	r24, Z
    4f48:	8f 77       	andi	r24, 0x7F	; 127
    4f4a:	80 83       	st	Z, r24
  rxBufTail = 0;
    4f4c:	10 92 f3 02 	sts	0x02F3, r1
  rxBufHead = 0;
    4f50:	10 92 f4 02 	sts	0x02F4, r1
  rxCount = 0;
    4f54:	10 92 f5 02 	sts	0x02F5, r1
  EnableRxInt();
    4f58:	80 81       	ld	r24, Z
    4f5a:	80 68       	ori	r24, 0x80	; 128
    4f5c:	80 83       	st	Z, r24
}
    4f5e:	08 95       	ret

00004f60 <USART_GetChar>:

//чтение буфера
unsigned char USART_GetChar(void)
{
  unsigned char sym;
  if (rxCount > 0){                     //если приемный буфер не пустой  
    4f60:	80 91 f5 02 	lds	r24, 0x02F5
    4f64:	88 23       	and	r24, r24
    4f66:	11 f4       	brne	.+4      	; 0x4f6c <USART_GetChar+0xc>
    4f68:	e0 e0       	ldi	r30, 0x00	; 0
    4f6a:	13 c0       	rjmp	.+38     	; 0x4f92 <USART_GetChar+0x32>
    sym = usartRxBuf[rxBufHead];        //прочитать из него символ    
    4f6c:	80 91 f4 02 	lds	r24, 0x02F4
    4f70:	e9 e8       	ldi	r30, 0x89	; 137
    4f72:	f4 e0       	ldi	r31, 0x04	; 4
    4f74:	e8 0f       	add	r30, r24
    4f76:	f1 1d       	adc	r31, r1
    4f78:	e0 81       	ld	r30, Z
    rxCount--;                          //уменьшить счетчик символов
    4f7a:	80 91 f5 02 	lds	r24, 0x02F5
    4f7e:	81 50       	subi	r24, 0x01	; 1
    4f80:	80 93 f5 02 	sts	0x02F5, r24
    rxBufHead++;                        //инкрементировать индекс головы буфера  
    4f84:	80 91 f4 02 	lds	r24, 0x02F4
    4f88:	8f 5f       	subi	r24, 0xFF	; 255
    4f8a:	80 93 f4 02 	sts	0x02F4, r24
    if (rxBufHead == SIZE_BUF) rxBufHead = 0;
    4f8e:	80 91 f4 02 	lds	r24, 0x02F4
    return sym;                         //вернуть прочитанный символ
  }
  return 0;
}
    4f92:	8e 2f       	mov	r24, r30
    4f94:	08 95       	ret

00004f96 <__vector_13>:


//прерывание по завершению приема
ISR(USART_RXC_vect) 
{
    4f96:	1f 92       	push	r1
    4f98:	0f 92       	push	r0
    4f9a:	0f b6       	in	r0, 0x3f	; 63
    4f9c:	0f 92       	push	r0
    4f9e:	11 24       	eor	r1, r1
    4fa0:	8f 93       	push	r24
    4fa2:	9f 93       	push	r25
    4fa4:	af 93       	push	r26
    4fa6:	bf 93       	push	r27
    4fa8:	ef 93       	push	r30
    4faa:	ff 93       	push	r31
  
  if (rxCount < SIZE_BUF){                //если в буфере еще есть место                     	
    4fac:	80 91 f5 02 	lds	r24, 0x02F5
      usartRxBuf[rxBufTail] = UDR;        //считать символ из UDR в буфер
    4fb0:	80 91 f3 02 	lds	r24, 0x02F3
    4fb4:	9c b1       	in	r25, 0x0c	; 12
    4fb6:	e9 e8       	ldi	r30, 0x89	; 137
    4fb8:	f4 e0       	ldi	r31, 0x04	; 4
    4fba:	df 01       	movw	r26, r30
    4fbc:	a8 0f       	add	r26, r24
    4fbe:	b1 1d       	adc	r27, r1
    4fc0:	9c 93       	st	X, r25
      if (usartRxBuf[rxBufTail]=='\r')
    4fc2:	80 91 f3 02 	lds	r24, 0x02F3
    4fc6:	e8 0f       	add	r30, r24
    4fc8:	f1 1d       	adc	r31, r1
    4fca:	80 81       	ld	r24, Z
    4fcc:	8d 30       	cpi	r24, 0x0D	; 13
    4fce:	19 f4       	brne	.+6      	; 0x4fd6 <__vector_13+0x40>
	  { 
  		cr_received=true;
    4fd0:	81 e0       	ldi	r24, 0x01	; 1
    4fd2:	80 93 48 03 	sts	0x0348, r24
	  }
	  rxBufTail++;                             //увеличить индекс хвоста приемного буфера 
    4fd6:	80 91 f3 02 	lds	r24, 0x02F3
    4fda:	8f 5f       	subi	r24, 0xFF	; 255
    4fdc:	80 93 f3 02 	sts	0x02F3, r24
      if (rxBufTail == SIZE_BUF) rxBufTail = 0;  
    4fe0:	80 91 f3 02 	lds	r24, 0x02F3
      rxCount++;                                 //увеличить счетчик принятых символов
    4fe4:	80 91 f5 02 	lds	r24, 0x02F5
    4fe8:	8f 5f       	subi	r24, 0xFF	; 255
    4fea:	80 93 f5 02 	sts	0x02F5, r24
    }
} 
    4fee:	ff 91       	pop	r31
    4ff0:	ef 91       	pop	r30
    4ff2:	bf 91       	pop	r27
    4ff4:	af 91       	pop	r26
    4ff6:	9f 91       	pop	r25
    4ff8:	8f 91       	pop	r24
    4ffa:	0f 90       	pop	r0
    4ffc:	0f be       	out	0x3f, r0	; 63
    4ffe:	0f 90       	pop	r0
    5000:	1f 90       	pop	r1
    5002:	18 95       	reti

00005004 <__udivmodqi4>:
    5004:	99 1b       	sub	r25, r25
    5006:	79 e0       	ldi	r23, 0x09	; 9
    5008:	04 c0       	rjmp	.+8      	; 0x5012 <__udivmodqi4_ep>

0000500a <__udivmodqi4_loop>:
    500a:	99 1f       	adc	r25, r25
    500c:	96 17       	cp	r25, r22
    500e:	08 f0       	brcs	.+2      	; 0x5012 <__udivmodqi4_ep>
    5010:	96 1b       	sub	r25, r22

00005012 <__udivmodqi4_ep>:
    5012:	88 1f       	adc	r24, r24
    5014:	7a 95       	dec	r23
    5016:	c9 f7       	brne	.-14     	; 0x500a <__udivmodqi4_loop>
    5018:	80 95       	com	r24
    501a:	08 95       	ret

0000501c <__udivmodhi4>:
    501c:	aa 1b       	sub	r26, r26
    501e:	bb 1b       	sub	r27, r27
    5020:	51 e1       	ldi	r21, 0x11	; 17
    5022:	07 c0       	rjmp	.+14     	; 0x5032 <__udivmodhi4_ep>

00005024 <__udivmodhi4_loop>:
    5024:	aa 1f       	adc	r26, r26
    5026:	bb 1f       	adc	r27, r27
    5028:	a6 17       	cp	r26, r22
    502a:	b7 07       	cpc	r27, r23
    502c:	10 f0       	brcs	.+4      	; 0x5032 <__udivmodhi4_ep>
    502e:	a6 1b       	sub	r26, r22
    5030:	b7 0b       	sbc	r27, r23

00005032 <__udivmodhi4_ep>:
    5032:	88 1f       	adc	r24, r24
    5034:	99 1f       	adc	r25, r25
    5036:	5a 95       	dec	r21
    5038:	a9 f7       	brne	.-22     	; 0x5024 <__udivmodhi4_loop>
    503a:	80 95       	com	r24
    503c:	90 95       	com	r25
    503e:	bc 01       	movw	r22, r24
    5040:	cd 01       	movw	r24, r26
    5042:	08 95       	ret

00005044 <__divmodhi4>:
    5044:	97 fb       	bst	r25, 7
    5046:	09 2e       	mov	r0, r25
    5048:	07 26       	eor	r0, r23
    504a:	0a d0       	rcall	.+20     	; 0x5060 <__divmodhi4_neg1>
    504c:	77 fd       	sbrc	r23, 7
    504e:	04 d0       	rcall	.+8      	; 0x5058 <__divmodhi4_neg2>
    5050:	e5 df       	rcall	.-54     	; 0x501c <__udivmodhi4>
    5052:	06 d0       	rcall	.+12     	; 0x5060 <__divmodhi4_neg1>
    5054:	00 20       	and	r0, r0
    5056:	1a f4       	brpl	.+6      	; 0x505e <__divmodhi4_exit>

00005058 <__divmodhi4_neg2>:
    5058:	70 95       	com	r23
    505a:	61 95       	neg	r22
    505c:	7f 4f       	sbci	r23, 0xFF	; 255

0000505e <__divmodhi4_exit>:
    505e:	08 95       	ret

00005060 <__divmodhi4_neg1>:
    5060:	f6 f7       	brtc	.-4      	; 0x505e <__divmodhi4_exit>
    5062:	90 95       	com	r25
    5064:	81 95       	neg	r24
    5066:	9f 4f       	sbci	r25, 0xFF	; 255
    5068:	08 95       	ret

0000506a <memmem>:
    506a:	21 15       	cp	r18, r1
    506c:	31 05       	cpc	r19, r1
    506e:	11 f1       	breq	.+68     	; 0x50b4 <memmem+0x4a>
    5070:	1f 93       	push	r17
    5072:	0f 93       	push	r16
    5074:	24 0f       	add	r18, r20
    5076:	35 1f       	adc	r19, r21
    5078:	68 0f       	add	r22, r24
    507a:	79 1f       	adc	r23, r25
    507c:	fa 01       	movw	r30, r20
    507e:	11 91       	ld	r17, Z+
    5080:	af 01       	movw	r20, r30
    5082:	dc 01       	movw	r26, r24
    5084:	a6 17       	cp	r26, r22
    5086:	b7 07       	cpc	r27, r23
    5088:	80 f4       	brcc	.+32     	; 0x50aa <memmem+0x40>
    508a:	0d 91       	ld	r16, X+
    508c:	01 17       	cp	r16, r17
    508e:	d1 f7       	brne	.-12     	; 0x5084 <memmem+0x1a>
    5090:	cd 01       	movw	r24, r26
    5092:	fa 01       	movw	r30, r20
    5094:	e2 17       	cp	r30, r18
    5096:	f3 07       	cpc	r31, r19
    5098:	50 f4       	brcc	.+20     	; 0x50ae <memmem+0x44>
    509a:	a6 17       	cp	r26, r22
    509c:	b7 07       	cpc	r27, r23
    509e:	28 f4       	brcc	.+10     	; 0x50aa <memmem+0x40>
    50a0:	0d 91       	ld	r16, X+
    50a2:	01 90       	ld	r0, Z+
    50a4:	00 15       	cp	r16, r0
    50a6:	b1 f3       	breq	.-20     	; 0x5094 <memmem+0x2a>
    50a8:	ec cf       	rjmp	.-40     	; 0x5082 <memmem+0x18>
    50aa:	81 e0       	ldi	r24, 0x01	; 1
    50ac:	90 e0       	ldi	r25, 0x00	; 0
    50ae:	01 97       	sbiw	r24, 0x01	; 1
    50b0:	0f 91       	pop	r16
    50b2:	1f 91       	pop	r17
    50b4:	08 95       	ret

000050b6 <__eerd_byte_m32>:
    50b6:	e1 99       	sbic	0x1c, 1	; 28
    50b8:	fe cf       	rjmp	.-4      	; 0x50b6 <__eerd_byte_m32>
    50ba:	9f bb       	out	0x1f, r25	; 31
    50bc:	8e bb       	out	0x1e, r24	; 30
    50be:	e0 9a       	sbi	0x1c, 0	; 28
    50c0:	99 27       	eor	r25, r25
    50c2:	8d b3       	in	r24, 0x1d	; 29
    50c4:	08 95       	ret

000050c6 <__eerd_word_m32>:
    50c6:	a8 e1       	ldi	r26, 0x18	; 24
    50c8:	b0 e0       	ldi	r27, 0x00	; 0
    50ca:	42 e0       	ldi	r20, 0x02	; 2
    50cc:	50 e0       	ldi	r21, 0x00	; 0
    50ce:	0c 94 7d 28 	jmp	0x50fa	; 0x50fa <__eerd_blraw_m32>

000050d2 <__eewr_byte_m32>:
    50d2:	26 2f       	mov	r18, r22

000050d4 <__eewr_r18_m32>:
    50d4:	e1 99       	sbic	0x1c, 1	; 28
    50d6:	fe cf       	rjmp	.-4      	; 0x50d4 <__eewr_r18_m32>
    50d8:	9f bb       	out	0x1f, r25	; 31
    50da:	8e bb       	out	0x1e, r24	; 30
    50dc:	2d bb       	out	0x1d, r18	; 29
    50de:	0f b6       	in	r0, 0x3f	; 63
    50e0:	f8 94       	cli
    50e2:	e2 9a       	sbi	0x1c, 2	; 28
    50e4:	e1 9a       	sbi	0x1c, 1	; 28
    50e6:	0f be       	out	0x3f, r0	; 63
    50e8:	01 96       	adiw	r24, 0x01	; 1
    50ea:	08 95       	ret

000050ec <__eewr_word_m32>:
    50ec:	0e 94 69 28 	call	0x50d2	; 0x50d2 <__eewr_byte_m32>
    50f0:	27 2f       	mov	r18, r23
    50f2:	0c 94 6a 28 	jmp	0x50d4	; 0x50d4 <__eewr_r18_m32>

000050f6 <__eerd_block_m32>:
    50f6:	dc 01       	movw	r26, r24
    50f8:	cb 01       	movw	r24, r22

000050fa <__eerd_blraw_m32>:
    50fa:	fc 01       	movw	r30, r24
    50fc:	e1 99       	sbic	0x1c, 1	; 28
    50fe:	fe cf       	rjmp	.-4      	; 0x50fc <__eerd_blraw_m32+0x2>
    5100:	06 c0       	rjmp	.+12     	; 0x510e <__eerd_blraw_m32+0x14>
    5102:	ff bb       	out	0x1f, r31	; 31
    5104:	ee bb       	out	0x1e, r30	; 30
    5106:	e0 9a       	sbi	0x1c, 0	; 28
    5108:	31 96       	adiw	r30, 0x01	; 1
    510a:	0d b2       	in	r0, 0x1d	; 29
    510c:	0d 92       	st	X+, r0
    510e:	41 50       	subi	r20, 0x01	; 1
    5110:	50 40       	sbci	r21, 0x00	; 0
    5112:	b8 f7       	brcc	.-18     	; 0x5102 <__eerd_blraw_m32+0x8>
    5114:	08 95       	ret

00005116 <_exit>:
    5116:	f8 94       	cli

00005118 <__stop_program>:
    5118:	ff cf       	rjmp	.-2      	; 0x5118 <__stop_program>
